Archive member included to satisfy reference by file (symbol)

c:/ProgramFiles/mingw-w64-x86_64-8.1.0-posix-seh-rt_v6-rev0/mingw64/bin/../lib/gcc/x86_64-w64-mingw32/8.1.0/../../../../x86_64-w64-mingw32/lib/../lib/libmingw32.a(lib64_libmingw32_a-gccmain.o)
                              c:/ProgramFiles/mingw-w64-x86_64-8.1.0-posix-seh-rt_v6-rev0/mingw64/bin/../lib/gcc/x86_64-w64-mingw32/8.1.0/../../../../x86_64-w64-mingw32/lib/../lib/crt2.o (__main)
c:/ProgramFiles/mingw-w64-x86_64-8.1.0-posix-seh-rt_v6-rev0/mingw64/bin/../lib/gcc/x86_64-w64-mingw32/8.1.0/../../../../x86_64-w64-mingw32/lib/../lib/libmingw32.a(lib64_libmingw32_a-natstart.o)
                              c:/ProgramFiles/mingw-w64-x86_64-8.1.0-posix-seh-rt_v6-rev0/mingw64/bin/../lib/gcc/x86_64-w64-mingw32/8.1.0/../../../../x86_64-w64-mingw32/lib/../lib/crt2.o (__native_startup_lock)
c:/ProgramFiles/mingw-w64-x86_64-8.1.0-posix-seh-rt_v6-rev0/mingw64/bin/../lib/gcc/x86_64-w64-mingw32/8.1.0/../../../../x86_64-w64-mingw32/lib/../lib/libmingw32.a(lib64_libmingw32_a-wildcard.o)
                              c:/ProgramFiles/mingw-w64-x86_64-8.1.0-posix-seh-rt_v6-rev0/mingw64/bin/../lib/gcc/x86_64-w64-mingw32/8.1.0/../../../../x86_64-w64-mingw32/lib/../lib/crt2.o (_dowildcard)
c:/ProgramFiles/mingw-w64-x86_64-8.1.0-posix-seh-rt_v6-rev0/mingw64/bin/../lib/gcc/x86_64-w64-mingw32/8.1.0/../../../../x86_64-w64-mingw32/lib/../lib/libmingw32.a(lib64_libmingw32_a-charmax.o)
                              c:/ProgramFiles/mingw-w64-x86_64-8.1.0-posix-seh-rt_v6-rev0/mingw64/bin/../lib/gcc/x86_64-w64-mingw32/8.1.0/../../../../x86_64-w64-mingw32/lib/../lib/crt2.o (mingw_initcharmax)
c:/ProgramFiles/mingw-w64-x86_64-8.1.0-posix-seh-rt_v6-rev0/mingw64/bin/../lib/gcc/x86_64-w64-mingw32/8.1.0/../../../../x86_64-w64-mingw32/lib/../lib/libmingw32.a(lib64_libmingw32_a-dllargv.o)
                              c:/ProgramFiles/mingw-w64-x86_64-8.1.0-posix-seh-rt_v6-rev0/mingw64/bin/../lib/gcc/x86_64-w64-mingw32/8.1.0/../../../../x86_64-w64-mingw32/lib/../lib/crt2.o (_setargv)
c:/ProgramFiles/mingw-w64-x86_64-8.1.0-posix-seh-rt_v6-rev0/mingw64/bin/../lib/gcc/x86_64-w64-mingw32/8.1.0/../../../../x86_64-w64-mingw32/lib/../lib/libmingw32.a(lib64_libmingw32_a-gs_support.o)
                              c:/ProgramFiles/mingw-w64-x86_64-8.1.0-posix-seh-rt_v6-rev0/mingw64/bin/../lib/gcc/x86_64-w64-mingw32/8.1.0/../../../../x86_64-w64-mingw32/lib/../lib/crt2.o (__security_init_cookie)
c:/ProgramFiles/mingw-w64-x86_64-8.1.0-posix-seh-rt_v6-rev0/mingw64/bin/../lib/gcc/x86_64-w64-mingw32/8.1.0/../../../../x86_64-w64-mingw32/lib/../lib/libmingw32.a(lib64_libmingw32_a-_newmode.o)
                              c:/ProgramFiles/mingw-w64-x86_64-8.1.0-posix-seh-rt_v6-rev0/mingw64/bin/../lib/gcc/x86_64-w64-mingw32/8.1.0/../../../../x86_64-w64-mingw32/lib/../lib/crt2.o (_newmode)
c:/ProgramFiles/mingw-w64-x86_64-8.1.0-posix-seh-rt_v6-rev0/mingw64/bin/../lib/gcc/x86_64-w64-mingw32/8.1.0/../../../../x86_64-w64-mingw32/lib/../lib/libmingw32.a(lib64_libmingw32_a-tlssup.o)
                              c:/ProgramFiles/mingw-w64-x86_64-8.1.0-posix-seh-rt_v6-rev0/mingw64/bin/../lib/gcc/x86_64-w64-mingw32/8.1.0/../../../../x86_64-w64-mingw32/lib/../lib/crt2.o (mingw_initltssuo_force)
c:/ProgramFiles/mingw-w64-x86_64-8.1.0-posix-seh-rt_v6-rev0/mingw64/bin/../lib/gcc/x86_64-w64-mingw32/8.1.0/../../../../x86_64-w64-mingw32/lib/../lib/libmingw32.a(lib64_libmingw32_a-cinitexe.o)
                              c:/ProgramFiles/mingw-w64-x86_64-8.1.0-posix-seh-rt_v6-rev0/mingw64/bin/../lib/gcc/x86_64-w64-mingw32/8.1.0/../../../../x86_64-w64-mingw32/lib/../lib/crt2.o (__xc_z)
c:/ProgramFiles/mingw-w64-x86_64-8.1.0-posix-seh-rt_v6-rev0/mingw64/bin/../lib/gcc/x86_64-w64-mingw32/8.1.0/../../../../x86_64-w64-mingw32/lib/../lib/libmingw32.a(lib64_libmingw32_a-merr.o)
                              c:/ProgramFiles/mingw-w64-x86_64-8.1.0-posix-seh-rt_v6-rev0/mingw64/bin/../lib/gcc/x86_64-w64-mingw32/8.1.0/../../../../x86_64-w64-mingw32/lib/../lib/crt2.o (__mingw_setusermatherr)
c:/ProgramFiles/mingw-w64-x86_64-8.1.0-posix-seh-rt_v6-rev0/mingw64/bin/../lib/gcc/x86_64-w64-mingw32/8.1.0/../../../../x86_64-w64-mingw32/lib/../lib/libmingw32.a(lib64_libmingw32_a-CRT_fp10.o)
                              c:/ProgramFiles/mingw-w64-x86_64-8.1.0-posix-seh-rt_v6-rev0/mingw64/bin/../lib/gcc/x86_64-w64-mingw32/8.1.0/../../../../x86_64-w64-mingw32/lib/../lib/crt2.o (_fpreset)
c:/ProgramFiles/mingw-w64-x86_64-8.1.0-posix-seh-rt_v6-rev0/mingw64/bin/../lib/gcc/x86_64-w64-mingw32/8.1.0/../../../../x86_64-w64-mingw32/lib/../lib/libmingw32.a(lib64_libmingw32_a-mingw_helpers.o)
                              c:/ProgramFiles/mingw-w64-x86_64-8.1.0-posix-seh-rt_v6-rev0/mingw64/bin/../lib/gcc/x86_64-w64-mingw32/8.1.0/../../../../x86_64-w64-mingw32/lib/../lib/crt2.o (mingw_app_type)
c:/ProgramFiles/mingw-w64-x86_64-8.1.0-posix-seh-rt_v6-rev0/mingw64/bin/../lib/gcc/x86_64-w64-mingw32/8.1.0/../../../../x86_64-w64-mingw32/lib/../lib/libmingw32.a(lib64_libmingw32_a-pseudo-reloc.o)
                              c:/ProgramFiles/mingw-w64-x86_64-8.1.0-posix-seh-rt_v6-rev0/mingw64/bin/../lib/gcc/x86_64-w64-mingw32/8.1.0/../../../../x86_64-w64-mingw32/lib/../lib/crt2.o (_pei386_runtime_relocator)
c:/ProgramFiles/mingw-w64-x86_64-8.1.0-posix-seh-rt_v6-rev0/mingw64/bin/../lib/gcc/x86_64-w64-mingw32/8.1.0/../../../../x86_64-w64-mingw32/lib/../lib/libmingw32.a(lib64_libmingw32_a-xtxtmode.o)
                              c:/ProgramFiles/mingw-w64-x86_64-8.1.0-posix-seh-rt_v6-rev0/mingw64/bin/../lib/gcc/x86_64-w64-mingw32/8.1.0/../../../../x86_64-w64-mingw32/lib/../lib/crt2.o (_fmode)
c:/ProgramFiles/mingw-w64-x86_64-8.1.0-posix-seh-rt_v6-rev0/mingw64/bin/../lib/gcc/x86_64-w64-mingw32/8.1.0/../../../../x86_64-w64-mingw32/lib/../lib/libmingw32.a(lib64_libmingw32_a-crt_handler.o)
                              c:/ProgramFiles/mingw-w64-x86_64-8.1.0-posix-seh-rt_v6-rev0/mingw64/bin/../lib/gcc/x86_64-w64-mingw32/8.1.0/../../../../x86_64-w64-mingw32/lib/../lib/crt2.o (__mingw_init_ehandler)
c:/ProgramFiles/mingw-w64-x86_64-8.1.0-posix-seh-rt_v6-rev0/mingw64/bin/../lib/gcc/x86_64-w64-mingw32/8.1.0/../../../../x86_64-w64-mingw32/lib/../lib/libmingw32.a(lib64_libmingw32_a-tlsthrd.o)
                              c:/ProgramFiles/mingw-w64-x86_64-8.1.0-posix-seh-rt_v6-rev0/mingw64/bin/../lib/gcc/x86_64-w64-mingw32/8.1.0/../../../../x86_64-w64-mingw32/lib/../lib/libmingw32.a(lib64_libmingw32_a-tlssup.o) (__mingw_TLScallback)
c:/ProgramFiles/mingw-w64-x86_64-8.1.0-posix-seh-rt_v6-rev0/mingw64/bin/../lib/gcc/x86_64-w64-mingw32/8.1.0/../../../../x86_64-w64-mingw32/lib/../lib/libmingw32.a(lib64_libmingw32_a-tlsmcrt.o)
                              c:/ProgramFiles/mingw-w64-x86_64-8.1.0-posix-seh-rt_v6-rev0/mingw64/bin/../lib/gcc/x86_64-w64-mingw32/8.1.0/../../../../x86_64-w64-mingw32/lib/../lib/libmingw32.a(lib64_libmingw32_a-tlssup.o) (_CRT_MT)
c:/ProgramFiles/mingw-w64-x86_64-8.1.0-posix-seh-rt_v6-rev0/mingw64/bin/../lib/gcc/x86_64-w64-mingw32/8.1.0/../../../../x86_64-w64-mingw32/lib/../lib/libmingw32.a(lib64_libmingw32_a-pseudo-reloc-list.o)
                              c:/ProgramFiles/mingw-w64-x86_64-8.1.0-posix-seh-rt_v6-rev0/mingw64/bin/../lib/gcc/x86_64-w64-mingw32/8.1.0/../../../../x86_64-w64-mingw32/lib/../lib/libmingw32.a(lib64_libmingw32_a-pseudo-reloc.o) (__RUNTIME_PSEUDO_RELOC_LIST__)
c:/ProgramFiles/mingw-w64-x86_64-8.1.0-posix-seh-rt_v6-rev0/mingw64/bin/../lib/gcc/x86_64-w64-mingw32/8.1.0/../../../../x86_64-w64-mingw32/lib/../lib/libmingw32.a(lib64_libmingw32_a-pesect.o)
                              c:/ProgramFiles/mingw-w64-x86_64-8.1.0-posix-seh-rt_v6-rev0/mingw64/bin/../lib/gcc/x86_64-w64-mingw32/8.1.0/../../../../x86_64-w64-mingw32/lib/../lib/libmingw32.a(lib64_libmingw32_a-crt_handler.o) (_FindPESectionByName)
c:/ProgramFiles/mingw-w64-x86_64-8.1.0-posix-seh-rt_v6-rev0/mingw64/bin/../lib/gcc/x86_64-w64-mingw32/8.1.0/libgcc.a(_chkstk_ms.o)
                              bin/win/DEBUG/obj/fil_file.o (___chkstk_ms)
c:/ProgramFiles/mingw-w64-x86_64-8.1.0-posix-seh-rt_v6-rev0/mingw64/bin/../lib/gcc/x86_64-w64-mingw32/8.1.0/libgcc.a(_ctors.o)
                              c:/ProgramFiles/mingw-w64-x86_64-8.1.0-posix-seh-rt_v6-rev0/mingw64/bin/../lib/gcc/x86_64-w64-mingw32/8.1.0/../../../../x86_64-w64-mingw32/lib/../lib/libmingw32.a(lib64_libmingw32_a-gccmain.o) (__DTOR_LIST__)
c:/ProgramFiles/mingw-w64-x86_64-8.1.0-posix-seh-rt_v6-rev0/mingw64/bin/../lib/gcc/x86_64-w64-mingw32/8.1.0/../../../../x86_64-w64-mingw32/lib/../lib/libmingwex.a(lib64_libmingwex_a-strtodnrp.o)
                              bin/win/DEBUG/obj/opt_getOpt.o (__strtod)
c:/ProgramFiles/mingw-w64-x86_64-8.1.0-posix-seh-rt_v6-rev0/mingw64/bin/../lib/gcc/x86_64-w64-mingw32/8.1.0/../../../../x86_64-w64-mingw32/lib/../lib/libmingwex.a(lib64_libmingwex_a-dirent.o)
                              bin/win/DEBUG/obj/fil_file.o (opendir)
c:/ProgramFiles/mingw-w64-x86_64-8.1.0-posix-seh-rt_v6-rev0/mingw64/bin/../lib/gcc/x86_64-w64-mingw32/8.1.0/../../../../x86_64-w64-mingw32/lib/../lib/libmingwex.a(lib64_libmingwex_a-getopt.o)
                              bin/win/DEBUG/obj/opt_getOpt.o (getopt_long)
c:/ProgramFiles/mingw-w64-x86_64-8.1.0-posix-seh-rt_v6-rev0/mingw64/bin/../lib/gcc/x86_64-w64-mingw32/8.1.0/../../../../x86_64-w64-mingw32/lib/../lib/libmingwex.a(lib64_libmingwex_a-mingw_matherr.o)
                              c:/ProgramFiles/mingw-w64-x86_64-8.1.0-posix-seh-rt_v6-rev0/mingw64/bin/../lib/gcc/x86_64-w64-mingw32/8.1.0/../../../../x86_64-w64-mingw32/lib/../lib/crt2.o (_MINGW_INSTALL_DEBUG_MATHERR)
c:/ProgramFiles/mingw-w64-x86_64-8.1.0-posix-seh-rt_v6-rev0/mingw64/bin/../lib/gcc/x86_64-w64-mingw32/8.1.0/../../../../x86_64-w64-mingw32/lib/../lib/libmingwex.a(lib64_libmingwex_a-wassert.o)
                              bin/win/DEBUG/obj/apt_applicationTask.o (_assert)
c:/ProgramFiles/mingw-w64-x86_64-8.1.0-posix-seh-rt_v6-rev0/mingw64/bin/../lib/gcc/x86_64-w64-mingw32/8.1.0/../../../../x86_64-w64-mingw32/lib/../lib/libmingwex.a(lib64_libmingwex_a-vsnprintf.o)
                              bin/win/DEBUG/obj/fil_file.o (__ms_vsnprintf)
c:/ProgramFiles/mingw-w64-x86_64-8.1.0-posix-seh-rt_v6-rev0/mingw64/bin/../lib/gcc/x86_64-w64-mingw32/8.1.0/../../../../x86_64-w64-mingw32/lib/../lib/libmingwex.a(lib64_libmingwex_a-strtodg.o)
                              c:/ProgramFiles/mingw-w64-x86_64-8.1.0-posix-seh-rt_v6-rev0/mingw64/bin/../lib/gcc/x86_64-w64-mingw32/8.1.0/../../../../x86_64-w64-mingw32/lib/../lib/libmingwex.a(lib64_libmingwex_a-strtodnrp.o) (__strtodg)
c:/ProgramFiles/mingw-w64-x86_64-8.1.0-posix-seh-rt_v6-rev0/mingw64/bin/../lib/gcc/x86_64-w64-mingw32/8.1.0/../../../../x86_64-w64-mingw32/lib/../lib/libmingwex.a(lib64_libmingwex_a-sum.o)
                              c:/ProgramFiles/mingw-w64-x86_64-8.1.0-posix-seh-rt_v6-rev0/mingw64/bin/../lib/gcc/x86_64-w64-mingw32/8.1.0/../../../../x86_64-w64-mingw32/lib/../lib/libmingwex.a(lib64_libmingwex_a-strtodg.o) (__sum_D2A)
c:/ProgramFiles/mingw-w64-x86_64-8.1.0-posix-seh-rt_v6-rev0/mingw64/bin/../lib/gcc/x86_64-w64-mingw32/8.1.0/../../../../x86_64-w64-mingw32/lib/../lib/libmingwex.a(lib64_libmingwex_a-gethex.o)
                              c:/ProgramFiles/mingw-w64-x86_64-8.1.0-posix-seh-rt_v6-rev0/mingw64/bin/../lib/gcc/x86_64-w64-mingw32/8.1.0/../../../../x86_64-w64-mingw32/lib/../lib/libmingwex.a(lib64_libmingwex_a-strtodg.o) (__gethex_D2A)
c:/ProgramFiles/mingw-w64-x86_64-8.1.0-posix-seh-rt_v6-rev0/mingw64/bin/../lib/gcc/x86_64-w64-mingw32/8.1.0/../../../../x86_64-w64-mingw32/lib/../lib/libmingwex.a(lib64_libmingwex_a-gmisc.o)
                              c:/ProgramFiles/mingw-w64-x86_64-8.1.0-posix-seh-rt_v6-rev0/mingw64/bin/../lib/gcc/x86_64-w64-mingw32/8.1.0/../../../../x86_64-w64-mingw32/lib/../lib/libmingwex.a(lib64_libmingwex_a-strtodg.o) (__rshift_D2A)
c:/ProgramFiles/mingw-w64-x86_64-8.1.0-posix-seh-rt_v6-rev0/mingw64/bin/../lib/gcc/x86_64-w64-mingw32/8.1.0/../../../../x86_64-w64-mingw32/lib/../lib/libmingwex.a(lib64_libmingwex_a-hd_init.o)
                              c:/ProgramFiles/mingw-w64-x86_64-8.1.0-posix-seh-rt_v6-rev0/mingw64/bin/../lib/gcc/x86_64-w64-mingw32/8.1.0/../../../../x86_64-w64-mingw32/lib/../lib/libmingwex.a(lib64_libmingwex_a-gethex.o) (__mingw_hexdig_init_D2A)
c:/ProgramFiles/mingw-w64-x86_64-8.1.0-posix-seh-rt_v6-rev0/mingw64/bin/../lib/gcc/x86_64-w64-mingw32/8.1.0/../../../../x86_64-w64-mingw32/lib/../lib/libmingwex.a(lib64_libmingwex_a-hexnan.o)
                              c:/ProgramFiles/mingw-w64-x86_64-8.1.0-posix-seh-rt_v6-rev0/mingw64/bin/../lib/gcc/x86_64-w64-mingw32/8.1.0/../../../../x86_64-w64-mingw32/lib/../lib/libmingwex.a(lib64_libmingwex_a-strtodg.o) (__hexnan_D2A)
c:/ProgramFiles/mingw-w64-x86_64-8.1.0-posix-seh-rt_v6-rev0/mingw64/bin/../lib/gcc/x86_64-w64-mingw32/8.1.0/../../../../x86_64-w64-mingw32/lib/../lib/libmingwex.a(lib64_libmingwex_a-misc.o)
                              c:/ProgramFiles/mingw-w64-x86_64-8.1.0-posix-seh-rt_v6-rev0/mingw64/bin/../lib/gcc/x86_64-w64-mingw32/8.1.0/../../../../x86_64-w64-mingw32/lib/../lib/libmingwex.a(lib64_libmingwex_a-strtodg.o) (__Balloc_D2A)
c:/ProgramFiles/mingw-w64-x86_64-8.1.0-posix-seh-rt_v6-rev0/mingw64/bin/../lib/gcc/x86_64-w64-mingw32/8.1.0/../../../../x86_64-w64-mingw32/lib/../lib/libmingwex.a(lib64_libmingwex_a-smisc.o)
                              c:/ProgramFiles/mingw-w64-x86_64-8.1.0-posix-seh-rt_v6-rev0/mingw64/bin/../lib/gcc/x86_64-w64-mingw32/8.1.0/../../../../x86_64-w64-mingw32/lib/../lib/libmingwex.a(lib64_libmingwex_a-strtodg.o) (__s2b_D2A)
c:/ProgramFiles/mingw-w64-x86_64-8.1.0-posix-seh-rt_v6-rev0/mingw64/bin/../lib/gcc/x86_64-w64-mingw32/8.1.0/../../../../x86_64-w64-mingw32/lib/../lib/libmsvcrt.a(duags01260.o)
                              c:/ProgramFiles/mingw-w64-x86_64-8.1.0-posix-seh-rt_v6-rev0/mingw64/bin/../lib/gcc/x86_64-w64-mingw32/8.1.0/../../../../x86_64-w64-mingw32/lib/../lib/libmingwex.a(lib64_libmingwex_a-wassert.o) (wcscpy)
c:/ProgramFiles/mingw-w64-x86_64-8.1.0-posix-seh-rt_v6-rev0/mingw64/bin/../lib/gcc/x86_64-w64-mingw32/8.1.0/../../../../x86_64-w64-mingw32/lib/../lib/libmsvcrt.a(duags01243.o)
                              bin/win/DEBUG/obj/log_logger.o (vfprintf)
c:/ProgramFiles/mingw-w64-x86_64-8.1.0-posix-seh-rt_v6-rev0/mingw64/bin/../lib/gcc/x86_64-w64-mingw32/8.1.0/../../../../x86_64-w64-mingw32/lib/../lib/libmsvcrt.a(duags01214.o)
                              bin/win/DEBUG/obj/fil_file.o (strpbrk)
c:/ProgramFiles/mingw-w64-x86_64-8.1.0-posix-seh-rt_v6-rev0/mingw64/bin/../lib/gcc/x86_64-w64-mingw32/8.1.0/../../../../x86_64-w64-mingw32/lib/../lib/libmsvcrt.a(duags01212.o)
                              c:/ProgramFiles/mingw-w64-x86_64-8.1.0-posix-seh-rt_v6-rev0/mingw64/bin/../lib/gcc/x86_64-w64-mingw32/8.1.0/../../../../x86_64-w64-mingw32/lib/../lib/libmingwex.a(lib64_libmingwex_a-dirent.o) (strncpy)
c:/ProgramFiles/mingw-w64-x86_64-8.1.0-posix-seh-rt_v6-rev0/mingw64/bin/../lib/gcc/x86_64-w64-mingw32/8.1.0/../../../../x86_64-w64-mingw32/lib/../lib/libmsvcrt.a(duags01211.o)
                              c:/ProgramFiles/mingw-w64-x86_64-8.1.0-posix-seh-rt_v6-rev0/mingw64/bin/../lib/gcc/x86_64-w64-mingw32/8.1.0/../../../../x86_64-w64-mingw32/lib/../lib/libmingw32.a(lib64_libmingw32_a-pesect.o) (strncmp)
c:/ProgramFiles/mingw-w64-x86_64-8.1.0-posix-seh-rt_v6-rev0/mingw64/bin/../lib/gcc/x86_64-w64-mingw32/8.1.0/../../../../x86_64-w64-mingw32/lib/../lib/libmsvcrt.a(duags01209.o)
                              bin/win/DEBUG/obj/main.o (strncat)
c:/ProgramFiles/mingw-w64-x86_64-8.1.0-posix-seh-rt_v6-rev0/mingw64/bin/../lib/gcc/x86_64-w64-mingw32/8.1.0/../../../../x86_64-w64-mingw32/lib/../lib/libmsvcrt.a(duags01208.o)
                              c:/ProgramFiles/mingw-w64-x86_64-8.1.0-posix-seh-rt_v6-rev0/mingw64/bin/../lib/gcc/x86_64-w64-mingw32/8.1.0/../../../../x86_64-w64-mingw32/lib/../lib/crt2.o (strlen)
c:/ProgramFiles/mingw-w64-x86_64-8.1.0-posix-seh-rt_v6-rev0/mingw64/bin/../lib/gcc/x86_64-w64-mingw32/8.1.0/../../../../x86_64-w64-mingw32/lib/../lib/libmsvcrt.a(duags01203.o)
                              bin/win/DEBUG/obj/fil_file.o (strcpy)
c:/ProgramFiles/mingw-w64-x86_64-8.1.0-posix-seh-rt_v6-rev0/mingw64/bin/../lib/gcc/x86_64-w64-mingw32/8.1.0/../../../../x86_64-w64-mingw32/lib/../lib/libmsvcrt.a(duags01201.o)
                              bin/win/DEBUG/obj/fil_file.o (strcmp)
c:/ProgramFiles/mingw-w64-x86_64-8.1.0-posix-seh-rt_v6-rev0/mingw64/bin/../lib/gcc/x86_64-w64-mingw32/8.1.0/../../../../x86_64-w64-mingw32/lib/../lib/libmsvcrt.a(duags01200.o)
                              bin/win/DEBUG/obj/fil_file.o (strchr)
c:/ProgramFiles/mingw-w64-x86_64-8.1.0-posix-seh-rt_v6-rev0/mingw64/bin/../lib/gcc/x86_64-w64-mingw32/8.1.0/../../../../x86_64-w64-mingw32/lib/../lib/libmsvcrt.a(duags01187.o)
                              c:/ProgramFiles/mingw-w64-x86_64-8.1.0-posix-seh-rt_v6-rev0/mingw64/bin/../lib/gcc/x86_64-w64-mingw32/8.1.0/../../../../x86_64-w64-mingw32/lib/../lib/libmingw32.a(lib64_libmingw32_a-crt_handler.o) (signal)
c:/ProgramFiles/mingw-w64-x86_64-8.1.0-posix-seh-rt_v6-rev0/mingw64/bin/../lib/gcc/x86_64-w64-mingw32/8.1.0/../../../../x86_64-w64-mingw32/lib/../lib/libmsvcrt.a(duags01176.o)
                              bin/win/DEBUG/obj/oss_operatingSystemSimulation.o (rand)
c:/ProgramFiles/mingw-w64-x86_64-8.1.0-posix-seh-rt_v6-rev0/mingw64/bin/../lib/gcc/x86_64-w64-mingw32/8.1.0/../../../../x86_64-w64-mingw32/lib/../lib/libmsvcrt.a(duags01175.o)
                              c:/ProgramFiles/mingw-w64-x86_64-8.1.0-posix-seh-rt_v6-rev0/mingw64/bin/../lib/gcc/x86_64-w64-mingw32/8.1.0/../../../../x86_64-w64-mingw32/lib/../lib/libmingwex.a(lib64_libmingwex_a-wassert.o) (raise)
c:/ProgramFiles/mingw-w64-x86_64-8.1.0-posix-seh-rt_v6-rev0/mingw64/bin/../lib/gcc/x86_64-w64-mingw32/8.1.0/../../../../x86_64-w64-mingw32/lib/../lib/libmsvcrt.a(duags01170.o)
                              bin/win/DEBUG/obj/main.o (puts)
c:/ProgramFiles/mingw-w64-x86_64-8.1.0-posix-seh-rt_v6-rev0/mingw64/bin/../lib/gcc/x86_64-w64-mingw32/8.1.0/../../../../x86_64-w64-mingw32/lib/../lib/libmsvcrt.a(duags01159.o)
                              bin/win/DEBUG/obj/oss_operatingSystemSimulation.o (memset)
c:/ProgramFiles/mingw-w64-x86_64-8.1.0-posix-seh-rt_v6-rev0/mingw64/bin/../lib/gcc/x86_64-w64-mingw32/8.1.0/../../../../x86_64-w64-mingw32/lib/../lib/libmsvcrt.a(duags01157.o)
                              c:/ProgramFiles/mingw-w64-x86_64-8.1.0-posix-seh-rt_v6-rev0/mingw64/bin/../lib/gcc/x86_64-w64-mingw32/8.1.0/../../../../x86_64-w64-mingw32/lib/../lib/crt2.o (memcpy)
c:/ProgramFiles/mingw-w64-x86_64-8.1.0-posix-seh-rt_v6-rev0/mingw64/bin/../lib/gcc/x86_64-w64-mingw32/8.1.0/../../../../x86_64-w64-mingw32/lib/../lib/libmsvcrt.a(duags01156.o)
                              bin/win/DEBUG/obj/cbk_callbacks.o (memcmp)
c:/ProgramFiles/mingw-w64-x86_64-8.1.0-posix-seh-rt_v6-rev0/mingw64/bin/../lib/gcc/x86_64-w64-mingw32/8.1.0/../../../../x86_64-w64-mingw32/lib/../lib/libmsvcrt.a(duags01149.o)
                              c:/ProgramFiles/mingw-w64-x86_64-8.1.0-posix-seh-rt_v6-rev0/mingw64/bin/../lib/gcc/x86_64-w64-mingw32/8.1.0/../../../../x86_64-w64-mingw32/lib/../lib/crt2.o (malloc)
c:/ProgramFiles/mingw-w64-x86_64-8.1.0-posix-seh-rt_v6-rev0/mingw64/bin/../lib/gcc/x86_64-w64-mingw32/8.1.0/../../../../x86_64-w64-mingw32/lib/../lib/libmsvcrt.a(duags01142.o)
                              c:/ProgramFiles/mingw-w64-x86_64-8.1.0-posix-seh-rt_v6-rev0/mingw64/bin/../lib/gcc/x86_64-w64-mingw32/8.1.0/../../../../x86_64-w64-mingw32/lib/../lib/libmingwex.a(lib64_libmingwex_a-strtodg.o) (localeconv)
c:/ProgramFiles/mingw-w64-x86_64-8.1.0-posix-seh-rt_v6-rev0/mingw64/bin/../lib/gcc/x86_64-w64-mingw32/8.1.0/../../../../x86_64-w64-mingw32/lib/../lib/libmsvcrt.a(duags01120.o)
                              bin/win/DEBUG/obj/opt_getOpt.o (__imp_isprint)
c:/ProgramFiles/mingw-w64-x86_64-8.1.0-posix-seh-rt_v6-rev0/mingw64/bin/../lib/gcc/x86_64-w64-mingw32/8.1.0/../../../../x86_64-w64-mingw32/lib/../lib/libmsvcrt.a(duags01106.o)
                              c:/ProgramFiles/mingw-w64-x86_64-8.1.0-posix-seh-rt_v6-rev0/mingw64/bin/../lib/gcc/x86_64-w64-mingw32/8.1.0/../../../../x86_64-w64-mingw32/lib/../lib/libmingwex.a(lib64_libmingwex_a-getopt.o) (getenv)
c:/ProgramFiles/mingw-w64-x86_64-8.1.0-posix-seh-rt_v6-rev0/mingw64/bin/../lib/gcc/x86_64-w64-mingw32/8.1.0/../../../../x86_64-w64-mingw32/lib/../lib/libmsvcrt.a(duags01101.o)
                              bin/win/DEBUG/obj/opt_getOpt.o (fwrite)
c:/ProgramFiles/mingw-w64-x86_64-8.1.0-posix-seh-rt_v6-rev0/mingw64/bin/../lib/gcc/x86_64-w64-mingw32/8.1.0/../../../../x86_64-w64-mingw32/lib/../lib/libmsvcrt.a(duags01099.o)
                              c:/ProgramFiles/mingw-w64-x86_64-8.1.0-posix-seh-rt_v6-rev0/mingw64/bin/../lib/gcc/x86_64-w64-mingw32/8.1.0/../../../../x86_64-w64-mingw32/lib/../lib/libmingwex.a(lib64_libmingwex_a-wassert.o) (fwprintf)
c:/ProgramFiles/mingw-w64-x86_64-8.1.0-posix-seh-rt_v6-rev0/mingw64/bin/../lib/gcc/x86_64-w64-mingw32/8.1.0/../../../../x86_64-w64-mingw32/lib/../lib/libmsvcrt.a(duags01089.o)
                              bin/win/DEBUG/obj/fil_file.o (free)
c:/ProgramFiles/mingw-w64-x86_64-8.1.0-posix-seh-rt_v6-rev0/mingw64/bin/../lib/gcc/x86_64-w64-mingw32/8.1.0/../../../../x86_64-w64-mingw32/lib/../lib/libmsvcrt.a(duags01085.o)
                              bin/win/DEBUG/obj/log_logger.o (fputs)
c:/ProgramFiles/mingw-w64-x86_64-8.1.0-posix-seh-rt_v6-rev0/mingw64/bin/../lib/gcc/x86_64-w64-mingw32/8.1.0/../../../../x86_64-w64-mingw32/lib/../lib/libmsvcrt.a(duags01084.o)
                              bin/win/DEBUG/obj/fil_file.o (fputc)
c:/ProgramFiles/mingw-w64-x86_64-8.1.0-posix-seh-rt_v6-rev0/mingw64/bin/../lib/gcc/x86_64-w64-mingw32/8.1.0/../../../../x86_64-w64-mingw32/lib/../lib/libmsvcrt.a(duags01082.o)
                              bin/win/DEBUG/obj/fil_file.o (fprintf)
c:/ProgramFiles/mingw-w64-x86_64-8.1.0-posix-seh-rt_v6-rev0/mingw64/bin/../lib/gcc/x86_64-w64-mingw32/8.1.0/../../../../x86_64-w64-mingw32/lib/../lib/libmsvcrt.a(duags01080.o)
                              bin/win/DEBUG/obj/fil_file.o (fopen)
c:/ProgramFiles/mingw-w64-x86_64-8.1.0-posix-seh-rt_v6-rev0/mingw64/bin/../lib/gcc/x86_64-w64-mingw32/8.1.0/../../../../x86_64-w64-mingw32/lib/../lib/libmsvcrt.a(duags01071.o)
                              bin/win/DEBUG/obj/fil_file.o (fgetc)
c:/ProgramFiles/mingw-w64-x86_64-8.1.0-posix-seh-rt_v6-rev0/mingw64/bin/../lib/gcc/x86_64-w64-mingw32/8.1.0/../../../../x86_64-w64-mingw32/lib/../lib/libmsvcrt.a(duags01070.o)
                              bin/win/DEBUG/obj/log_logger.o (fflush)
c:/ProgramFiles/mingw-w64-x86_64-8.1.0-posix-seh-rt_v6-rev0/mingw64/bin/../lib/gcc/x86_64-w64-mingw32/8.1.0/../../../../x86_64-w64-mingw32/lib/../lib/libmsvcrt.a(duags01069.o)
                              bin/win/DEBUG/obj/fil_file.o (ferror)
c:/ProgramFiles/mingw-w64-x86_64-8.1.0-posix-seh-rt_v6-rev0/mingw64/bin/../lib/gcc/x86_64-w64-mingw32/8.1.0/../../../../x86_64-w64-mingw32/lib/../lib/libmsvcrt.a(duags01067.o)
                              bin/win/DEBUG/obj/fil_file.o (fclose)
c:/ProgramFiles/mingw-w64-x86_64-8.1.0-posix-seh-rt_v6-rev0/mingw64/bin/../lib/gcc/x86_64-w64-mingw32/8.1.0/../../../../x86_64-w64-mingw32/lib/../lib/libmsvcrt.a(duags01063.o)
                              c:/ProgramFiles/mingw-w64-x86_64-8.1.0-posix-seh-rt_v6-rev0/mingw64/bin/../lib/gcc/x86_64-w64-mingw32/8.1.0/../../../../x86_64-w64-mingw32/lib/../lib/crt2.o (exit)
c:/ProgramFiles/mingw-w64-x86_64-8.1.0-posix-seh-rt_v6-rev0/mingw64/bin/../lib/gcc/x86_64-w64-mingw32/8.1.0/../../../../x86_64-w64-mingw32/lib/../lib/libmsvcrt.a(duags01060.o)
                              bin/win/DEBUG/obj/log_logger.o (ctime)
c:/ProgramFiles/mingw-w64-x86_64-8.1.0-posix-seh-rt_v6-rev0/mingw64/bin/../lib/gcc/x86_64-w64-mingw32/8.1.0/../../../../x86_64-w64-mingw32/lib/../lib/libmsvcrt.a(duags01055.o)
                              bin/win/DEBUG/obj/log_logger.o (clock)
c:/ProgramFiles/mingw-w64-x86_64-8.1.0-posix-seh-rt_v6-rev0/mingw64/bin/../lib/gcc/x86_64-w64-mingw32/8.1.0/../../../../x86_64-w64-mingw32/lib/../lib/libmsvcrt.a(duags01050.o)
                              c:/ProgramFiles/mingw-w64-x86_64-8.1.0-posix-seh-rt_v6-rev0/mingw64/bin/../lib/gcc/x86_64-w64-mingw32/8.1.0/../../../../x86_64-w64-mingw32/lib/../lib/libmingw32.a(lib64_libmingw32_a-tlsthrd.o) (calloc)
c:/ProgramFiles/mingw-w64-x86_64-8.1.0-posix-seh-rt_v6-rev0/mingw64/bin/../lib/gcc/x86_64-w64-mingw32/8.1.0/../../../../x86_64-w64-mingw32/lib/../lib/libmsvcrt.a(duags01048.o)
                              bin/win/DEBUG/obj/mci_mapBinarySearchCanId.o (bsearch)
c:/ProgramFiles/mingw-w64-x86_64-8.1.0-posix-seh-rt_v6-rev0/mingw64/bin/../lib/gcc/x86_64-w64-mingw32/8.1.0/../../../../x86_64-w64-mingw32/lib/../lib/libmsvcrt.a(duags01032.o)
                              c:/ProgramFiles/mingw-w64-x86_64-8.1.0-posix-seh-rt_v6-rev0/mingw64/bin/../lib/gcc/x86_64-w64-mingw32/8.1.0/../../../../x86_64-w64-mingw32/lib/../lib/libmingw32.a(lib64_libmingw32_a-gs_support.o) (abort)
c:/ProgramFiles/mingw-w64-x86_64-8.1.0-posix-seh-rt_v6-rev0/mingw64/bin/../lib/gcc/x86_64-w64-mingw32/8.1.0/../../../../x86_64-w64-mingw32/lib/../lib/libmsvcrt.a(duags00973.o)
                              bin/win/DEBUG/obj/log_logger.o (time)
c:/ProgramFiles/mingw-w64-x86_64-8.1.0-posix-seh-rt_v6-rev0/mingw64/bin/../lib/gcc/x86_64-w64-mingw32/8.1.0/../../../../x86_64-w64-mingw32/lib/../lib/libmsvcrt.a(duags00852.o)
                              c:/ProgramFiles/mingw-w64-x86_64-8.1.0-posix-seh-rt_v6-rev0/mingw64/bin/../lib/gcc/x86_64-w64-mingw32/8.1.0/../../../../x86_64-w64-mingw32/lib/../lib/libmingwex.a(lib64_libmingwex_a-vsnprintf.o) (_vsnprintf)
c:/ProgramFiles/mingw-w64-x86_64-8.1.0-posix-seh-rt_v6-rev0/mingw64/bin/../lib/gcc/x86_64-w64-mingw32/8.1.0/../../../../x86_64-w64-mingw32/lib/../lib/libmsvcrt.a(duags00735.o)
                              bin/win/DEBUG/obj/log_logger.o (stricmp)
c:/ProgramFiles/mingw-w64-x86_64-8.1.0-posix-seh-rt_v6-rev0/mingw64/bin/../lib/gcc/x86_64-w64-mingw32/8.1.0/../../../../x86_64-w64-mingw32/lib/../lib/libmsvcrt.a(duags00689.o)
                              c:/ProgramFiles/mingw-w64-x86_64-8.1.0-posix-seh-rt_v6-rev0/mingw64/bin/../lib/gcc/x86_64-w64-mingw32/8.1.0/../../../../x86_64-w64-mingw32/lib/../lib/libmingwex.a(lib64_libmingwex_a-wassert.o) (_snwprintf)
c:/ProgramFiles/mingw-w64-x86_64-8.1.0-posix-seh-rt_v6-rev0/mingw64/bin/../lib/gcc/x86_64-w64-mingw32/8.1.0/../../../../x86_64-w64-mingw32/lib/../lib/libmsvcrt.a(duags00614.o)
                              c:/ProgramFiles/mingw-w64-x86_64-8.1.0-posix-seh-rt_v6-rev0/mingw64/bin/../lib/gcc/x86_64-w64-mingw32/8.1.0/../../../../x86_64-w64-mingw32/lib/../lib/crt2.o (_onexit)
c:/ProgramFiles/mingw-w64-x86_64-8.1.0-posix-seh-rt_v6-rev0/mingw64/bin/../lib/gcc/x86_64-w64-mingw32/8.1.0/../../../../x86_64-w64-mingw32/lib/../lib/libmsvcrt.a(duags00603.o)
                              bin/win/DEBUG/obj/fil_file.o (mkdir)
c:/ProgramFiles/mingw-w64-x86_64-8.1.0-posix-seh-rt_v6-rev0/mingw64/bin/../lib/gcc/x86_64-w64-mingw32/8.1.0/../../../../x86_64-w64-mingw32/lib/../lib/libmsvcrt.a(duags00332.o)
                              c:/ProgramFiles/mingw-w64-x86_64-8.1.0-posix-seh-rt_v6-rev0/mingw64/bin/../lib/gcc/x86_64-w64-mingw32/8.1.0/../../../../x86_64-w64-mingw32/lib/../lib/crt2.o (_initterm)
c:/ProgramFiles/mingw-w64-x86_64-8.1.0-posix-seh-rt_v6-rev0/mingw64/bin/../lib/gcc/x86_64-w64-mingw32/8.1.0/../../../../x86_64-w64-mingw32/lib/../lib/libmsvcrt.a(duags00278.o)
                              c:/ProgramFiles/mingw-w64-x86_64-8.1.0-posix-seh-rt_v6-rev0/mingw64/bin/../lib/gcc/x86_64-w64-mingw32/8.1.0/../../../../x86_64-w64-mingw32/lib/../lib/libmingwex.a(lib64_libmingwex_a-dirent.o) (_fullpath)
c:/ProgramFiles/mingw-w64-x86_64-8.1.0-posix-seh-rt_v6-rev0/mingw64/bin/../lib/gcc/x86_64-w64-mingw32/8.1.0/../../../../x86_64-w64-mingw32/lib/../lib/libmsvcrt.a(duags00245.o)
                              c:/ProgramFiles/mingw-w64-x86_64-8.1.0-posix-seh-rt_v6-rev0/mingw64/bin/../lib/gcc/x86_64-w64-mingw32/8.1.0/../../../../x86_64-w64-mingw32/lib/../lib/libmingwex.a(lib64_libmingwex_a-dirent.o) (_findnext64)
c:/ProgramFiles/mingw-w64-x86_64-8.1.0-posix-seh-rt_v6-rev0/mingw64/bin/../lib/gcc/x86_64-w64-mingw32/8.1.0/../../../../x86_64-w64-mingw32/lib/../lib/libmsvcrt.a(duags00240.o)
                              c:/ProgramFiles/mingw-w64-x86_64-8.1.0-posix-seh-rt_v6-rev0/mingw64/bin/../lib/gcc/x86_64-w64-mingw32/8.1.0/../../../../x86_64-w64-mingw32/lib/../lib/libmingwex.a(lib64_libmingwex_a-dirent.o) (_findfirst64)
c:/ProgramFiles/mingw-w64-x86_64-8.1.0-posix-seh-rt_v6-rev0/mingw64/bin/../lib/gcc/x86_64-w64-mingw32/8.1.0/../../../../x86_64-w64-mingw32/lib/../lib/libmsvcrt.a(duags00237.o)
                              c:/ProgramFiles/mingw-w64-x86_64-8.1.0-posix-seh-rt_v6-rev0/mingw64/bin/../lib/gcc/x86_64-w64-mingw32/8.1.0/../../../../x86_64-w64-mingw32/lib/../lib/libmingwex.a(lib64_libmingwex_a-dirent.o) (_findclose)
c:/ProgramFiles/mingw-w64-x86_64-8.1.0-posix-seh-rt_v6-rev0/mingw64/bin/../lib/gcc/x86_64-w64-mingw32/8.1.0/../../../../x86_64-w64-mingw32/lib/../lib/libmsvcrt.a(duags00218.o)
                              c:/ProgramFiles/mingw-w64-x86_64-8.1.0-posix-seh-rt_v6-rev0/mingw64/bin/../lib/gcc/x86_64-w64-mingw32/8.1.0/../../../../x86_64-w64-mingw32/lib/../lib/libmingwex.a(lib64_libmingwex_a-wassert.o) (_exit)
c:/ProgramFiles/mingw-w64-x86_64-8.1.0-posix-seh-rt_v6-rev0/mingw64/bin/../lib/gcc/x86_64-w64-mingw32/8.1.0/../../../../x86_64-w64-mingw32/lib/../lib/libmsvcrt.a(duags00203.o)
                              c:/ProgramFiles/mingw-w64-x86_64-8.1.0-posix-seh-rt_v6-rev0/mingw64/bin/../lib/gcc/x86_64-w64-mingw32/8.1.0/../../../../x86_64-w64-mingw32/lib/../lib/libmingwex.a(lib64_libmingwex_a-dirent.o) (_errno)
c:/ProgramFiles/mingw-w64-x86_64-8.1.0-posix-seh-rt_v6-rev0/mingw64/bin/../lib/gcc/x86_64-w64-mingw32/8.1.0/../../../../x86_64-w64-mingw32/lib/../lib/libmsvcrt.a(duags00141.o)
                              c:/ProgramFiles/mingw-w64-x86_64-8.1.0-posix-seh-rt_v6-rev0/mingw64/bin/../lib/gcc/x86_64-w64-mingw32/8.1.0/../../../../x86_64-w64-mingw32/lib/../lib/crt2.o (_cexit)
c:/ProgramFiles/mingw-w64-x86_64-8.1.0-posix-seh-rt_v6-rev0/mingw64/bin/../lib/gcc/x86_64-w64-mingw32/8.1.0/../../../../x86_64-w64-mingw32/lib/../lib/libmsvcrt.a(duags00122.o)
                              c:/ProgramFiles/mingw-w64-x86_64-8.1.0-posix-seh-rt_v6-rev0/mingw64/bin/../lib/gcc/x86_64-w64-mingw32/8.1.0/../../../../x86_64-w64-mingw32/lib/../lib/crt2.o (_amsg_exit)
c:/ProgramFiles/mingw-w64-x86_64-8.1.0-posix-seh-rt_v6-rev0/mingw64/bin/../lib/gcc/x86_64-w64-mingw32/8.1.0/../../../../x86_64-w64-mingw32/lib/../lib/libmsvcrt.a(duags00098.o)
                              c:/ProgramFiles/mingw-w64-x86_64-8.1.0-posix-seh-rt_v6-rev0/mingw64/bin/../lib/gcc/x86_64-w64-mingw32/8.1.0/../../../../x86_64-w64-mingw32/lib/../lib/libmingw32.a(lib64_libmingw32_a-merr.o) (__setusermatherr)
c:/ProgramFiles/mingw-w64-x86_64-8.1.0-posix-seh-rt_v6-rev0/mingw64/bin/../lib/gcc/x86_64-w64-mingw32/8.1.0/../../../../x86_64-w64-mingw32/lib/../lib/libmsvcrt.a(duags00096.o)
                              c:/ProgramFiles/mingw-w64-x86_64-8.1.0-posix-seh-rt_v6-rev0/mingw64/bin/../lib/gcc/x86_64-w64-mingw32/8.1.0/../../../../x86_64-w64-mingw32/lib/../lib/crt2.o (__set_app_type)
c:/ProgramFiles/mingw-w64-x86_64-8.1.0-posix-seh-rt_v6-rev0/mingw64/bin/../lib/gcc/x86_64-w64-mingw32/8.1.0/../../../../x86_64-w64-mingw32/lib/../lib/libmsvcrt.a(duags00090.o)
                              c:/ProgramFiles/mingw-w64-x86_64-8.1.0-posix-seh-rt_v6-rev0/mingw64/bin/../lib/gcc/x86_64-w64-mingw32/8.1.0/../../../../x86_64-w64-mingw32/lib/../lib/libmingw32.a(lib64_libmingw32_a-charmax.o) (__imp___lconv_init)
c:/ProgramFiles/mingw-w64-x86_64-8.1.0-posix-seh-rt_v6-rev0/mingw64/bin/../lib/gcc/x86_64-w64-mingw32/8.1.0/../../../../x86_64-w64-mingw32/lib/../lib/libmsvcrt.a(duags00082.o)
                              c:/ProgramFiles/mingw-w64-x86_64-8.1.0-posix-seh-rt_v6-rev0/mingw64/bin/../lib/gcc/x86_64-w64-mingw32/8.1.0/../../../../x86_64-w64-mingw32/lib/../lib/crt2.o (__imp___initenv)
c:/ProgramFiles/mingw-w64-x86_64-8.1.0-posix-seh-rt_v6-rev0/mingw64/bin/../lib/gcc/x86_64-w64-mingw32/8.1.0/../../../../x86_64-w64-mingw32/lib/../lib/libmsvcrt.a(duags00081.o)
                              c:/ProgramFiles/mingw-w64-x86_64-8.1.0-posix-seh-rt_v6-rev0/mingw64/bin/../lib/gcc/x86_64-w64-mingw32/8.1.0/../../../../x86_64-w64-mingw32/lib/../lib/crt2.o (__getmainargs)
c:/ProgramFiles/mingw-w64-x86_64-8.1.0-posix-seh-rt_v6-rev0/mingw64/bin/../lib/gcc/x86_64-w64-mingw32/8.1.0/../../../../x86_64-w64-mingw32/lib/../lib/libmsvcrt.a(duags00055.o)
                              c:/ProgramFiles/mingw-w64-x86_64-8.1.0-posix-seh-rt_v6-rev0/mingw64/bin/../lib/gcc/x86_64-w64-mingw32/8.1.0/../../../../x86_64-w64-mingw32/lib/../lib/crt2.o (__C_specific_handler)
c:/ProgramFiles/mingw-w64-x86_64-8.1.0-posix-seh-rt_v6-rev0/mingw64/bin/../lib/gcc/x86_64-w64-mingw32/8.1.0/../../../../x86_64-w64-mingw32/lib/../lib/libmsvcrt.a(lib64_libmsvcrt_os_a-acrt_iob_func.o)
                              c:/ProgramFiles/mingw-w64-x86_64-8.1.0-posix-seh-rt_v6-rev0/mingw64/bin/../lib/gcc/x86_64-w64-mingw32/8.1.0/../../../../x86_64-w64-mingw32/lib/../lib/libmingw32.a(lib64_libmingw32_a-merr.o) (__acrt_iob_func)
c:/ProgramFiles/mingw-w64-x86_64-8.1.0-posix-seh-rt_v6-rev0/mingw64/bin/../lib/gcc/x86_64-w64-mingw32/8.1.0/../../../../x86_64-w64-mingw32/lib/../lib/libmsvcrt.a(lib64_libmsvcrt_os_a-invalid_parameter_handler.o)
                              c:/ProgramFiles/mingw-w64-x86_64-8.1.0-posix-seh-rt_v6-rev0/mingw64/bin/../lib/gcc/x86_64-w64-mingw32/8.1.0/../../../../x86_64-w64-mingw32/lib/../lib/crt2.o (_set_invalid_parameter_handler)
c:/ProgramFiles/mingw-w64-x86_64-8.1.0-posix-seh-rt_v6-rev0/mingw64/bin/../lib/gcc/x86_64-w64-mingw32/8.1.0/../../../../x86_64-w64-mingw32/lib/../lib/libmsvcrt.a(lib64_libmsvcrt_os_a-__p___argv.o)
                              c:/ProgramFiles/mingw-w64-x86_64-8.1.0-posix-seh-rt_v6-rev0/mingw64/bin/../lib/gcc/x86_64-w64-mingw32/8.1.0/../../../../x86_64-w64-mingw32/lib/../lib/libmingwex.a(lib64_libmingwex_a-getopt.o) (__p___argv)
c:/ProgramFiles/mingw-w64-x86_64-8.1.0-posix-seh-rt_v6-rev0/mingw64/bin/../lib/gcc/x86_64-w64-mingw32/8.1.0/../../../../x86_64-w64-mingw32/lib/../lib/libmsvcrt.a(lib64_libmsvcrt_os_a-__p__acmdln.o)
                              c:/ProgramFiles/mingw-w64-x86_64-8.1.0-posix-seh-rt_v6-rev0/mingw64/bin/../lib/gcc/x86_64-w64-mingw32/8.1.0/../../../../x86_64-w64-mingw32/lib/../lib/crt2.o (__p__acmdln)
c:/ProgramFiles/mingw-w64-x86_64-8.1.0-posix-seh-rt_v6-rev0/mingw64/bin/../lib/gcc/x86_64-w64-mingw32/8.1.0/../../../../x86_64-w64-mingw32/lib/../lib/libmsvcrt.a(lib64_libmsvcrt_os_a-__p__fmode.o)
                              c:/ProgramFiles/mingw-w64-x86_64-8.1.0-posix-seh-rt_v6-rev0/mingw64/bin/../lib/gcc/x86_64-w64-mingw32/8.1.0/../../../../x86_64-w64-mingw32/lib/../lib/crt2.o (__p__fmode)
c:/ProgramFiles/mingw-w64-x86_64-8.1.0-posix-seh-rt_v6-rev0/mingw64/bin/../lib/gcc/x86_64-w64-mingw32/8.1.0/../../../../x86_64-w64-mingw32/lib/../lib/libmsvcrt.a(duagh.o)
                              c:/ProgramFiles/mingw-w64-x86_64-8.1.0-posix-seh-rt_v6-rev0/mingw64/bin/../lib/gcc/x86_64-w64-mingw32/8.1.0/../../../../x86_64-w64-mingw32/lib/../lib/libmsvcrt.a(duags01260.o) (_head_lib64_libmsvcrt_os_a)
c:/ProgramFiles/mingw-w64-x86_64-8.1.0-posix-seh-rt_v6-rev0/mingw64/bin/../lib/gcc/x86_64-w64-mingw32/8.1.0/../../../../x86_64-w64-mingw32/lib/../lib/libmsvcrt.a(duags00115.o)
                              c:/ProgramFiles/mingw-w64-x86_64-8.1.0-posix-seh-rt_v6-rev0/mingw64/bin/../lib/gcc/x86_64-w64-mingw32/8.1.0/../../../../x86_64-w64-mingw32/lib/../lib/libmsvcrt.a(lib64_libmsvcrt_os_a-__p__acmdln.o) (__imp__acmdln)
c:/ProgramFiles/mingw-w64-x86_64-8.1.0-posix-seh-rt_v6-rev0/mingw64/bin/../lib/gcc/x86_64-w64-mingw32/8.1.0/../../../../x86_64-w64-mingw32/lib/../lib/libmsvcrt.a(duags00083.o)
                              c:/ProgramFiles/mingw-w64-x86_64-8.1.0-posix-seh-rt_v6-rev0/mingw64/bin/../lib/gcc/x86_64-w64-mingw32/8.1.0/../../../../x86_64-w64-mingw32/lib/../lib/libmsvcrt.a(lib64_libmsvcrt_os_a-acrt_iob_func.o) (__iob_func)
c:/ProgramFiles/mingw-w64-x86_64-8.1.0-posix-seh-rt_v6-rev0/mingw64/bin/../lib/gcc/x86_64-w64-mingw32/8.1.0/../../../../x86_64-w64-mingw32/lib/../lib/libmsvcrt.a(duags00070.o)
                              c:/ProgramFiles/mingw-w64-x86_64-8.1.0-posix-seh-rt_v6-rev0/mingw64/bin/../lib/gcc/x86_64-w64-mingw32/8.1.0/../../../../x86_64-w64-mingw32/lib/../lib/libmsvcrt.a(lib64_libmsvcrt_os_a-__p___argv.o) (__imp___argv)
c:/ProgramFiles/mingw-w64-x86_64-8.1.0-posix-seh-rt_v6-rev0/mingw64/bin/../lib/gcc/x86_64-w64-mingw32/8.1.0/../../../../x86_64-w64-mingw32/lib/../lib/libmsvcrt.a(duagt.o)
                              c:/ProgramFiles/mingw-w64-x86_64-8.1.0-posix-seh-rt_v6-rev0/mingw64/bin/../lib/gcc/x86_64-w64-mingw32/8.1.0/../../../../x86_64-w64-mingw32/lib/../lib/libmsvcrt.a(duagh.o) (__lib64_libmsvcrt_os_a_iname)
c:/ProgramFiles/mingw-w64-x86_64-8.1.0-posix-seh-rt_v6-rev0/mingw64/bin/../lib/gcc/x86_64-w64-mingw32/8.1.0/../../../../x86_64-w64-mingw32/lib/../lib/libuser32.a(dyqes00619.o)
                              c:/ProgramFiles/mingw-w64-x86_64-8.1.0-posix-seh-rt_v6-rev0/mingw64/bin/../lib/gcc/x86_64-w64-mingw32/8.1.0/../../../../x86_64-w64-mingw32/lib/../lib/libmingwex.a(lib64_libmingwex_a-wassert.o) (__imp_MessageBoxW)
c:/ProgramFiles/mingw-w64-x86_64-8.1.0-posix-seh-rt_v6-rev0/mingw64/bin/../lib/gcc/x86_64-w64-mingw32/8.1.0/../../../../x86_64-w64-mingw32/lib/../lib/libuser32.a(dyqeh.o)
                              c:/ProgramFiles/mingw-w64-x86_64-8.1.0-posix-seh-rt_v6-rev0/mingw64/bin/../lib/gcc/x86_64-w64-mingw32/8.1.0/../../../../x86_64-w64-mingw32/lib/../lib/libuser32.a(dyqes00619.o) (_head_lib64_libuser32_a)
c:/ProgramFiles/mingw-w64-x86_64-8.1.0-posix-seh-rt_v6-rev0/mingw64/bin/../lib/gcc/x86_64-w64-mingw32/8.1.0/../../../../x86_64-w64-mingw32/lib/../lib/libuser32.a(dyqet.o)
                              c:/ProgramFiles/mingw-w64-x86_64-8.1.0-posix-seh-rt_v6-rev0/mingw64/bin/../lib/gcc/x86_64-w64-mingw32/8.1.0/../../../../x86_64-w64-mingw32/lib/../lib/libuser32.a(dyqeh.o) (__lib64_libuser32_a_iname)
c:/ProgramFiles/mingw-w64-x86_64-8.1.0-posix-seh-rt_v6-rev0/mingw64/bin/../lib/gcc/x86_64-w64-mingw32/8.1.0/../../../../x86_64-w64-mingw32/lib/../lib/libkernel32.a(dqifs01445.o)
                              c:/ProgramFiles/mingw-w64-x86_64-8.1.0-posix-seh-rt_v6-rev0/mingw64/bin/../lib/gcc/x86_64-w64-mingw32/8.1.0/../../../../x86_64-w64-mingw32/lib/../lib/libmingw32.a(lib64_libmingw32_a-pseudo-reloc.o) (__imp_VirtualQuery)
c:/ProgramFiles/mingw-w64-x86_64-8.1.0-posix-seh-rt_v6-rev0/mingw64/bin/../lib/gcc/x86_64-w64-mingw32/8.1.0/../../../../x86_64-w64-mingw32/lib/../lib/libkernel32.a(dqifs01443.o)
                              c:/ProgramFiles/mingw-w64-x86_64-8.1.0-posix-seh-rt_v6-rev0/mingw64/bin/../lib/gcc/x86_64-w64-mingw32/8.1.0/../../../../x86_64-w64-mingw32/lib/../lib/libmingw32.a(lib64_libmingw32_a-pseudo-reloc.o) (__imp_VirtualProtect)
c:/ProgramFiles/mingw-w64-x86_64-8.1.0-posix-seh-rt_v6-rev0/mingw64/bin/../lib/gcc/x86_64-w64-mingw32/8.1.0/../../../../x86_64-w64-mingw32/lib/../lib/libkernel32.a(dqifs01409.o)
                              c:/ProgramFiles/mingw-w64-x86_64-8.1.0-posix-seh-rt_v6-rev0/mingw64/bin/../lib/gcc/x86_64-w64-mingw32/8.1.0/../../../../x86_64-w64-mingw32/lib/../lib/libmingw32.a(lib64_libmingw32_a-gs_support.o) (__imp_UnhandledExceptionFilter)
c:/ProgramFiles/mingw-w64-x86_64-8.1.0-posix-seh-rt_v6-rev0/mingw64/bin/../lib/gcc/x86_64-w64-mingw32/8.1.0/../../../../x86_64-w64-mingw32/lib/../lib/libkernel32.a(dqifs01395.o)
                              c:/ProgramFiles/mingw-w64-x86_64-8.1.0-posix-seh-rt_v6-rev0/mingw64/bin/../lib/gcc/x86_64-w64-mingw32/8.1.0/../../../../x86_64-w64-mingw32/lib/../lib/libmingw32.a(lib64_libmingw32_a-tlsthrd.o) (__imp_TlsGetValue)
c:/ProgramFiles/mingw-w64-x86_64-8.1.0-posix-seh-rt_v6-rev0/mingw64/bin/../lib/gcc/x86_64-w64-mingw32/8.1.0/../../../../x86_64-w64-mingw32/lib/../lib/libkernel32.a(dqifs01375.o)
                              c:/ProgramFiles/mingw-w64-x86_64-8.1.0-posix-seh-rt_v6-rev0/mingw64/bin/../lib/gcc/x86_64-w64-mingw32/8.1.0/../../../../x86_64-w64-mingw32/lib/../lib/libmingw32.a(lib64_libmingw32_a-gs_support.o) (__imp_TerminateProcess)
c:/ProgramFiles/mingw-w64-x86_64-8.1.0-posix-seh-rt_v6-rev0/mingw64/bin/../lib/gcc/x86_64-w64-mingw32/8.1.0/../../../../x86_64-w64-mingw32/lib/../lib/libkernel32.a(dqifs01360.o)
                              c:/ProgramFiles/mingw-w64-x86_64-8.1.0-posix-seh-rt_v6-rev0/mingw64/bin/../lib/gcc/x86_64-w64-mingw32/8.1.0/../../../../x86_64-w64-mingw32/lib/../lib/crt2.o (__imp_Sleep)
c:/ProgramFiles/mingw-w64-x86_64-8.1.0-posix-seh-rt_v6-rev0/mingw64/bin/../lib/gcc/x86_64-w64-mingw32/8.1.0/../../../../x86_64-w64-mingw32/lib/../lib/libkernel32.a(dqifs01346.o)
                              c:/ProgramFiles/mingw-w64-x86_64-8.1.0-posix-seh-rt_v6-rev0/mingw64/bin/../lib/gcc/x86_64-w64-mingw32/8.1.0/../../../../x86_64-w64-mingw32/lib/../lib/crt2.o (__imp_SetUnhandledExceptionFilter)
c:/ProgramFiles/mingw-w64-x86_64-8.1.0-posix-seh-rt_v6-rev0/mingw64/bin/../lib/gcc/x86_64-w64-mingw32/8.1.0/../../../../x86_64-w64-mingw32/lib/../lib/libkernel32.a(dqifs01194.o)
                              c:/ProgramFiles/mingw-w64-x86_64-8.1.0-posix-seh-rt_v6-rev0/mingw64/bin/../lib/gcc/x86_64-w64-mingw32/8.1.0/../../../../x86_64-w64-mingw32/lib/../lib/libmingw32.a(lib64_libmingw32_a-gs_support.o) (__imp_RtlVirtualUnwind)
c:/ProgramFiles/mingw-w64-x86_64-8.1.0-posix-seh-rt_v6-rev0/mingw64/bin/../lib/gcc/x86_64-w64-mingw32/8.1.0/../../../../x86_64-w64-mingw32/lib/../lib/libkernel32.a(dqifs01187.o)
                              c:/ProgramFiles/mingw-w64-x86_64-8.1.0-posix-seh-rt_v6-rev0/mingw64/bin/../lib/gcc/x86_64-w64-mingw32/8.1.0/../../../../x86_64-w64-mingw32/lib/../lib/libmingw32.a(lib64_libmingw32_a-gs_support.o) (__imp_RtlLookupFunctionEntry)
c:/ProgramFiles/mingw-w64-x86_64-8.1.0-posix-seh-rt_v6-rev0/mingw64/bin/../lib/gcc/x86_64-w64-mingw32/8.1.0/../../../../x86_64-w64-mingw32/lib/../lib/libkernel32.a(dqifs01180.o)
                              c:/ProgramFiles/mingw-w64-x86_64-8.1.0-posix-seh-rt_v6-rev0/mingw64/bin/../lib/gcc/x86_64-w64-mingw32/8.1.0/../../../../x86_64-w64-mingw32/lib/../lib/libmingw32.a(lib64_libmingw32_a-gs_support.o) (__imp_RtlCaptureContext)
c:/ProgramFiles/mingw-w64-x86_64-8.1.0-posix-seh-rt_v6-rev0/mingw64/bin/../lib/gcc/x86_64-w64-mingw32/8.1.0/../../../../x86_64-w64-mingw32/lib/../lib/libkernel32.a(dqifs01179.o)
                              c:/ProgramFiles/mingw-w64-x86_64-8.1.0-posix-seh-rt_v6-rev0/mingw64/bin/../lib/gcc/x86_64-w64-mingw32/8.1.0/../../../../x86_64-w64-mingw32/lib/../lib/libmingw32.a(lib64_libmingw32_a-crt_handler.o) (__imp_RtlAddFunctionTable)
c:/ProgramFiles/mingw-w64-x86_64-8.1.0-posix-seh-rt_v6-rev0/mingw64/bin/../lib/gcc/x86_64-w64-mingw32/8.1.0/../../../../x86_64-w64-mingw32/lib/../lib/libkernel32.a(dqifs01093.o)
                              c:/ProgramFiles/mingw-w64-x86_64-8.1.0-posix-seh-rt_v6-rev0/mingw64/bin/../lib/gcc/x86_64-w64-mingw32/8.1.0/../../../../x86_64-w64-mingw32/lib/../lib/libmingw32.a(lib64_libmingw32_a-gs_support.o) (__imp_QueryPerformanceCounter)
c:/ProgramFiles/mingw-w64-x86_64-8.1.0-posix-seh-rt_v6-rev0/mingw64/bin/../lib/gcc/x86_64-w64-mingw32/8.1.0/../../../../x86_64-w64-mingw32/lib/../lib/libkernel32.a(dqifs00951.o)
                              c:/ProgramFiles/mingw-w64-x86_64-8.1.0-posix-seh-rt_v6-rev0/mingw64/bin/../lib/gcc/x86_64-w64-mingw32/8.1.0/../../../../x86_64-w64-mingw32/lib/../lib/libmingw32.a(lib64_libmingw32_a-tlsthrd.o) (__imp_LeaveCriticalSection)
c:/ProgramFiles/mingw-w64-x86_64-8.1.0-posix-seh-rt_v6-rev0/mingw64/bin/../lib/gcc/x86_64-w64-mingw32/8.1.0/../../../../x86_64-w64-mingw32/lib/../lib/libkernel32.a(dqifs00863.o)
                              c:/ProgramFiles/mingw-w64-x86_64-8.1.0-posix-seh-rt_v6-rev0/mingw64/bin/../lib/gcc/x86_64-w64-mingw32/8.1.0/../../../../x86_64-w64-mingw32/lib/../lib/libmingw32.a(lib64_libmingw32_a-tlsthrd.o) (__imp_InitializeCriticalSection)
c:/ProgramFiles/mingw-w64-x86_64-8.1.0-posix-seh-rt_v6-rev0/mingw64/bin/../lib/gcc/x86_64-w64-mingw32/8.1.0/../../../../x86_64-w64-mingw32/lib/../lib/libkernel32.a(dqifs00774.o)
                              c:/ProgramFiles/mingw-w64-x86_64-8.1.0-posix-seh-rt_v6-rev0/mingw64/bin/../lib/gcc/x86_64-w64-mingw32/8.1.0/../../../../x86_64-w64-mingw32/lib/../lib/libmingw32.a(lib64_libmingw32_a-gs_support.o) (__imp_GetTickCount)
c:/ProgramFiles/mingw-w64-x86_64-8.1.0-posix-seh-rt_v6-rev0/mingw64/bin/../lib/gcc/x86_64-w64-mingw32/8.1.0/../../../../x86_64-w64-mingw32/lib/../lib/libkernel32.a(dqifs00746.o)
                              c:/ProgramFiles/mingw-w64-x86_64-8.1.0-posix-seh-rt_v6-rev0/mingw64/bin/../lib/gcc/x86_64-w64-mingw32/8.1.0/../../../../x86_64-w64-mingw32/lib/../lib/libmingw32.a(lib64_libmingw32_a-gs_support.o) (__imp_GetSystemTimeAsFileTime)
c:/ProgramFiles/mingw-w64-x86_64-8.1.0-posix-seh-rt_v6-rev0/mingw64/bin/../lib/gcc/x86_64-w64-mingw32/8.1.0/../../../../x86_64-w64-mingw32/lib/../lib/libkernel32.a(dqifs00721.o)
                              c:/ProgramFiles/mingw-w64-x86_64-8.1.0-posix-seh-rt_v6-rev0/mingw64/bin/../lib/gcc/x86_64-w64-mingw32/8.1.0/../../../../x86_64-w64-mingw32/lib/../lib/crt2.o (__imp_GetStartupInfoA)
c:/ProgramFiles/mingw-w64-x86_64-8.1.0-posix-seh-rt_v6-rev0/mingw64/bin/../lib/gcc/x86_64-w64-mingw32/8.1.0/../../../../x86_64-w64-mingw32/lib/../lib/libkernel32.a(dqifs00629.o)
                              c:/ProgramFiles/mingw-w64-x86_64-8.1.0-posix-seh-rt_v6-rev0/mingw64/bin/../lib/gcc/x86_64-w64-mingw32/8.1.0/../../../../x86_64-w64-mingw32/lib/../lib/libmingwex.a(lib64_libmingwex_a-wassert.o) (__imp_GetModuleFileNameW)
c:/ProgramFiles/mingw-w64-x86_64-8.1.0-posix-seh-rt_v6-rev0/mingw64/bin/../lib/gcc/x86_64-w64-mingw32/8.1.0/../../../../x86_64-w64-mingw32/lib/../lib/libkernel32.a(dqifs00609.o)
                              c:/ProgramFiles/mingw-w64-x86_64-8.1.0-posix-seh-rt_v6-rev0/mingw64/bin/../lib/gcc/x86_64-w64-mingw32/8.1.0/../../../../x86_64-w64-mingw32/lib/../lib/libmingw32.a(lib64_libmingw32_a-pseudo-reloc.o) (__imp_GetLastError)
c:/ProgramFiles/mingw-w64-x86_64-8.1.0-posix-seh-rt_v6-rev0/mingw64/bin/../lib/gcc/x86_64-w64-mingw32/8.1.0/../../../../x86_64-w64-mingw32/lib/../lib/libkernel32.a(dqifs00578.o)
                              c:/ProgramFiles/mingw-w64-x86_64-8.1.0-posix-seh-rt_v6-rev0/mingw64/bin/../lib/gcc/x86_64-w64-mingw32/8.1.0/../../../../x86_64-w64-mingw32/lib/../lib/libmingwex.a(lib64_libmingwex_a-dirent.o) (__imp_GetFileAttributesA)
c:/ProgramFiles/mingw-w64-x86_64-8.1.0-posix-seh-rt_v6-rev0/mingw64/bin/../lib/gcc/x86_64-w64-mingw32/8.1.0/../../../../x86_64-w64-mingw32/lib/../lib/libkernel32.a(dqifs00540.o)
                              c:/ProgramFiles/mingw-w64-x86_64-8.1.0-posix-seh-rt_v6-rev0/mingw64/bin/../lib/gcc/x86_64-w64-mingw32/8.1.0/../../../../x86_64-w64-mingw32/lib/../lib/libmingw32.a(lib64_libmingw32_a-gs_support.o) (__imp_GetCurrentThreadId)
c:/ProgramFiles/mingw-w64-x86_64-8.1.0-posix-seh-rt_v6-rev0/mingw64/bin/../lib/gcc/x86_64-w64-mingw32/8.1.0/../../../../x86_64-w64-mingw32/lib/../lib/libkernel32.a(dqifs00536.o)
                              c:/ProgramFiles/mingw-w64-x86_64-8.1.0-posix-seh-rt_v6-rev0/mingw64/bin/../lib/gcc/x86_64-w64-mingw32/8.1.0/../../../../x86_64-w64-mingw32/lib/../lib/libmingw32.a(lib64_libmingw32_a-gs_support.o) (__imp_GetCurrentProcessId)
c:/ProgramFiles/mingw-w64-x86_64-8.1.0-posix-seh-rt_v6-rev0/mingw64/bin/../lib/gcc/x86_64-w64-mingw32/8.1.0/../../../../x86_64-w64-mingw32/lib/../lib/libkernel32.a(dqifs00535.o)
                              c:/ProgramFiles/mingw-w64-x86_64-8.1.0-posix-seh-rt_v6-rev0/mingw64/bin/../lib/gcc/x86_64-w64-mingw32/8.1.0/../../../../x86_64-w64-mingw32/lib/../lib/libmingw32.a(lib64_libmingw32_a-gs_support.o) (__imp_GetCurrentProcess)
c:/ProgramFiles/mingw-w64-x86_64-8.1.0-posix-seh-rt_v6-rev0/mingw64/bin/../lib/gcc/x86_64-w64-mingw32/8.1.0/../../../../x86_64-w64-mingw32/lib/../lib/libkernel32.a(dqifs00304.o)
                              c:/ProgramFiles/mingw-w64-x86_64-8.1.0-posix-seh-rt_v6-rev0/mingw64/bin/../lib/gcc/x86_64-w64-mingw32/8.1.0/../../../../x86_64-w64-mingw32/lib/../lib/libmingw32.a(lib64_libmingw32_a-tlsthrd.o) (__imp_EnterCriticalSection)
c:/ProgramFiles/mingw-w64-x86_64-8.1.0-posix-seh-rt_v6-rev0/mingw64/bin/../lib/gcc/x86_64-w64-mingw32/8.1.0/../../../../x86_64-w64-mingw32/lib/../lib/libkernel32.a(dqifs00268.o)
                              c:/ProgramFiles/mingw-w64-x86_64-8.1.0-posix-seh-rt_v6-rev0/mingw64/bin/../lib/gcc/x86_64-w64-mingw32/8.1.0/../../../../x86_64-w64-mingw32/lib/../lib/libmingw32.a(lib64_libmingw32_a-tlsthrd.o) (__imp_DeleteCriticalSection)
c:/ProgramFiles/mingw-w64-x86_64-8.1.0-posix-seh-rt_v6-rev0/mingw64/bin/../lib/gcc/x86_64-w64-mingw32/8.1.0/../../../../x86_64-w64-mingw32/lib/../lib/libkernel32.a(dqifh.o)
                              c:/ProgramFiles/mingw-w64-x86_64-8.1.0-posix-seh-rt_v6-rev0/mingw64/bin/../lib/gcc/x86_64-w64-mingw32/8.1.0/../../../../x86_64-w64-mingw32/lib/../lib/libkernel32.a(dqifs01445.o) (_head_lib64_libkernel32_a)
c:/ProgramFiles/mingw-w64-x86_64-8.1.0-posix-seh-rt_v6-rev0/mingw64/bin/../lib/gcc/x86_64-w64-mingw32/8.1.0/../../../../x86_64-w64-mingw32/lib/../lib/libkernel32.a(dqift.o)
                              c:/ProgramFiles/mingw-w64-x86_64-8.1.0-posix-seh-rt_v6-rev0/mingw64/bin/../lib/gcc/x86_64-w64-mingw32/8.1.0/../../../../x86_64-w64-mingw32/lib/../lib/libkernel32.a(dqifh.o) (__lib64_libkernel32_a_iname)
c:/ProgramFiles/mingw-w64-x86_64-8.1.0-posix-seh-rt_v6-rev0/mingw64/bin/../lib/gcc/x86_64-w64-mingw32/8.1.0/../../../../x86_64-w64-mingw32/lib/../lib/libmsvcrt.a(duags00253.o)
                              c:/ProgramFiles/mingw-w64-x86_64-8.1.0-posix-seh-rt_v6-rev0/mingw64/bin/../lib/gcc/x86_64-w64-mingw32/8.1.0/../../../../x86_64-w64-mingw32/lib/../lib/libmsvcrt.a(lib64_libmsvcrt_os_a-__p__fmode.o) (__imp__fmode)

Allocating common symbols
Common symbol       size              file

__mingw_winmain_lpCmdLine
                    0x8               c:/ProgramFiles/mingw-w64-x86_64-8.1.0-posix-seh-rt_v6-rev0/mingw64/bin/../lib/gcc/x86_64-w64-mingw32/8.1.0/../../../../x86_64-w64-mingw32/lib/../lib/crt2.o
optarg              0x8               c:/ProgramFiles/mingw-w64-x86_64-8.1.0-posix-seh-rt_v6-rev0/mingw64/bin/../lib/gcc/x86_64-w64-mingw32/8.1.0/../../../../x86_64-w64-mingw32/lib/../lib/libmingwex.a(lib64_libmingwex_a-getopt.o)
__mingw_optreset    0x4               c:/ProgramFiles/mingw-w64-x86_64-8.1.0-posix-seh-rt_v6-rev0/mingw64/bin/../lib/gcc/x86_64-w64-mingw32/8.1.0/../../../../x86_64-w64-mingw32/lib/../lib/libmingwex.a(lib64_libmingwex_a-getopt.o)
__native_startup_state
                    0x4               c:/ProgramFiles/mingw-w64-x86_64-8.1.0-posix-seh-rt_v6-rev0/mingw64/bin/../lib/gcc/x86_64-w64-mingw32/8.1.0/../../../../x86_64-w64-mingw32/lib/../lib/libmingw32.a(lib64_libmingw32_a-natstart.o)
__native_startup_lock
                    0x8               c:/ProgramFiles/mingw-w64-x86_64-8.1.0-posix-seh-rt_v6-rev0/mingw64/bin/../lib/gcc/x86_64-w64-mingw32/8.1.0/../../../../x86_64-w64-mingw32/lib/../lib/libmingw32.a(lib64_libmingw32_a-natstart.o)
__mingw_winmain_hInstance
                    0x8               c:/ProgramFiles/mingw-w64-x86_64-8.1.0-posix-seh-rt_v6-rev0/mingw64/bin/../lib/gcc/x86_64-w64-mingw32/8.1.0/../../../../x86_64-w64-mingw32/lib/../lib/crt2.o
__hexdig_D2A        0x100             c:/ProgramFiles/mingw-w64-x86_64-8.1.0-posix-seh-rt_v6-rev0/mingw64/bin/../lib/gcc/x86_64-w64-mingw32/8.1.0/../../../../x86_64-w64-mingw32/lib/../lib/libmingwex.a(lib64_libmingwex_a-hd_init.o)

Discarded input sections

 .drectve       0x0000000000000000       0x54 c:/ProgramFiles/mingw-w64-x86_64-8.1.0-posix-seh-rt_v6-rev0/mingw64/bin/../lib/gcc/x86_64-w64-mingw32/8.1.0/../../../../x86_64-w64-mingw32/lib/../lib/crt2.o
 .rdata$.refptr.oss_tiSim
                0x0000000000000000       0x10 bin/win/DEBUG/obj/cbk_callbacks.o
 .rdata$.refptr.main_hGlobalLogger
                0x0000000000000000       0x10 bin/win/DEBUG/obj/cbk_callbacks.o
 .rdata$.refptr.oss_tiSim
                0x0000000000000000       0x10 bin/win/DEBUG/obj/mhn_mapOsFrameHandleToCanIfHandle.o
 .rdata$.refptr.main_hGlobalLogger
                0x0000000000000000       0x10 bin/win/DEBUG/obj/mhn_mapOsFrameHandleToCanIfHandle.o
 .rdata$.refptr.main_hGlobalLogger
                0x0000000000000000       0x10 bin/win/DEBUG/obj/oss_operatingSystemSimulation.o
 .rdata$.refptr.pck_API_PT_LimitsPowerDisplay_1538
                0x0000000000000000       0x10 bin/win/DEBUG/obj/pwr_computeEnginePower.o
 .rdata$.refptr.pck_API_PT_UserLimits_2032
                0x0000000000000000       0x10 bin/win/DEBUG/obj/pwr_computeEnginePower.o
 .rdata$.refptr.pck_API_PT_InfoPowerDisplay_1536
                0x0000000000000000       0x10 bin/win/DEBUG/obj/pwr_computeEnginePower.o
 .rdata$.refptr.pck_API_PT_StateEcu02_1040
                0x0000000000000000       0x10 bin/win/DEBUG/obj/pwr_computeEnginePower.o
 .rdata$.refptr.oss_tiSim
                0x0000000000000000       0x10 bin/win/DEBUG/obj/pwr_computeEnginePower.o
 .rdata$.refptr.main_hGlobalLogger
                0x0000000000000000       0x10 bin/win/DEBUG/obj/pwr_computeEnginePower.o
 .rdata$.refptr.pck_API_PT_StateEcu01_1024
                0x0000000000000000       0x10 bin/win/DEBUG/obj/pwr_computeEnginePower.o
 .rdata$.refptr.pck_API_PT_StatusPowerDisplay_1537
                0x0000000000000000       0x10 bin/win/DEBUG/obj/pwr_computeEnginePower.o
 .drectve       0x0000000000000000       0x4c c:/ProgramFiles/mingw-w64-x86_64-8.1.0-posix-seh-rt_v6-rev0/mingw64/bin/../lib/gcc/x86_64-w64-mingw32/8.1.0/../../../../x86_64-w64-mingw32/lib/../lib/libmingw32.a(lib64_libmingw32_a-natstart.o)
 .rdata$.refptr.__image_base__
                0x0000000000000000       0x10 c:/ProgramFiles/mingw-w64-x86_64-8.1.0-posix-seh-rt_v6-rev0/mingw64/bin/../lib/gcc/x86_64-w64-mingw32/8.1.0/../../../../x86_64-w64-mingw32/lib/../lib/libmingw32.a(lib64_libmingw32_a-pseudo-reloc.o)
 .rdata$.refptr.__image_base__
                0x0000000000000000       0x10 c:/ProgramFiles/mingw-w64-x86_64-8.1.0-posix-seh-rt_v6-rev0/mingw64/bin/../lib/gcc/x86_64-w64-mingw32/8.1.0/../../../../x86_64-w64-mingw32/lib/../lib/libmingw32.a(lib64_libmingw32_a-pesect.o)
 .drectve       0x0000000000000000       0x3c c:/ProgramFiles/mingw-w64-x86_64-8.1.0-posix-seh-rt_v6-rev0/mingw64/bin/../lib/gcc/x86_64-w64-mingw32/8.1.0/libgcc.a(_ctors.o)
 .drectve       0x0000000000000000       0x38 c:/ProgramFiles/mingw-w64-x86_64-8.1.0-posix-seh-rt_v6-rev0/mingw64/bin/../lib/gcc/x86_64-w64-mingw32/8.1.0/../../../../x86_64-w64-mingw32/lib/../lib/libmingwex.a(lib64_libmingwex_a-getopt.o)
 .rdata$.refptr.mingw_app_type
                0x0000000000000000       0x10 c:/ProgramFiles/mingw-w64-x86_64-8.1.0-posix-seh-rt_v6-rev0/mingw64/bin/../lib/gcc/x86_64-w64-mingw32/8.1.0/../../../../x86_64-w64-mingw32/lib/../lib/libmingwex.a(lib64_libmingwex_a-wassert.o)
 .drectve       0x0000000000000000       0x1c c:/ProgramFiles/mingw-w64-x86_64-8.1.0-posix-seh-rt_v6-rev0/mingw64/bin/../lib/gcc/x86_64-w64-mingw32/8.1.0/../../../../x86_64-w64-mingw32/lib/../lib/libmingwex.a(lib64_libmingwex_a-hd_init.o)
 .rdata$.refptr.__hexdig_D2A
                0x0000000000000000       0x10 c:/ProgramFiles/mingw-w64-x86_64-8.1.0-posix-seh-rt_v6-rev0/mingw64/bin/../lib/gcc/x86_64-w64-mingw32/8.1.0/../../../../x86_64-w64-mingw32/lib/../lib/libmingwex.a(lib64_libmingwex_a-hexnan.o)

Memory Configuration

Name             Origin             Length             Attributes
*default*        0x0000000000000000 0xffffffffffffffff

Linker script and memory map

                0x0000000000400000                __image_base__ = 0x400000
                0x0000000000000000                __dll__ = 0x0
                0x0000000000400000                __ImageBase = 0x400000
                0x0000000000001000                __section_alignment__ = 0x1000
                0x0000000000000200                __file_alignment__ = 0x200
                0x0000000000000004                __major_os_version__ = 0x4
                0x0000000000000000                __minor_os_version__ = 0x0
                0x0000000000000000                __major_image_version__ = 0x0
                0x0000000000000000                __minor_image_version__ = 0x0
                0x0000000000000005                __major_subsystem_version__ = 0x5
                0x0000000000000002                __minor_subsystem_version__ = 0x2
                0x0000000000000003                __subsystem__ = 0x3
                0x0000000000200000                __size_of_stack_reserve__ = 0x200000
                0x0000000000001000                __size_of_stack_commit__ = 0x1000
                0x0000000000100000                __size_of_heap_reserve__ = 0x100000
                0x0000000000001000                __size_of_heap_commit__ = 0x1000
                0x0000000000000000                __loader_flags__ = 0x0
                0x0000000000000000                __dll_characteristics__ = 0x0
LOAD c:/ProgramFiles/mingw-w64-x86_64-8.1.0-posix-seh-rt_v6-rev0/mingw64/bin/../lib/gcc/x86_64-w64-mingw32/8.1.0/../../../../x86_64-w64-mingw32/lib/../lib/crt2.o
LOAD c:/ProgramFiles/mingw-w64-x86_64-8.1.0-posix-seh-rt_v6-rev0/mingw64/bin/../lib/gcc/x86_64-w64-mingw32/8.1.0/crtbegin.o
LOAD bin/win/DEBUG/obj/apt_applicationTask.o
LOAD bin/win/DEBUG/obj/cbk_callbacks.o
LOAD bin/win/DEBUG/obj/chk_checksum.o
LOAD bin/win/DEBUG/obj/ede_eventDispatcherEngine.o
LOAD bin/win/DEBUG/obj/ede_eventSender.o
LOAD bin/win/DEBUG/obj/fil_file.o
LOAD bin/win/DEBUG/obj/log_logger.o
LOAD bin/win/DEBUG/obj/m16_mapDirectLookupU16.o
LOAD bin/win/DEBUG/obj/main.o
LOAD bin/win/DEBUG/obj/mci_mapBinarySearchCanId.o
LOAD bin/win/DEBUG/obj/mem_malloc.o
LOAD bin/win/DEBUG/obj/mhn_mapOsFrameHandleToCanIfHandle.o
LOAD bin/win/DEBUG/obj/mid_mapIdentity.o
LOAD bin/win/DEBUG/obj/mpo_mapOffsetOnly.o
LOAD bin/win/DEBUG/obj/mu8_mapDirectLookupU8.o
LOAD bin/win/DEBUG/obj/opt_getOpt.o
LOAD bin/win/DEBUG/obj/oss_operatingSystemSimulation.o
LOAD bin/win/DEBUG/obj/pck_packCanFrame.o
LOAD bin/win/DEBUG/obj/pwr_computeEnginePower.o
LOAD bin/win/DEBUG/obj/vsq_dispatcherPortInterface.o
LOAD bin/win/DEBUG/obj/vsq_threadSafeQueueVariableSize.o
LOAD c:/ProgramFiles/mingw-w64-x86_64-8.1.0-posix-seh-rt_v6-rev0/mingw64/bin/../lib/gcc/x86_64-w64-mingw32/8.1.0/../../../../x86_64-w64-mingw32/lib/../lib/libm.a
LOAD c:/ProgramFiles/mingw-w64-x86_64-8.1.0-posix-seh-rt_v6-rev0/mingw64/bin/../lib/gcc/x86_64-w64-mingw32/8.1.0/../../../../x86_64-w64-mingw32/lib/../lib/libmingw32.a
LOAD c:/ProgramFiles/mingw-w64-x86_64-8.1.0-posix-seh-rt_v6-rev0/mingw64/bin/../lib/gcc/x86_64-w64-mingw32/8.1.0/libgcc.a
LOAD c:/ProgramFiles/mingw-w64-x86_64-8.1.0-posix-seh-rt_v6-rev0/mingw64/bin/../lib/gcc/x86_64-w64-mingw32/8.1.0/libgcc_eh.a
LOAD c:/ProgramFiles/mingw-w64-x86_64-8.1.0-posix-seh-rt_v6-rev0/mingw64/bin/../lib/gcc/x86_64-w64-mingw32/8.1.0/../../../../x86_64-w64-mingw32/lib/../lib/libmoldname.a
LOAD c:/ProgramFiles/mingw-w64-x86_64-8.1.0-posix-seh-rt_v6-rev0/mingw64/bin/../lib/gcc/x86_64-w64-mingw32/8.1.0/../../../../x86_64-w64-mingw32/lib/../lib/libmingwex.a
LOAD c:/ProgramFiles/mingw-w64-x86_64-8.1.0-posix-seh-rt_v6-rev0/mingw64/bin/../lib/gcc/x86_64-w64-mingw32/8.1.0/../../../../x86_64-w64-mingw32/lib/../lib/libmsvcrt.a
LOAD c:/ProgramFiles/mingw-w64-x86_64-8.1.0-posix-seh-rt_v6-rev0/mingw64/bin/../lib/gcc/x86_64-w64-mingw32/8.1.0/../../../../x86_64-w64-mingw32/lib/../lib/libpthread.dll.a
LOAD c:/ProgramFiles/mingw-w64-x86_64-8.1.0-posix-seh-rt_v6-rev0/mingw64/bin/../lib/gcc/x86_64-w64-mingw32/8.1.0/../../../../x86_64-w64-mingw32/lib/../lib/libadvapi32.a
LOAD c:/ProgramFiles/mingw-w64-x86_64-8.1.0-posix-seh-rt_v6-rev0/mingw64/bin/../lib/gcc/x86_64-w64-mingw32/8.1.0/../../../../x86_64-w64-mingw32/lib/../lib/libshell32.a
LOAD c:/ProgramFiles/mingw-w64-x86_64-8.1.0-posix-seh-rt_v6-rev0/mingw64/bin/../lib/gcc/x86_64-w64-mingw32/8.1.0/../../../../x86_64-w64-mingw32/lib/../lib/libuser32.a
LOAD c:/ProgramFiles/mingw-w64-x86_64-8.1.0-posix-seh-rt_v6-rev0/mingw64/bin/../lib/gcc/x86_64-w64-mingw32/8.1.0/../../../../x86_64-w64-mingw32/lib/../lib/libkernel32.a
LOAD c:/ProgramFiles/mingw-w64-x86_64-8.1.0-posix-seh-rt_v6-rev0/mingw64/bin/../lib/gcc/x86_64-w64-mingw32/8.1.0/../../../../x86_64-w64-mingw32/lib/../lib/libiconv.a
LOAD c:/ProgramFiles/mingw-w64-x86_64-8.1.0-posix-seh-rt_v6-rev0/mingw64/bin/../lib/gcc/x86_64-w64-mingw32/8.1.0/../../../../x86_64-w64-mingw32/lib/../lib/libmingw32.a
LOAD c:/ProgramFiles/mingw-w64-x86_64-8.1.0-posix-seh-rt_v6-rev0/mingw64/bin/../lib/gcc/x86_64-w64-mingw32/8.1.0/libgcc.a
LOAD c:/ProgramFiles/mingw-w64-x86_64-8.1.0-posix-seh-rt_v6-rev0/mingw64/bin/../lib/gcc/x86_64-w64-mingw32/8.1.0/libgcc_eh.a
LOAD c:/ProgramFiles/mingw-w64-x86_64-8.1.0-posix-seh-rt_v6-rev0/mingw64/bin/../lib/gcc/x86_64-w64-mingw32/8.1.0/../../../../x86_64-w64-mingw32/lib/../lib/libmoldname.a
LOAD c:/ProgramFiles/mingw-w64-x86_64-8.1.0-posix-seh-rt_v6-rev0/mingw64/bin/../lib/gcc/x86_64-w64-mingw32/8.1.0/../../../../x86_64-w64-mingw32/lib/../lib/libmingwex.a
LOAD c:/ProgramFiles/mingw-w64-x86_64-8.1.0-posix-seh-rt_v6-rev0/mingw64/bin/../lib/gcc/x86_64-w64-mingw32/8.1.0/../../../../x86_64-w64-mingw32/lib/../lib/libmsvcrt.a
LOAD c:/ProgramFiles/mingw-w64-x86_64-8.1.0-posix-seh-rt_v6-rev0/mingw64/bin/../lib/gcc/x86_64-w64-mingw32/8.1.0/crtend.o
                0x0000000000000430                . = SIZEOF_HEADERS
                0x0000000000001000                . = ALIGN (__section_alignment__)

.text           0x0000000000401000    0x14400
 *(.init)
 *(.text)
 .text          0x0000000000401000      0x530 c:/ProgramFiles/mingw-w64-x86_64-8.1.0-posix-seh-rt_v6-rev0/mingw64/bin/../lib/gcc/x86_64-w64-mingw32/8.1.0/../../../../x86_64-w64-mingw32/lib/../lib/crt2.o
                0x00000000004014b0                WinMainCRTStartup
                0x00000000004014e0                mainCRTStartup
                0x0000000000401510                atexit
 .text          0x0000000000401530       0x20 c:/ProgramFiles/mingw-w64-x86_64-8.1.0-posix-seh-rt_v6-rev0/mingw64/bin/../lib/gcc/x86_64-w64-mingw32/8.1.0/crtbegin.o
                0x0000000000401530                __gcc_register_frame
                0x0000000000401540                __gcc_deregister_frame
 .text          0x0000000000401550        0x0 bin/win/DEBUG/obj/apt_applicationTask.o
 .text          0x0000000000401550        0x0 bin/win/DEBUG/obj/cbk_callbacks.o
 .text          0x0000000000401550        0x0 bin/win/DEBUG/obj/chk_checksum.o
 .text          0x0000000000401550        0x0 bin/win/DEBUG/obj/ede_eventDispatcherEngine.o
 .text          0x0000000000401550        0x0 bin/win/DEBUG/obj/ede_eventSender.o
 .text          0x0000000000401550        0x0 bin/win/DEBUG/obj/fil_file.o
 .text          0x0000000000401550        0x0 bin/win/DEBUG/obj/log_logger.o
 .text          0x0000000000401550        0x0 bin/win/DEBUG/obj/m16_mapDirectLookupU16.o
 .text          0x0000000000401550        0x0 bin/win/DEBUG/obj/main.o
 .text          0x0000000000401550        0x0 bin/win/DEBUG/obj/mci_mapBinarySearchCanId.o
 .text          0x0000000000401550        0x0 bin/win/DEBUG/obj/mem_malloc.o
 .text          0x0000000000401550        0x0 bin/win/DEBUG/obj/mhn_mapOsFrameHandleToCanIfHandle.o
 .text          0x0000000000401550        0x0 bin/win/DEBUG/obj/mid_mapIdentity.o
 .text          0x0000000000401550        0x0 bin/win/DEBUG/obj/mpo_mapOffsetOnly.o
 .text          0x0000000000401550        0x0 bin/win/DEBUG/obj/mu8_mapDirectLookupU8.o
 .text          0x0000000000401550        0x0 bin/win/DEBUG/obj/opt_getOpt.o
 .text          0x0000000000401550        0x0 bin/win/DEBUG/obj/oss_operatingSystemSimulation.o
 .text          0x0000000000401550        0x0 bin/win/DEBUG/obj/pck_packCanFrame.o
 .text          0x0000000000401550        0x0 bin/win/DEBUG/obj/pwr_computeEnginePower.o
 .text          0x0000000000401550        0x0 bin/win/DEBUG/obj/vsq_dispatcherPortInterface.o
 .text          0x0000000000401550        0x0 bin/win/DEBUG/obj/vsq_threadSafeQueueVariableSize.o
 .text          0x0000000000401550       0xd0 c:/ProgramFiles/mingw-w64-x86_64-8.1.0-posix-seh-rt_v6-rev0/mingw64/bin/../lib/gcc/x86_64-w64-mingw32/8.1.0/../../../../x86_64-w64-mingw32/lib/../lib/libmingw32.a(lib64_libmingw32_a-gccmain.o)
                0x0000000000401550                __do_global_dtors
                0x0000000000401590                __do_global_ctors
                0x0000000000401600                __main
 .text          0x0000000000401620        0x0 c:/ProgramFiles/mingw-w64-x86_64-8.1.0-posix-seh-rt_v6-rev0/mingw64/bin/../lib/gcc/x86_64-w64-mingw32/8.1.0/../../../../x86_64-w64-mingw32/lib/../lib/libmingw32.a(lib64_libmingw32_a-natstart.o)
 .text          0x0000000000401620        0x0 c:/ProgramFiles/mingw-w64-x86_64-8.1.0-posix-seh-rt_v6-rev0/mingw64/bin/../lib/gcc/x86_64-w64-mingw32/8.1.0/../../../../x86_64-w64-mingw32/lib/../lib/libmingw32.a(lib64_libmingw32_a-wildcard.o)
 .text          0x0000000000401620       0x10 c:/ProgramFiles/mingw-w64-x86_64-8.1.0-posix-seh-rt_v6-rev0/mingw64/bin/../lib/gcc/x86_64-w64-mingw32/8.1.0/../../../../x86_64-w64-mingw32/lib/../lib/libmingw32.a(lib64_libmingw32_a-charmax.o)
 .text          0x0000000000401630       0x10 c:/ProgramFiles/mingw-w64-x86_64-8.1.0-posix-seh-rt_v6-rev0/mingw64/bin/../lib/gcc/x86_64-w64-mingw32/8.1.0/../../../../x86_64-w64-mingw32/lib/../lib/libmingw32.a(lib64_libmingw32_a-dllargv.o)
                0x0000000000401630                _setargv
 .text          0x0000000000401640      0x1e0 c:/ProgramFiles/mingw-w64-x86_64-8.1.0-posix-seh-rt_v6-rev0/mingw64/bin/../lib/gcc/x86_64-w64-mingw32/8.1.0/../../../../x86_64-w64-mingw32/lib/../lib/libmingw32.a(lib64_libmingw32_a-gs_support.o)
                0x0000000000401640                __security_init_cookie
                0x0000000000401720                __report_gsfailure
 .text          0x0000000000401820        0x0 c:/ProgramFiles/mingw-w64-x86_64-8.1.0-posix-seh-rt_v6-rev0/mingw64/bin/../lib/gcc/x86_64-w64-mingw32/8.1.0/../../../../x86_64-w64-mingw32/lib/../lib/libmingw32.a(lib64_libmingw32_a-_newmode.o)
 .text          0x0000000000401820       0xc0 c:/ProgramFiles/mingw-w64-x86_64-8.1.0-posix-seh-rt_v6-rev0/mingw64/bin/../lib/gcc/x86_64-w64-mingw32/8.1.0/../../../../x86_64-w64-mingw32/lib/../lib/libmingw32.a(lib64_libmingw32_a-tlssup.o)
                0x0000000000401850                __dyn_tls_init
                0x00000000004018d0                __tlregdtor
 .text          0x00000000004018e0        0x0 c:/ProgramFiles/mingw-w64-x86_64-8.1.0-posix-seh-rt_v6-rev0/mingw64/bin/../lib/gcc/x86_64-w64-mingw32/8.1.0/../../../../x86_64-w64-mingw32/lib/../lib/libmingw32.a(lib64_libmingw32_a-cinitexe.o)
 .text          0x00000000004018e0      0x160 c:/ProgramFiles/mingw-w64-x86_64-8.1.0-posix-seh-rt_v6-rev0/mingw64/bin/../lib/gcc/x86_64-w64-mingw32/8.1.0/../../../../x86_64-w64-mingw32/lib/../lib/libmingw32.a(lib64_libmingw32_a-merr.o)
                0x00000000004018e0                __mingw_raise_matherr
                0x0000000000401930                __mingw_setusermatherr
                0x0000000000401940                _matherr
 .text          0x0000000000401a40       0x10 c:/ProgramFiles/mingw-w64-x86_64-8.1.0-posix-seh-rt_v6-rev0/mingw64/bin/../lib/gcc/x86_64-w64-mingw32/8.1.0/../../../../x86_64-w64-mingw32/lib/../lib/libmingw32.a(lib64_libmingw32_a-CRT_fp10.o)
                0x0000000000401a40                fpreset
                0x0000000000401a40                _fpreset
 .text          0x0000000000401a50       0x20 c:/ProgramFiles/mingw-w64-x86_64-8.1.0-posix-seh-rt_v6-rev0/mingw64/bin/../lib/gcc/x86_64-w64-mingw32/8.1.0/../../../../x86_64-w64-mingw32/lib/../lib/libmingw32.a(lib64_libmingw32_a-mingw_helpers.o)
                0x0000000000401a50                _decode_pointer
                0x0000000000401a60                _encode_pointer
 .text          0x0000000000401a70      0x490 c:/ProgramFiles/mingw-w64-x86_64-8.1.0-posix-seh-rt_v6-rev0/mingw64/bin/../lib/gcc/x86_64-w64-mingw32/8.1.0/../../../../x86_64-w64-mingw32/lib/../lib/libmingw32.a(lib64_libmingw32_a-pseudo-reloc.o)
                0x0000000000401c40                _pei386_runtime_relocator
 .text          0x0000000000401f00        0x0 c:/ProgramFiles/mingw-w64-x86_64-8.1.0-posix-seh-rt_v6-rev0/mingw64/bin/../lib/gcc/x86_64-w64-mingw32/8.1.0/../../../../x86_64-w64-mingw32/lib/../lib/libmingw32.a(lib64_libmingw32_a-xtxtmode.o)
 .text          0x0000000000401f00      0x480 c:/ProgramFiles/mingw-w64-x86_64-8.1.0-posix-seh-rt_v6-rev0/mingw64/bin/../lib/gcc/x86_64-w64-mingw32/8.1.0/../../../../x86_64-w64-mingw32/lib/../lib/libmingw32.a(lib64_libmingw32_a-crt_handler.o)
                0x0000000000401f00                __mingw_SEH_error_handler
                0x00000000004020a0                __mingw_init_ehandler
                0x0000000000402190                _gnu_exception_handler
 .text          0x0000000000402380      0x270 c:/ProgramFiles/mingw-w64-x86_64-8.1.0-posix-seh-rt_v6-rev0/mingw64/bin/../lib/gcc/x86_64-w64-mingw32/8.1.0/../../../../x86_64-w64-mingw32/lib/../lib/libmingw32.a(lib64_libmingw32_a-tlsthrd.o)
                0x00000000004023f0                ___w64_mingwthr_add_key_dtor
                0x0000000000402470                ___w64_mingwthr_remove_key_dtor
                0x0000000000402510                __mingw_TLScallback
 .text          0x00000000004025f0        0x0 c:/ProgramFiles/mingw-w64-x86_64-8.1.0-posix-seh-rt_v6-rev0/mingw64/bin/../lib/gcc/x86_64-w64-mingw32/8.1.0/../../../../x86_64-w64-mingw32/lib/../lib/libmingw32.a(lib64_libmingw32_a-tlsmcrt.o)
 .text          0x00000000004025f0        0x0 c:/ProgramFiles/mingw-w64-x86_64-8.1.0-posix-seh-rt_v6-rev0/mingw64/bin/../lib/gcc/x86_64-w64-mingw32/8.1.0/../../../../x86_64-w64-mingw32/lib/../lib/libmingw32.a(lib64_libmingw32_a-pseudo-reloc-list.o)
 .text          0x00000000004025f0      0x3e0 c:/ProgramFiles/mingw-w64-x86_64-8.1.0-posix-seh-rt_v6-rev0/mingw64/bin/../lib/gcc/x86_64-w64-mingw32/8.1.0/../../../../x86_64-w64-mingw32/lib/../lib/libmingw32.a(lib64_libmingw32_a-pesect.o)
                0x0000000000402610                _ValidateImageBase
                0x0000000000402630                _FindPESection
                0x0000000000402680                _FindPESectionByName
                0x0000000000402710                __mingw_GetSectionForAddress
                0x0000000000402790                __mingw_GetSectionCount
                0x00000000004027d0                _FindPESectionExec
                0x0000000000402840                _GetPEImageBase
                0x0000000000402880                _IsNonwritableInCurrentImage
                0x0000000000402920                __mingw_enum_import_library_names
 .text          0x00000000004029d0       0x40 c:/ProgramFiles/mingw-w64-x86_64-8.1.0-posix-seh-rt_v6-rev0/mingw64/bin/../lib/gcc/x86_64-w64-mingw32/8.1.0/libgcc.a(_chkstk_ms.o)
                0x00000000004029d0                ___chkstk_ms
 .text          0x0000000000402a10        0x0 c:/ProgramFiles/mingw-w64-x86_64-8.1.0-posix-seh-rt_v6-rev0/mingw64/bin/../lib/gcc/x86_64-w64-mingw32/8.1.0/libgcc.a(_ctors.o)
 .text          0x0000000000402a10       0xf0 c:/ProgramFiles/mingw-w64-x86_64-8.1.0-posix-seh-rt_v6-rev0/mingw64/bin/../lib/gcc/x86_64-w64-mingw32/8.1.0/../../../../x86_64-w64-mingw32/lib/../lib/libmingwex.a(lib64_libmingwex_a-strtodnrp.o)
                0x0000000000402a10                __mingw_strtod
                0x0000000000402a10                __strtod
 .text          0x0000000000402b00      0x570 c:/ProgramFiles/mingw-w64-x86_64-8.1.0-posix-seh-rt_v6-rev0/mingw64/bin/../lib/gcc/x86_64-w64-mingw32/8.1.0/../../../../x86_64-w64-mingw32/lib/../lib/libmingwex.a(lib64_libmingwex_a-dirent.o)
                0x0000000000402b00                opendir
                0x0000000000402cb0                readdir
                0x0000000000402eb0                closedir
                0x0000000000402f10                rewinddir
                0x0000000000402f80                telldir
                0x0000000000402fc0                seekdir
 .text          0x0000000000403070      0xc00 c:/ProgramFiles/mingw-w64-x86_64-8.1.0-posix-seh-rt_v6-rev0/mingw64/bin/../lib/gcc/x86_64-w64-mingw32/8.1.0/../../../../x86_64-w64-mingw32/lib/../lib/libmingwex.a(lib64_libmingwex_a-getopt.o)
                0x0000000000403c00                getopt
                0x0000000000403c30                getopt_long
                0x0000000000403c50                getopt_long_only
 .text          0x0000000000403c70        0x0 c:/ProgramFiles/mingw-w64-x86_64-8.1.0-posix-seh-rt_v6-rev0/mingw64/bin/../lib/gcc/x86_64-w64-mingw32/8.1.0/../../../../x86_64-w64-mingw32/lib/../lib/libmingwex.a(lib64_libmingwex_a-mingw_matherr.o)
 .text          0x0000000000403c70      0x220 c:/ProgramFiles/mingw-w64-x86_64-8.1.0-posix-seh-rt_v6-rev0/mingw64/bin/../lib/gcc/x86_64-w64-mingw32/8.1.0/../../../../x86_64-w64-mingw32/lib/../lib/libmingwex.a(lib64_libmingwex_a-wassert.o)
                0x0000000000403c70                _wassert
                0x0000000000403db0                _assert
 .text          0x0000000000403e90       0x10 c:/ProgramFiles/mingw-w64-x86_64-8.1.0-posix-seh-rt_v6-rev0/mingw64/bin/../lib/gcc/x86_64-w64-mingw32/8.1.0/../../../../x86_64-w64-mingw32/lib/../lib/libmingwex.a(lib64_libmingwex_a-vsnprintf.o)
                0x0000000000403e90                __ms_vsnprintf
 .text          0x0000000000403ea0     0x2050 c:/ProgramFiles/mingw-w64-x86_64-8.1.0-posix-seh-rt_v6-rev0/mingw64/bin/../lib/gcc/x86_64-w64-mingw32/8.1.0/../../../../x86_64-w64-mingw32/lib/../lib/libmingwex.a(lib64_libmingwex_a-strtodg.o)
                0x0000000000403ea0                __increment_D2A
                0x00000000004042e0                __decrement_D2A
                0x0000000000404310                __set_ones_D2A
                0x00000000004043a0                __strtodg
 .text          0x0000000000405ef0      0x150 c:/ProgramFiles/mingw-w64-x86_64-8.1.0-posix-seh-rt_v6-rev0/mingw64/bin/../lib/gcc/x86_64-w64-mingw32/8.1.0/../../../../x86_64-w64-mingw32/lib/../lib/libmingwex.a(lib64_libmingwex_a-sum.o)
                0x0000000000405ef0                __sum_D2A
 .text          0x0000000000406040      0x910 c:/ProgramFiles/mingw-w64-x86_64-8.1.0-posix-seh-rt_v6-rev0/mingw64/bin/../lib/gcc/x86_64-w64-mingw32/8.1.0/../../../../x86_64-w64-mingw32/lib/../lib/libmingwex.a(lib64_libmingwex_a-gethex.o)
                0x0000000000406040                __gethex_D2A
 .text          0x0000000000406950      0x150 c:/ProgramFiles/mingw-w64-x86_64-8.1.0-posix-seh-rt_v6-rev0/mingw64/bin/../lib/gcc/x86_64-w64-mingw32/8.1.0/../../../../x86_64-w64-mingw32/lib/../lib/libmingwex.a(lib64_libmingwex_a-gmisc.o)
                0x0000000000406950                __rshift_D2A
                0x0000000000406a50                __trailz_D2A
 .text          0x0000000000406aa0       0xa0 c:/ProgramFiles/mingw-w64-x86_64-8.1.0-posix-seh-rt_v6-rev0/mingw64/bin/../lib/gcc/x86_64-w64-mingw32/8.1.0/../../../../x86_64-w64-mingw32/lib/../lib/libmingwex.a(lib64_libmingwex_a-hd_init.o)
                0x0000000000406aa0                __mingw_hexdig_init_D2A
 .text          0x0000000000406b40      0x3a0 c:/ProgramFiles/mingw-w64-x86_64-8.1.0-posix-seh-rt_v6-rev0/mingw64/bin/../lib/gcc/x86_64-w64-mingw32/8.1.0/../../../../x86_64-w64-mingw32/lib/../lib/libmingwex.a(lib64_libmingwex_a-hexnan.o)
                0x0000000000406b40                __hexnan_D2A
 .text          0x0000000000406ee0      0xb30 c:/ProgramFiles/mingw-w64-x86_64-8.1.0-posix-seh-rt_v6-rev0/mingw64/bin/../lib/gcc/x86_64-w64-mingw32/8.1.0/../../../../x86_64-w64-mingw32/lib/../lib/libmingwex.a(lib64_libmingwex_a-misc.o)
                0x0000000000407000                __Balloc_D2A
                0x0000000000407100                __Bfree_D2A
                0x0000000000407170                __multadd_D2A
                0x0000000000407220                __i2b_D2A
                0x0000000000407250                __mult_D2A
                0x0000000000407380                __pow5mult_D2A
                0x0000000000407500                __lshift_D2A
                0x0000000000407600                __cmp_D2A
                0x0000000000407640                __diff_D2A
                0x00000000004077b0                __b2d_D2A
                0x00000000004078c0                __d2b_D2A
                0x00000000004079e0                __strcp_D2A
 .text          0x0000000000407a10      0x2f0 c:/ProgramFiles/mingw-w64-x86_64-8.1.0-posix-seh-rt_v6-rev0/mingw64/bin/../lib/gcc/x86_64-w64-mingw32/8.1.0/../../../../x86_64-w64-mingw32/lib/../lib/libmingwex.a(lib64_libmingwex_a-smisc.o)
                0x0000000000407a10                __s2b_D2A
                0x0000000000407b10                __ratio_D2A
                0x0000000000407bb0                __match_D2A
                0x0000000000407c00                __copybits_D2A
                0x0000000000407c60                __any_on_D2A
 .text          0x0000000000407d00        0x8 c:/ProgramFiles/mingw-w64-x86_64-8.1.0-posix-seh-rt_v6-rev0/mingw64/bin/../lib/gcc/x86_64-w64-mingw32/8.1.0/../../../../x86_64-w64-mingw32/lib/../lib/libmsvcrt.a(duags01260.o)
                0x0000000000407d00                wcscpy
 .text          0x0000000000407d08        0x8 c:/ProgramFiles/mingw-w64-x86_64-8.1.0-posix-seh-rt_v6-rev0/mingw64/bin/../lib/gcc/x86_64-w64-mingw32/8.1.0/../../../../x86_64-w64-mingw32/lib/../lib/libmsvcrt.a(duags01243.o)
                0x0000000000407d08                vfprintf
 .text          0x0000000000407d10        0x8 c:/ProgramFiles/mingw-w64-x86_64-8.1.0-posix-seh-rt_v6-rev0/mingw64/bin/../lib/gcc/x86_64-w64-mingw32/8.1.0/../../../../x86_64-w64-mingw32/lib/../lib/libmsvcrt.a(duags01214.o)
                0x0000000000407d10                strpbrk
 .text          0x0000000000407d18        0x8 c:/ProgramFiles/mingw-w64-x86_64-8.1.0-posix-seh-rt_v6-rev0/mingw64/bin/../lib/gcc/x86_64-w64-mingw32/8.1.0/../../../../x86_64-w64-mingw32/lib/../lib/libmsvcrt.a(duags01212.o)
                0x0000000000407d18                strncpy
 .text          0x0000000000407d20        0x8 c:/ProgramFiles/mingw-w64-x86_64-8.1.0-posix-seh-rt_v6-rev0/mingw64/bin/../lib/gcc/x86_64-w64-mingw32/8.1.0/../../../../x86_64-w64-mingw32/lib/../lib/libmsvcrt.a(duags01211.o)
                0x0000000000407d20                strncmp
 .text          0x0000000000407d28        0x8 c:/ProgramFiles/mingw-w64-x86_64-8.1.0-posix-seh-rt_v6-rev0/mingw64/bin/../lib/gcc/x86_64-w64-mingw32/8.1.0/../../../../x86_64-w64-mingw32/lib/../lib/libmsvcrt.a(duags01209.o)
                0x0000000000407d28                strncat
 .text          0x0000000000407d30        0x8 c:/ProgramFiles/mingw-w64-x86_64-8.1.0-posix-seh-rt_v6-rev0/mingw64/bin/../lib/gcc/x86_64-w64-mingw32/8.1.0/../../../../x86_64-w64-mingw32/lib/../lib/libmsvcrt.a(duags01208.o)
                0x0000000000407d30                strlen
 .text          0x0000000000407d38        0x8 c:/ProgramFiles/mingw-w64-x86_64-8.1.0-posix-seh-rt_v6-rev0/mingw64/bin/../lib/gcc/x86_64-w64-mingw32/8.1.0/../../../../x86_64-w64-mingw32/lib/../lib/libmsvcrt.a(duags01203.o)
                0x0000000000407d38                strcpy
 .text          0x0000000000407d40        0x8 c:/ProgramFiles/mingw-w64-x86_64-8.1.0-posix-seh-rt_v6-rev0/mingw64/bin/../lib/gcc/x86_64-w64-mingw32/8.1.0/../../../../x86_64-w64-mingw32/lib/../lib/libmsvcrt.a(duags01201.o)
                0x0000000000407d40                strcmp
 .text          0x0000000000407d48        0x8 c:/ProgramFiles/mingw-w64-x86_64-8.1.0-posix-seh-rt_v6-rev0/mingw64/bin/../lib/gcc/x86_64-w64-mingw32/8.1.0/../../../../x86_64-w64-mingw32/lib/../lib/libmsvcrt.a(duags01200.o)
                0x0000000000407d48                strchr
 .text          0x0000000000407d50        0x8 c:/ProgramFiles/mingw-w64-x86_64-8.1.0-posix-seh-rt_v6-rev0/mingw64/bin/../lib/gcc/x86_64-w64-mingw32/8.1.0/../../../../x86_64-w64-mingw32/lib/../lib/libmsvcrt.a(duags01187.o)
                0x0000000000407d50                signal
 .text          0x0000000000407d58        0x8 c:/ProgramFiles/mingw-w64-x86_64-8.1.0-posix-seh-rt_v6-rev0/mingw64/bin/../lib/gcc/x86_64-w64-mingw32/8.1.0/../../../../x86_64-w64-mingw32/lib/../lib/libmsvcrt.a(duags01176.o)
                0x0000000000407d58                rand
 .text          0x0000000000407d60        0x8 c:/ProgramFiles/mingw-w64-x86_64-8.1.0-posix-seh-rt_v6-rev0/mingw64/bin/../lib/gcc/x86_64-w64-mingw32/8.1.0/../../../../x86_64-w64-mingw32/lib/../lib/libmsvcrt.a(duags01175.o)
                0x0000000000407d60                raise
 .text          0x0000000000407d68        0x8 c:/ProgramFiles/mingw-w64-x86_64-8.1.0-posix-seh-rt_v6-rev0/mingw64/bin/../lib/gcc/x86_64-w64-mingw32/8.1.0/../../../../x86_64-w64-mingw32/lib/../lib/libmsvcrt.a(duags01170.o)
                0x0000000000407d68                puts
 .text          0x0000000000407d70        0x8 c:/ProgramFiles/mingw-w64-x86_64-8.1.0-posix-seh-rt_v6-rev0/mingw64/bin/../lib/gcc/x86_64-w64-mingw32/8.1.0/../../../../x86_64-w64-mingw32/lib/../lib/libmsvcrt.a(duags01159.o)
                0x0000000000407d70                memset
 .text          0x0000000000407d78        0x8 c:/ProgramFiles/mingw-w64-x86_64-8.1.0-posix-seh-rt_v6-rev0/mingw64/bin/../lib/gcc/x86_64-w64-mingw32/8.1.0/../../../../x86_64-w64-mingw32/lib/../lib/libmsvcrt.a(duags01157.o)
                0x0000000000407d78                memcpy
 .text          0x0000000000407d80        0x8 c:/ProgramFiles/mingw-w64-x86_64-8.1.0-posix-seh-rt_v6-rev0/mingw64/bin/../lib/gcc/x86_64-w64-mingw32/8.1.0/../../../../x86_64-w64-mingw32/lib/../lib/libmsvcrt.a(duags01156.o)
                0x0000000000407d80                memcmp
 .text          0x0000000000407d88        0x8 c:/ProgramFiles/mingw-w64-x86_64-8.1.0-posix-seh-rt_v6-rev0/mingw64/bin/../lib/gcc/x86_64-w64-mingw32/8.1.0/../../../../x86_64-w64-mingw32/lib/../lib/libmsvcrt.a(duags01149.o)
                0x0000000000407d88                malloc
 .text          0x0000000000407d90        0x8 c:/ProgramFiles/mingw-w64-x86_64-8.1.0-posix-seh-rt_v6-rev0/mingw64/bin/../lib/gcc/x86_64-w64-mingw32/8.1.0/../../../../x86_64-w64-mingw32/lib/../lib/libmsvcrt.a(duags01142.o)
                0x0000000000407d90                localeconv
 .text          0x0000000000407d98        0x8 c:/ProgramFiles/mingw-w64-x86_64-8.1.0-posix-seh-rt_v6-rev0/mingw64/bin/../lib/gcc/x86_64-w64-mingw32/8.1.0/../../../../x86_64-w64-mingw32/lib/../lib/libmsvcrt.a(duags01120.o)
                0x0000000000407d98                isprint
 .text          0x0000000000407da0        0x8 c:/ProgramFiles/mingw-w64-x86_64-8.1.0-posix-seh-rt_v6-rev0/mingw64/bin/../lib/gcc/x86_64-w64-mingw32/8.1.0/../../../../x86_64-w64-mingw32/lib/../lib/libmsvcrt.a(duags01106.o)
                0x0000000000407da0                getenv
 .text          0x0000000000407da8        0x8 c:/ProgramFiles/mingw-w64-x86_64-8.1.0-posix-seh-rt_v6-rev0/mingw64/bin/../lib/gcc/x86_64-w64-mingw32/8.1.0/../../../../x86_64-w64-mingw32/lib/../lib/libmsvcrt.a(duags01101.o)
                0x0000000000407da8                fwrite
 .text          0x0000000000407db0        0x8 c:/ProgramFiles/mingw-w64-x86_64-8.1.0-posix-seh-rt_v6-rev0/mingw64/bin/../lib/gcc/x86_64-w64-mingw32/8.1.0/../../../../x86_64-w64-mingw32/lib/../lib/libmsvcrt.a(duags01099.o)
                0x0000000000407db0                fwprintf
 .text          0x0000000000407db8        0x8 c:/ProgramFiles/mingw-w64-x86_64-8.1.0-posix-seh-rt_v6-rev0/mingw64/bin/../lib/gcc/x86_64-w64-mingw32/8.1.0/../../../../x86_64-w64-mingw32/lib/../lib/libmsvcrt.a(duags01089.o)
                0x0000000000407db8                free
 .text          0x0000000000407dc0        0x8 c:/ProgramFiles/mingw-w64-x86_64-8.1.0-posix-seh-rt_v6-rev0/mingw64/bin/../lib/gcc/x86_64-w64-mingw32/8.1.0/../../../../x86_64-w64-mingw32/lib/../lib/libmsvcrt.a(duags01085.o)
                0x0000000000407dc0                fputs
 .text          0x0000000000407dc8        0x8 c:/ProgramFiles/mingw-w64-x86_64-8.1.0-posix-seh-rt_v6-rev0/mingw64/bin/../lib/gcc/x86_64-w64-mingw32/8.1.0/../../../../x86_64-w64-mingw32/lib/../lib/libmsvcrt.a(duags01084.o)
                0x0000000000407dc8                fputc
 .text          0x0000000000407dd0        0x8 c:/ProgramFiles/mingw-w64-x86_64-8.1.0-posix-seh-rt_v6-rev0/mingw64/bin/../lib/gcc/x86_64-w64-mingw32/8.1.0/../../../../x86_64-w64-mingw32/lib/../lib/libmsvcrt.a(duags01082.o)
                0x0000000000407dd0                fprintf
 .text          0x0000000000407dd8        0x8 c:/ProgramFiles/mingw-w64-x86_64-8.1.0-posix-seh-rt_v6-rev0/mingw64/bin/../lib/gcc/x86_64-w64-mingw32/8.1.0/../../../../x86_64-w64-mingw32/lib/../lib/libmsvcrt.a(duags01080.o)
                0x0000000000407dd8                fopen
 .text          0x0000000000407de0        0x8 c:/ProgramFiles/mingw-w64-x86_64-8.1.0-posix-seh-rt_v6-rev0/mingw64/bin/../lib/gcc/x86_64-w64-mingw32/8.1.0/../../../../x86_64-w64-mingw32/lib/../lib/libmsvcrt.a(duags01071.o)
                0x0000000000407de0                fgetc
 .text          0x0000000000407de8        0x8 c:/ProgramFiles/mingw-w64-x86_64-8.1.0-posix-seh-rt_v6-rev0/mingw64/bin/../lib/gcc/x86_64-w64-mingw32/8.1.0/../../../../x86_64-w64-mingw32/lib/../lib/libmsvcrt.a(duags01070.o)
                0x0000000000407de8                fflush
 .text          0x0000000000407df0        0x8 c:/ProgramFiles/mingw-w64-x86_64-8.1.0-posix-seh-rt_v6-rev0/mingw64/bin/../lib/gcc/x86_64-w64-mingw32/8.1.0/../../../../x86_64-w64-mingw32/lib/../lib/libmsvcrt.a(duags01069.o)
                0x0000000000407df0                ferror
 .text          0x0000000000407df8        0x8 c:/ProgramFiles/mingw-w64-x86_64-8.1.0-posix-seh-rt_v6-rev0/mingw64/bin/../lib/gcc/x86_64-w64-mingw32/8.1.0/../../../../x86_64-w64-mingw32/lib/../lib/libmsvcrt.a(duags01067.o)
                0x0000000000407df8                fclose
 .text          0x0000000000407e00        0x8 c:/ProgramFiles/mingw-w64-x86_64-8.1.0-posix-seh-rt_v6-rev0/mingw64/bin/../lib/gcc/x86_64-w64-mingw32/8.1.0/../../../../x86_64-w64-mingw32/lib/../lib/libmsvcrt.a(duags01063.o)
                0x0000000000407e00                exit
 .text          0x0000000000407e08        0x8 c:/ProgramFiles/mingw-w64-x86_64-8.1.0-posix-seh-rt_v6-rev0/mingw64/bin/../lib/gcc/x86_64-w64-mingw32/8.1.0/../../../../x86_64-w64-mingw32/lib/../lib/libmsvcrt.a(duags01060.o)
                0x0000000000407e08                ctime
 .text          0x0000000000407e10        0x8 c:/ProgramFiles/mingw-w64-x86_64-8.1.0-posix-seh-rt_v6-rev0/mingw64/bin/../lib/gcc/x86_64-w64-mingw32/8.1.0/../../../../x86_64-w64-mingw32/lib/../lib/libmsvcrt.a(duags01055.o)
                0x0000000000407e10                clock
 .text          0x0000000000407e18        0x8 c:/ProgramFiles/mingw-w64-x86_64-8.1.0-posix-seh-rt_v6-rev0/mingw64/bin/../lib/gcc/x86_64-w64-mingw32/8.1.0/../../../../x86_64-w64-mingw32/lib/../lib/libmsvcrt.a(duags01050.o)
                0x0000000000407e18                calloc
 .text          0x0000000000407e20        0x8 c:/ProgramFiles/mingw-w64-x86_64-8.1.0-posix-seh-rt_v6-rev0/mingw64/bin/../lib/gcc/x86_64-w64-mingw32/8.1.0/../../../../x86_64-w64-mingw32/lib/../lib/libmsvcrt.a(duags01048.o)
                0x0000000000407e20                bsearch
 .text          0x0000000000407e28        0x8 c:/ProgramFiles/mingw-w64-x86_64-8.1.0-posix-seh-rt_v6-rev0/mingw64/bin/../lib/gcc/x86_64-w64-mingw32/8.1.0/../../../../x86_64-w64-mingw32/lib/../lib/libmsvcrt.a(duags01032.o)
                0x0000000000407e28                abort
 .text          0x0000000000407e30        0x8 c:/ProgramFiles/mingw-w64-x86_64-8.1.0-posix-seh-rt_v6-rev0/mingw64/bin/../lib/gcc/x86_64-w64-mingw32/8.1.0/../../../../x86_64-w64-mingw32/lib/../lib/libmsvcrt.a(duags00973.o)
                0x0000000000407e30                time
 .text          0x0000000000407e38        0x8 c:/ProgramFiles/mingw-w64-x86_64-8.1.0-posix-seh-rt_v6-rev0/mingw64/bin/../lib/gcc/x86_64-w64-mingw32/8.1.0/../../../../x86_64-w64-mingw32/lib/../lib/libmsvcrt.a(duags00852.o)
                0x0000000000407e38                _vsnprintf
 .text          0x0000000000407e40        0x8 c:/ProgramFiles/mingw-w64-x86_64-8.1.0-posix-seh-rt_v6-rev0/mingw64/bin/../lib/gcc/x86_64-w64-mingw32/8.1.0/../../../../x86_64-w64-mingw32/lib/../lib/libmsvcrt.a(duags00735.o)
                0x0000000000407e40                stricmp
 .text          0x0000000000407e48        0x8 c:/ProgramFiles/mingw-w64-x86_64-8.1.0-posix-seh-rt_v6-rev0/mingw64/bin/../lib/gcc/x86_64-w64-mingw32/8.1.0/../../../../x86_64-w64-mingw32/lib/../lib/libmsvcrt.a(duags00689.o)
                0x0000000000407e48                _snwprintf
 .text          0x0000000000407e50        0x8 c:/ProgramFiles/mingw-w64-x86_64-8.1.0-posix-seh-rt_v6-rev0/mingw64/bin/../lib/gcc/x86_64-w64-mingw32/8.1.0/../../../../x86_64-w64-mingw32/lib/../lib/libmsvcrt.a(duags00614.o)
                0x0000000000407e50                _onexit
 .text          0x0000000000407e58        0x8 c:/ProgramFiles/mingw-w64-x86_64-8.1.0-posix-seh-rt_v6-rev0/mingw64/bin/../lib/gcc/x86_64-w64-mingw32/8.1.0/../../../../x86_64-w64-mingw32/lib/../lib/libmsvcrt.a(duags00603.o)
                0x0000000000407e58                mkdir
 .text          0x0000000000407e60        0x8 c:/ProgramFiles/mingw-w64-x86_64-8.1.0-posix-seh-rt_v6-rev0/mingw64/bin/../lib/gcc/x86_64-w64-mingw32/8.1.0/../../../../x86_64-w64-mingw32/lib/../lib/libmsvcrt.a(duags00332.o)
                0x0000000000407e60                _initterm
 .text          0x0000000000407e68        0x8 c:/ProgramFiles/mingw-w64-x86_64-8.1.0-posix-seh-rt_v6-rev0/mingw64/bin/../lib/gcc/x86_64-w64-mingw32/8.1.0/../../../../x86_64-w64-mingw32/lib/../lib/libmsvcrt.a(duags00278.o)
                0x0000000000407e68                _fullpath
 .text          0x0000000000407e70        0x8 c:/ProgramFiles/mingw-w64-x86_64-8.1.0-posix-seh-rt_v6-rev0/mingw64/bin/../lib/gcc/x86_64-w64-mingw32/8.1.0/../../../../x86_64-w64-mingw32/lib/../lib/libmsvcrt.a(duags00245.o)
                0x0000000000407e70                _findnext64
 .text          0x0000000000407e78        0x8 c:/ProgramFiles/mingw-w64-x86_64-8.1.0-posix-seh-rt_v6-rev0/mingw64/bin/../lib/gcc/x86_64-w64-mingw32/8.1.0/../../../../x86_64-w64-mingw32/lib/../lib/libmsvcrt.a(duags00240.o)
                0x0000000000407e78                _findfirst64
 .text          0x0000000000407e80        0x8 c:/ProgramFiles/mingw-w64-x86_64-8.1.0-posix-seh-rt_v6-rev0/mingw64/bin/../lib/gcc/x86_64-w64-mingw32/8.1.0/../../../../x86_64-w64-mingw32/lib/../lib/libmsvcrt.a(duags00237.o)
                0x0000000000407e80                _findclose
 .text          0x0000000000407e88        0x8 c:/ProgramFiles/mingw-w64-x86_64-8.1.0-posix-seh-rt_v6-rev0/mingw64/bin/../lib/gcc/x86_64-w64-mingw32/8.1.0/../../../../x86_64-w64-mingw32/lib/../lib/libmsvcrt.a(duags00218.o)
                0x0000000000407e88                _exit
 .text          0x0000000000407e90        0x8 c:/ProgramFiles/mingw-w64-x86_64-8.1.0-posix-seh-rt_v6-rev0/mingw64/bin/../lib/gcc/x86_64-w64-mingw32/8.1.0/../../../../x86_64-w64-mingw32/lib/../lib/libmsvcrt.a(duags00203.o)
                0x0000000000407e90                _errno
 .text          0x0000000000407e98        0x8 c:/ProgramFiles/mingw-w64-x86_64-8.1.0-posix-seh-rt_v6-rev0/mingw64/bin/../lib/gcc/x86_64-w64-mingw32/8.1.0/../../../../x86_64-w64-mingw32/lib/../lib/libmsvcrt.a(duags00141.o)
                0x0000000000407e98                _cexit
 .text          0x0000000000407ea0        0x8 c:/ProgramFiles/mingw-w64-x86_64-8.1.0-posix-seh-rt_v6-rev0/mingw64/bin/../lib/gcc/x86_64-w64-mingw32/8.1.0/../../../../x86_64-w64-mingw32/lib/../lib/libmsvcrt.a(duags00122.o)
                0x0000000000407ea0                _amsg_exit
 .text          0x0000000000407ea8        0x8 c:/ProgramFiles/mingw-w64-x86_64-8.1.0-posix-seh-rt_v6-rev0/mingw64/bin/../lib/gcc/x86_64-w64-mingw32/8.1.0/../../../../x86_64-w64-mingw32/lib/../lib/libmsvcrt.a(duags00098.o)
                0x0000000000407ea8                __setusermatherr
 .text          0x0000000000407eb0        0x8 c:/ProgramFiles/mingw-w64-x86_64-8.1.0-posix-seh-rt_v6-rev0/mingw64/bin/../lib/gcc/x86_64-w64-mingw32/8.1.0/../../../../x86_64-w64-mingw32/lib/../lib/libmsvcrt.a(duags00096.o)
                0x0000000000407eb0                __set_app_type
 .text          0x0000000000407eb8        0x8 c:/ProgramFiles/mingw-w64-x86_64-8.1.0-posix-seh-rt_v6-rev0/mingw64/bin/../lib/gcc/x86_64-w64-mingw32/8.1.0/../../../../x86_64-w64-mingw32/lib/../lib/libmsvcrt.a(duags00090.o)
                0x0000000000407eb8                __lconv_init
 .text          0x0000000000407ec0        0x0 c:/ProgramFiles/mingw-w64-x86_64-8.1.0-posix-seh-rt_v6-rev0/mingw64/bin/../lib/gcc/x86_64-w64-mingw32/8.1.0/../../../../x86_64-w64-mingw32/lib/../lib/libmsvcrt.a(duags00082.o)
 .text          0x0000000000407ec0        0x8 c:/ProgramFiles/mingw-w64-x86_64-8.1.0-posix-seh-rt_v6-rev0/mingw64/bin/../lib/gcc/x86_64-w64-mingw32/8.1.0/../../../../x86_64-w64-mingw32/lib/../lib/libmsvcrt.a(duags00081.o)
                0x0000000000407ec0                __getmainargs
 .text          0x0000000000407ec8        0x8 c:/ProgramFiles/mingw-w64-x86_64-8.1.0-posix-seh-rt_v6-rev0/mingw64/bin/../lib/gcc/x86_64-w64-mingw32/8.1.0/../../../../x86_64-w64-mingw32/lib/../lib/libmsvcrt.a(duags00055.o)
                0x0000000000407ec8                __C_specific_handler
 .text          0x0000000000407ed0       0x20 c:/ProgramFiles/mingw-w64-x86_64-8.1.0-posix-seh-rt_v6-rev0/mingw64/bin/../lib/gcc/x86_64-w64-mingw32/8.1.0/../../../../x86_64-w64-mingw32/lib/../lib/libmsvcrt.a(lib64_libmsvcrt_os_a-acrt_iob_func.o)
                0x0000000000407ed0                __acrt_iob_func
 .text          0x0000000000407ef0       0x20 c:/ProgramFiles/mingw-w64-x86_64-8.1.0-posix-seh-rt_v6-rev0/mingw64/bin/../lib/gcc/x86_64-w64-mingw32/8.1.0/../../../../x86_64-w64-mingw32/lib/../lib/libmsvcrt.a(lib64_libmsvcrt_os_a-invalid_parameter_handler.o)
                0x0000000000407ef0                _get_invalid_parameter_handler
                0x0000000000407f00                _set_invalid_parameter_handler
 .text          0x0000000000407f10       0x10 c:/ProgramFiles/mingw-w64-x86_64-8.1.0-posix-seh-rt_v6-rev0/mingw64/bin/../lib/gcc/x86_64-w64-mingw32/8.1.0/../../../../x86_64-w64-mingw32/lib/../lib/libmsvcrt.a(lib64_libmsvcrt_os_a-__p___argv.o)
                0x0000000000407f10                __p___argv
 .text          0x0000000000407f20       0x10 c:/ProgramFiles/mingw-w64-x86_64-8.1.0-posix-seh-rt_v6-rev0/mingw64/bin/../lib/gcc/x86_64-w64-mingw32/8.1.0/../../../../x86_64-w64-mingw32/lib/../lib/libmsvcrt.a(lib64_libmsvcrt_os_a-__p__acmdln.o)
                0x0000000000407f20                __p__acmdln
 .text          0x0000000000407f30       0x10 c:/ProgramFiles/mingw-w64-x86_64-8.1.0-posix-seh-rt_v6-rev0/mingw64/bin/../lib/gcc/x86_64-w64-mingw32/8.1.0/../../../../x86_64-w64-mingw32/lib/../lib/libmsvcrt.a(lib64_libmsvcrt_os_a-__p__fmode.o)
                0x0000000000407f30                __p__fmode
 .text          0x0000000000407f40        0x0 c:/ProgramFiles/mingw-w64-x86_64-8.1.0-posix-seh-rt_v6-rev0/mingw64/bin/../lib/gcc/x86_64-w64-mingw32/8.1.0/../../../../x86_64-w64-mingw32/lib/../lib/libmsvcrt.a(duagh.o)
 .text          0x0000000000407f40        0x0 c:/ProgramFiles/mingw-w64-x86_64-8.1.0-posix-seh-rt_v6-rev0/mingw64/bin/../lib/gcc/x86_64-w64-mingw32/8.1.0/../../../../x86_64-w64-mingw32/lib/../lib/libmsvcrt.a(duags00115.o)
 .text          0x0000000000407f40        0x8 c:/ProgramFiles/mingw-w64-x86_64-8.1.0-posix-seh-rt_v6-rev0/mingw64/bin/../lib/gcc/x86_64-w64-mingw32/8.1.0/../../../../x86_64-w64-mingw32/lib/../lib/libmsvcrt.a(duags00083.o)
                0x0000000000407f40                __iob_func
 .text          0x0000000000407f48        0x0 c:/ProgramFiles/mingw-w64-x86_64-8.1.0-posix-seh-rt_v6-rev0/mingw64/bin/../lib/gcc/x86_64-w64-mingw32/8.1.0/../../../../x86_64-w64-mingw32/lib/../lib/libmsvcrt.a(duags00070.o)
 *fill*         0x0000000000407f48        0x8 
 .text          0x0000000000407f50        0x0 c:/ProgramFiles/mingw-w64-x86_64-8.1.0-posix-seh-rt_v6-rev0/mingw64/bin/../lib/gcc/x86_64-w64-mingw32/8.1.0/../../../../x86_64-w64-mingw32/lib/../lib/libmsvcrt.a(duagt.o)
 .text          0x0000000000407f50        0x8 c:/ProgramFiles/mingw-w64-x86_64-8.1.0-posix-seh-rt_v6-rev0/mingw64/bin/../lib/gcc/x86_64-w64-mingw32/8.1.0/../../../../x86_64-w64-mingw32/lib/../lib/libuser32.a(dyqes00619.o)
                0x0000000000407f50                MessageBoxW
 *fill*         0x0000000000407f58        0x8 
 .text          0x0000000000407f60        0x0 c:/ProgramFiles/mingw-w64-x86_64-8.1.0-posix-seh-rt_v6-rev0/mingw64/bin/../lib/gcc/x86_64-w64-mingw32/8.1.0/../../../../x86_64-w64-mingw32/lib/../lib/libuser32.a(dyqeh.o)
 .text          0x0000000000407f60        0x0 c:/ProgramFiles/mingw-w64-x86_64-8.1.0-posix-seh-rt_v6-rev0/mingw64/bin/../lib/gcc/x86_64-w64-mingw32/8.1.0/../../../../x86_64-w64-mingw32/lib/../lib/libuser32.a(dyqet.o)
 .text          0x0000000000407f60        0x8 c:/ProgramFiles/mingw-w64-x86_64-8.1.0-posix-seh-rt_v6-rev0/mingw64/bin/../lib/gcc/x86_64-w64-mingw32/8.1.0/../../../../x86_64-w64-mingw32/lib/../lib/libkernel32.a(dqifs01445.o)
                0x0000000000407f60                VirtualQuery
 .text          0x0000000000407f68        0x8 c:/ProgramFiles/mingw-w64-x86_64-8.1.0-posix-seh-rt_v6-rev0/mingw64/bin/../lib/gcc/x86_64-w64-mingw32/8.1.0/../../../../x86_64-w64-mingw32/lib/../lib/libkernel32.a(dqifs01443.o)
                0x0000000000407f68                VirtualProtect
 .text          0x0000000000407f70        0x8 c:/ProgramFiles/mingw-w64-x86_64-8.1.0-posix-seh-rt_v6-rev0/mingw64/bin/../lib/gcc/x86_64-w64-mingw32/8.1.0/../../../../x86_64-w64-mingw32/lib/../lib/libkernel32.a(dqifs01409.o)
                0x0000000000407f70                UnhandledExceptionFilter
 .text          0x0000000000407f78        0x8 c:/ProgramFiles/mingw-w64-x86_64-8.1.0-posix-seh-rt_v6-rev0/mingw64/bin/../lib/gcc/x86_64-w64-mingw32/8.1.0/../../../../x86_64-w64-mingw32/lib/../lib/libkernel32.a(dqifs01395.o)
                0x0000000000407f78                TlsGetValue
 .text          0x0000000000407f80        0x8 c:/ProgramFiles/mingw-w64-x86_64-8.1.0-posix-seh-rt_v6-rev0/mingw64/bin/../lib/gcc/x86_64-w64-mingw32/8.1.0/../../../../x86_64-w64-mingw32/lib/../lib/libkernel32.a(dqifs01375.o)
                0x0000000000407f80                TerminateProcess
 .text          0x0000000000407f88        0x8 c:/ProgramFiles/mingw-w64-x86_64-8.1.0-posix-seh-rt_v6-rev0/mingw64/bin/../lib/gcc/x86_64-w64-mingw32/8.1.0/../../../../x86_64-w64-mingw32/lib/../lib/libkernel32.a(dqifs01360.o)
                0x0000000000407f88                Sleep
 .text          0x0000000000407f90        0x8 c:/ProgramFiles/mingw-w64-x86_64-8.1.0-posix-seh-rt_v6-rev0/mingw64/bin/../lib/gcc/x86_64-w64-mingw32/8.1.0/../../../../x86_64-w64-mingw32/lib/../lib/libkernel32.a(dqifs01346.o)
                0x0000000000407f90                SetUnhandledExceptionFilter
 .text          0x0000000000407f98        0x8 c:/ProgramFiles/mingw-w64-x86_64-8.1.0-posix-seh-rt_v6-rev0/mingw64/bin/../lib/gcc/x86_64-w64-mingw32/8.1.0/../../../../x86_64-w64-mingw32/lib/../lib/libkernel32.a(dqifs01194.o)
                0x0000000000407f98                RtlVirtualUnwind
 .text          0x0000000000407fa0        0x8 c:/ProgramFiles/mingw-w64-x86_64-8.1.0-posix-seh-rt_v6-rev0/mingw64/bin/../lib/gcc/x86_64-w64-mingw32/8.1.0/../../../../x86_64-w64-mingw32/lib/../lib/libkernel32.a(dqifs01187.o)
                0x0000000000407fa0                RtlLookupFunctionEntry
 .text          0x0000000000407fa8        0x8 c:/ProgramFiles/mingw-w64-x86_64-8.1.0-posix-seh-rt_v6-rev0/mingw64/bin/../lib/gcc/x86_64-w64-mingw32/8.1.0/../../../../x86_64-w64-mingw32/lib/../lib/libkernel32.a(dqifs01180.o)
                0x0000000000407fa8                RtlCaptureContext
 .text          0x0000000000407fb0        0x8 c:/ProgramFiles/mingw-w64-x86_64-8.1.0-posix-seh-rt_v6-rev0/mingw64/bin/../lib/gcc/x86_64-w64-mingw32/8.1.0/../../../../x86_64-w64-mingw32/lib/../lib/libkernel32.a(dqifs01179.o)
                0x0000000000407fb0                RtlAddFunctionTable
 .text          0x0000000000407fb8        0x8 c:/ProgramFiles/mingw-w64-x86_64-8.1.0-posix-seh-rt_v6-rev0/mingw64/bin/../lib/gcc/x86_64-w64-mingw32/8.1.0/../../../../x86_64-w64-mingw32/lib/../lib/libkernel32.a(dqifs01093.o)
                0x0000000000407fb8                QueryPerformanceCounter
 .text          0x0000000000407fc0        0x8 c:/ProgramFiles/mingw-w64-x86_64-8.1.0-posix-seh-rt_v6-rev0/mingw64/bin/../lib/gcc/x86_64-w64-mingw32/8.1.0/../../../../x86_64-w64-mingw32/lib/../lib/libkernel32.a(dqifs00951.o)
                0x0000000000407fc0                LeaveCriticalSection
 .text          0x0000000000407fc8        0x8 c:/ProgramFiles/mingw-w64-x86_64-8.1.0-posix-seh-rt_v6-rev0/mingw64/bin/../lib/gcc/x86_64-w64-mingw32/8.1.0/../../../../x86_64-w64-mingw32/lib/../lib/libkernel32.a(dqifs00863.o)
                0x0000000000407fc8                InitializeCriticalSection
 .text          0x0000000000407fd0        0x8 c:/ProgramFiles/mingw-w64-x86_64-8.1.0-posix-seh-rt_v6-rev0/mingw64/bin/../lib/gcc/x86_64-w64-mingw32/8.1.0/../../../../x86_64-w64-mingw32/lib/../lib/libkernel32.a(dqifs00774.o)
                0x0000000000407fd0                GetTickCount
 .text          0x0000000000407fd8        0x8 c:/ProgramFiles/mingw-w64-x86_64-8.1.0-posix-seh-rt_v6-rev0/mingw64/bin/../lib/gcc/x86_64-w64-mingw32/8.1.0/../../../../x86_64-w64-mingw32/lib/../lib/libkernel32.a(dqifs00746.o)
                0x0000000000407fd8                GetSystemTimeAsFileTime
 .text          0x0000000000407fe0        0x8 c:/ProgramFiles/mingw-w64-x86_64-8.1.0-posix-seh-rt_v6-rev0/mingw64/bin/../lib/gcc/x86_64-w64-mingw32/8.1.0/../../../../x86_64-w64-mingw32/lib/../lib/libkernel32.a(dqifs00721.o)
                0x0000000000407fe0                GetStartupInfoA
 .text          0x0000000000407fe8        0x8 c:/ProgramFiles/mingw-w64-x86_64-8.1.0-posix-seh-rt_v6-rev0/mingw64/bin/../lib/gcc/x86_64-w64-mingw32/8.1.0/../../../../x86_64-w64-mingw32/lib/../lib/libkernel32.a(dqifs00629.o)
                0x0000000000407fe8                GetModuleFileNameW
 .text          0x0000000000407ff0        0x8 c:/ProgramFiles/mingw-w64-x86_64-8.1.0-posix-seh-rt_v6-rev0/mingw64/bin/../lib/gcc/x86_64-w64-mingw32/8.1.0/../../../../x86_64-w64-mingw32/lib/../lib/libkernel32.a(dqifs00609.o)
                0x0000000000407ff0                GetLastError
 .text          0x0000000000407ff8        0x8 c:/ProgramFiles/mingw-w64-x86_64-8.1.0-posix-seh-rt_v6-rev0/mingw64/bin/../lib/gcc/x86_64-w64-mingw32/8.1.0/../../../../x86_64-w64-mingw32/lib/../lib/libkernel32.a(dqifs00578.o)
                0x0000000000407ff8                GetFileAttributesA
 .text          0x0000000000408000        0x8 c:/ProgramFiles/mingw-w64-x86_64-8.1.0-posix-seh-rt_v6-rev0/mingw64/bin/../lib/gcc/x86_64-w64-mingw32/8.1.0/../../../../x86_64-w64-mingw32/lib/../lib/libkernel32.a(dqifs00540.o)
                0x0000000000408000                GetCurrentThreadId
 .text          0x0000000000408008        0x8 c:/ProgramFiles/mingw-w64-x86_64-8.1.0-posix-seh-rt_v6-rev0/mingw64/bin/../lib/gcc/x86_64-w64-mingw32/8.1.0/../../../../x86_64-w64-mingw32/lib/../lib/libkernel32.a(dqifs00536.o)
                0x0000000000408008                GetCurrentProcessId
 .text          0x0000000000408010        0x8 c:/ProgramFiles/mingw-w64-x86_64-8.1.0-posix-seh-rt_v6-rev0/mingw64/bin/../lib/gcc/x86_64-w64-mingw32/8.1.0/../../../../x86_64-w64-mingw32/lib/../lib/libkernel32.a(dqifs00535.o)
                0x0000000000408010                GetCurrentProcess
 .text          0x0000000000408018        0x8 c:/ProgramFiles/mingw-w64-x86_64-8.1.0-posix-seh-rt_v6-rev0/mingw64/bin/../lib/gcc/x86_64-w64-mingw32/8.1.0/../../../../x86_64-w64-mingw32/lib/../lib/libkernel32.a(dqifs00304.o)
                0x0000000000408018                EnterCriticalSection
 .text          0x0000000000408020        0x8 c:/ProgramFiles/mingw-w64-x86_64-8.1.0-posix-seh-rt_v6-rev0/mingw64/bin/../lib/gcc/x86_64-w64-mingw32/8.1.0/../../../../x86_64-w64-mingw32/lib/../lib/libkernel32.a(dqifs00268.o)
                0x0000000000408020                DeleteCriticalSection
 *fill*         0x0000000000408028        0x8 
 .text          0x0000000000408030        0x0 c:/ProgramFiles/mingw-w64-x86_64-8.1.0-posix-seh-rt_v6-rev0/mingw64/bin/../lib/gcc/x86_64-w64-mingw32/8.1.0/../../../../x86_64-w64-mingw32/lib/../lib/libkernel32.a(dqifh.o)
 .text          0x0000000000408030        0x0 c:/ProgramFiles/mingw-w64-x86_64-8.1.0-posix-seh-rt_v6-rev0/mingw64/bin/../lib/gcc/x86_64-w64-mingw32/8.1.0/../../../../x86_64-w64-mingw32/lib/../lib/libkernel32.a(dqift.o)
 .text          0x0000000000408030        0x0 c:/ProgramFiles/mingw-w64-x86_64-8.1.0-posix-seh-rt_v6-rev0/mingw64/bin/../lib/gcc/x86_64-w64-mingw32/8.1.0/../../../../x86_64-w64-mingw32/lib/../lib/libmsvcrt.a(duags00253.o)
 .text          0x0000000000408030        0x0 c:/ProgramFiles/mingw-w64-x86_64-8.1.0-posix-seh-rt_v6-rev0/mingw64/bin/../lib/gcc/x86_64-w64-mingw32/8.1.0/crtend.o
 *(SORT_BY_NAME(.text$*))
 .text$add      0x0000000000408030      0x170 bin/win/DEBUG/obj/mhn_mapOsFrameHandleToCanIfHandle.o
 .text$addKeyValuePair
                0x00000000004081a0      0x1a0 bin/win/DEBUG/obj/m16_mapDirectLookupU16.o
 .text$addKeyValuePair
                0x0000000000408340      0x160 bin/win/DEBUG/obj/mci_mapBinarySearchCanId.o
 .text$addKeyValuePair
                0x00000000004084a0      0x210 bin/win/DEBUG/obj/mpo_mapOffsetOnly.o
 .text$addKeyValuePair
                0x00000000004086b0      0x1a0 bin/win/DEBUG/obj/mu8_mapDirectLookupU8.o
 .text$alignedSizeOfObject
                0x0000000000408850       0x30 bin/win/DEBUG/obj/vsq_threadSafeQueueVariableSize.o
 .text$allocTailElement
                0x0000000000408880      0x250 bin/win/DEBUG/obj/vsq_threadSafeQueueVariableSize.o
 .text$apt_irqHandlerBusOff
                0x0000000000408ad0      0x1b0 bin/win/DEBUG/obj/apt_applicationTask.o
                0x0000000000408ad0                apt_irqHandlerBusOff
 .text$apt_irqHandlerRxCan
                0x0000000000408c80      0x170 bin/win/DEBUG/obj/apt_applicationTask.o
                0x0000000000408c80                apt_irqHandlerRxCan
 .text$apt_task100ms
                0x0000000000408df0       0xb0 bin/win/DEBUG/obj/apt_applicationTask.o
                0x0000000000408df0                apt_task100ms
 .text$apt_task10ms
                0x0000000000408ea0       0xb0 bin/win/DEBUG/obj/apt_applicationTask.o
                0x0000000000408ea0                apt_task10ms
 .text$apt_taskInit
                0x0000000000408f50      0x640 bin/win/DEBUG/obj/apt_applicationTask.o
                0x0000000000408f50                apt_taskInit
 .text$apt_taskShutdown
                0x0000000000409590      0x420 bin/win/DEBUG/obj/apt_applicationTask.o
                0x0000000000409590                apt_taskShutdown
 .text$byteOffsetOfRingBuffer
                0x00000000004099b0       0x20 bin/win/DEBUG/obj/vsq_threadSafeQueueVariableSize.o
 .text$calculateSizeOfRingBuffer
                0x00000000004099d0       0x70 bin/win/DEBUG/obj/vsq_threadSafeQueueVariableSize.o
 .text$cbk_initInterface
                0x0000000000409a40      0x4b0 bin/win/DEBUG/obj/cbk_callbacks.o
                0x0000000000409a40                cbk_initInterface
 .text$checkForInstallDir
                0x0000000000409ef0       0xd0 bin/win/DEBUG/obj/fil_file.o
 .text$checkUserInput
                0x0000000000409fc0      0x1c0 bin/win/DEBUG/obj/opt_getOpt.o
 .text$chk_computeChecksum
                0x000000000040a180       0xe0 bin/win/DEBUG/obj/chk_checksum.o
                0x000000000040a180                chk_computeChecksum
 .text$chk_updateSequenceCounter
                0x000000000040a260       0x80 bin/win/DEBUG/obj/chk_checksum.o
                0x000000000040a260                chk_updateSequenceCounter
 .text$chk_validateChecksum
                0x000000000040a2e0       0x90 bin/win/DEBUG/obj/chk_checksum.o
                0x000000000040a2e0                chk_validateChecksum
 .text$chk_validateSequenceCounter
                0x000000000040a370      0x110 bin/win/DEBUG/obj/chk_checksum.o
                0x000000000040a370                chk_validateSequenceCounter
 .text$clockMsgSpeed
                0x000000000040a480      0x690 bin/win/DEBUG/obj/oss_operatingSystemSimulation.o
 .text$clockMsgTorque
                0x000000000040ab10      0x650 bin/win/DEBUG/obj/oss_operatingSystemSimulation.o
 .text$clockMsgUserLimits
                0x000000000040b160      0x580 bin/win/DEBUG/obj/oss_operatingSystemSimulation.o
 .text$comparePairsIdAndIdxById
                0x000000000040b6e0       0x60 bin/win/DEBUG/obj/mci_mapBinarySearchCanId.o
 .text$createTimer
                0x000000000040b740      0x220 bin/win/DEBUG/obj/ede_eventDispatcherEngine.o
 .text$edePortDisp_freeBuffer
                0x000000000040b960       0x10 bin/win/DEBUG/obj/vsq_dispatcherPortInterface.o
 .text$edePortDisp_readBuffer
                0x000000000040b970       0x70 bin/win/DEBUG/obj/vsq_dispatcherPortInterface.o
 .text$edePortSdr_allocBuffer
                0x000000000040b9e0       0x30 bin/win/DEBUG/obj/vsq_dispatcherPortInterface.o
 .text$edePortSdr_submitBuffer
                0x000000000040ba10       0x30 bin/win/DEBUG/obj/vsq_dispatcherPortInterface.o
 .text$ede_createDispatcher
                0x000000000040ba40      0x1d0 bin/win/DEBUG/obj/ede_eventDispatcherEngine.o
                0x000000000040ba40                ede_createDispatcher
 .text$ede_createDispatcherSystem
                0x000000000040bc10      0x1e0 bin/win/DEBUG/obj/ede_eventDispatcherEngine.o
                0x000000000040bc10                ede_createDispatcherSystem
 .text$ede_createPeriodicTimer
                0x000000000040bdf0       0x50 bin/win/DEBUG/obj/ede_eventDispatcherEngine.o
                0x000000000040bdf0                ede_createPeriodicTimer
 .text$ede_createSender
                0x000000000040be40      0x190 bin/win/DEBUG/obj/ede_eventSender.o
                0x000000000040be40                ede_createSender
 .text$ede_createSingleShotTimer
                0x000000000040bfd0       0x50 bin/win/DEBUG/obj/ede_eventDispatcherEngine.o
                0x000000000040bfd0                ede_createSingleShotTimer
 .text$ede_dispatcherMain
                0x000000000040c020      0x400 bin/win/DEBUG/obj/ede_eventDispatcherEngine.o
                0x000000000040c020                ede_dispatcherMain
 .text$ede_getEventData
                0x000000000040c420       0x60 bin/win/DEBUG/obj/ede_eventDispatcherEngine.o
                0x000000000040c420                ede_getEventData
 .text$ede_getEventSourceData
                0x000000000040c480       0x30 bin/win/DEBUG/obj/ede_eventDispatcherEngine.o
                0x000000000040c480                ede_getEventSourceData
 .text$ede_getHandleTimer
                0x000000000040c4b0       0x50 bin/win/DEBUG/obj/ede_eventDispatcherEngine.o
                0x000000000040c4b0                ede_getHandleTimer
 .text$ede_getIdxEventSource
                0x000000000040c500       0xf0 bin/win/DEBUG/obj/ede_eventDispatcherEngine.o
                0x000000000040c500                ede_getIdxEventSource
 .text$ede_getIdxExternalEventSource
                0x000000000040c5f0       0x80 bin/win/DEBUG/obj/ede_eventDispatcherEngine.o
                0x000000000040c5f0                ede_getIdxExternalEventSource
 .text$ede_getIdxInternalEventSource
                0x000000000040c670       0x70 bin/win/DEBUG/obj/ede_eventDispatcherEngine.o
                0x000000000040c670                ede_getIdxInternalEventSource
 .text$ede_getIdxPort
                0x000000000040c6e0       0x20 bin/win/DEBUG/obj/ede_eventDispatcherEngine.o
                0x000000000040c6e0                ede_getIdxPort
 .text$ede_getKindOfEvent
                0x000000000040c700       0x10 bin/win/DEBUG/obj/ede_eventDispatcherEngine.o
                0x000000000040c700                ede_getKindOfEvent
 .text$ede_getNoSenderPortBlockedEvents
                0x000000000040c710       0x60 bin/win/DEBUG/obj/ede_eventSender.o
                0x000000000040c710                ede_getNoSenderPortBlockedEvents
 .text$ede_getTimerContextData
                0x000000000040c770       0x70 bin/win/DEBUG/obj/ede_eventDispatcherEngine.o
                0x000000000040c770                ede_getTimerContextData
 .text$ede_installCallback
                0x000000000040c7e0       0xf0 bin/win/DEBUG/obj/ede_eventDispatcherEngine.o
                0x000000000040c7e0                ede_installCallback
 .text$ede_killTimer
                0x000000000040c8d0       0x30 bin/win/DEBUG/obj/ede_eventDispatcherEngine.o
                0x000000000040c8d0                ede_killTimer
 .text$ede_postEvent
                0x000000000040c900       0xc0 bin/win/DEBUG/obj/ede_eventSender.o
                0x000000000040c900                ede_postEvent
 .text$ede_postEventToPort
                0x000000000040c9c0      0x140 bin/win/DEBUG/obj/ede_eventSender.o
                0x000000000040c9c0                ede_postEventToPort
 .text$ede_registerExternalEventSource
                0x000000000040cb00      0x180 bin/win/DEBUG/obj/ede_eventDispatcherEngine.o
                0x000000000040cb00                ede_registerExternalEventSource
 .text$ede_registerInternalEventSource
                0x000000000040cc80      0x110 bin/win/DEBUG/obj/ede_eventDispatcherEngine.o
                0x000000000040cc80                ede_registerInternalEventSource
 .text$ede_retriggerSingleShotTimer
                0x000000000040cd90       0xc0 bin/win/DEBUG/obj/ede_eventDispatcherEngine.o
                0x000000000040cd90                ede_retriggerSingleShotTimer
 .text$ede_suspendSingleShotTimer
                0x000000000040ce50       0x90 bin/win/DEBUG/obj/ede_eventDispatcherEngine.o
                0x000000000040ce50                ede_suspendSingleShotTimer
 .text$fil_changeExtension
                0x000000000040cee0      0x120 bin/win/DEBUG/obj/fil_file.o
                0x000000000040cee0                fil_changeExtension
 .text$fil_changeFileName
                0x000000000040d000      0x120 bin/win/DEBUG/obj/fil_file.o
                0x000000000040d000                fil_changeFileName
 .text$fil_copyDir
                0x000000000040d120      0x250 bin/win/DEBUG/obj/fil_file.o
                0x000000000040d120                fil_copyDir
 .text$fil_copyFile
                0x000000000040d370      0x100 bin/win/DEBUG/obj/fil_file.o
                0x000000000040d370                fil_copyFile
 .text$fil_splitPath
                0x000000000040d470      0x1b0 bin/win/DEBUG/obj/fil_file.o
                0x000000000040d470                fil_splitPath
 .text$get      0x000000000040d620       0x50 bin/win/DEBUG/obj/mhn_mapOsFrameHandleToCanIfHandle.o
 .text$getElementAt
                0x000000000040d670       0x60 bin/win/DEBUG/obj/vsq_threadSafeQueueVariableSize.o
 .text$getEventSourceFromContext
                0x000000000040d6d0       0x40 bin/win/DEBUG/obj/ede_eventDispatcherEngine.o
 .text$getIdxByCanId
                0x000000000040d710       0xb0 bin/win/DEBUG/obj/mci_mapBinarySearchCanId.o
 .text$getLinkPtrOfElementAt
                0x000000000040d7c0       0x60 bin/win/DEBUG/obj/vsq_threadSafeQueueVariableSize.o
 .text$getLogFileName
                0x000000000040d820      0x220 bin/win/DEBUG/obj/main.o
 .text$getNbrOfAllocatedBytes
                0x000000000040da40       0x30 bin/win/DEBUG/obj/mem_malloc.o
 .text$getNbrOfAvailableBytes
                0x000000000040da70       0x50 bin/win/DEBUG/obj/mem_malloc.o
 .text$getTimeStr
                0x000000000040dac0       0x80 bin/win/DEBUG/obj/main.o
 .text$getTimerObject
                0x000000000040db40       0x80 bin/win/DEBUG/obj/ede_eventDispatcherEngine.o
 .text$getValue
                0x000000000040dbc0      0x130 bin/win/DEBUG/obj/m16_mapDirectLookupU16.o
 .text$getValue
                0x000000000040dcf0      0x180 bin/win/DEBUG/obj/mci_mapBinarySearchCanId.o
 .text$getValue
                0x000000000040de70       0x30 bin/win/DEBUG/obj/mid_mapIdentity.o
 .text$getValue
                0x000000000040dea0      0x100 bin/win/DEBUG/obj/mpo_mapOffsetOnly.o
 .text$getValue
                0x000000000040dfa0      0x130 bin/win/DEBUG/obj/mu8_mapDirectLookupU8.o
 .text$invokeCallback
                0x000000000040e0d0       0x70 bin/win/DEBUG/obj/ede_eventDispatcherEngine.o
 .text$isExtEventSrc
                0x000000000040e140       0xc0 bin/win/DEBUG/obj/ede_eventDispatcherEngine.o
 .text$isaligned
                0x000000000040e200       0x20 bin/win/DEBUG/obj/vsq_threadSafeQueueVariableSize.o
 .text$logCanFrame
                0x000000000040e220      0x130 bin/win/DEBUG/obj/oss_operatingSystemSimulation.o
 .text$logInternal
                0x000000000040e350      0x340 bin/win/DEBUG/obj/log_logger.o
 .text$log_cloneByReference
                0x000000000040e690       0x60 bin/win/DEBUG/obj/log_logger.o
                0x000000000040e690                log_cloneByReference
 .text$log_close
                0x000000000040e6f0       0x60 bin/win/DEBUG/obj/log_logger.o
                0x000000000040e6f0                log_close
 .text$log_createLogger
                0x000000000040e750      0x100 bin/win/DEBUG/obj/log_logger.o
                0x000000000040e750                log_createLogger
 .text$log_deleteLogger
                0x000000000040e850       0x80 bin/win/DEBUG/obj/log_logger.o
                0x000000000040e850                log_deleteLogger
 .text$log_flush
                0x000000000040e8d0       0x70 bin/win/DEBUG/obj/log_logger.o
                0x000000000040e8d0                log_flush
 .text$log_getLengthOfLineHeader
                0x000000000040e940       0x60 bin/win/DEBUG/obj/log_logger.o
                0x000000000040e940                log_getLengthOfLineHeader
 .text$log_getLineFormat
                0x000000000040e9a0       0x20 bin/win/DEBUG/obj/main.o
 .text$log_getLogLevel
                0x000000000040e9c0       0x20 bin/win/DEBUG/obj/apt_applicationTask.o
 .text$log_getLogLevel
                0x000000000040e9e0       0x20 bin/win/DEBUG/obj/cbk_callbacks.o
 .text$log_getLogLevel
                0x000000000040ea00       0x20 bin/win/DEBUG/obj/log_logger.o
 .text$log_getLogLevel
                0x000000000040ea20       0x20 bin/win/DEBUG/obj/main.o
 .text$log_getLogLevel
                0x000000000040ea40       0x20 bin/win/DEBUG/obj/mhn_mapOsFrameHandleToCanIfHandle.o
 .text$log_getLogLevel
                0x000000000040ea60       0x20 bin/win/DEBUG/obj/oss_operatingSystemSimulation.o
 .text$log_getLogLevel
                0x000000000040ea80       0x20 bin/win/DEBUG/obj/pwr_computeEnginePower.o
 .text$log_getStreams
                0x000000000040eaa0       0x90 bin/win/DEBUG/obj/log_logger.o
                0x000000000040eaa0                log_getStreams
 .text$log_initModule
                0x000000000040eb30       0x70 bin/win/DEBUG/obj/log_logger.o
                0x000000000040eb30                log_initModule
 .text$log_log  0x000000000040eba0       0x70 bin/win/DEBUG/obj/log_logger.o
                0x000000000040eba0                log_log
 .text$log_logLine
                0x000000000040ec10       0xf0 bin/win/DEBUG/obj/log_logger.o
                0x000000000040ec10                log_logLine
 .text$log_parseLineFormat
                0x000000000040ed00       0xc0 bin/win/DEBUG/obj/log_logger.o
                0x000000000040ed00                log_parseLineFormat
 .text$log_parseLogLevel
                0x000000000040edc0      0x110 bin/win/DEBUG/obj/log_logger.o
                0x000000000040edc0                log_parseLogLevel
 .text$log_setEchoToConsole
                0x000000000040eed0       0x20 bin/win/DEBUG/obj/log_logger.o
                0x000000000040eed0                log_setEchoToConsole
 .text$log_setLineFormat
                0x000000000040eef0       0x40 bin/win/DEBUG/obj/log_logger.o
                0x000000000040eef0                log_setLineFormat
 .text$log_setLogLevel
                0x000000000040ef30       0x40 bin/win/DEBUG/obj/log_logger.o
                0x000000000040ef30                log_setLogLevel
 .text$log_shutdownModule
                0x000000000040ef70       0x50 bin/win/DEBUG/obj/log_logger.o
                0x000000000040ef70                log_shutdownModule
 .text$m16_createMapDirectLookupU16
                0x000000000040efc0      0x300 bin/win/DEBUG/obj/m16_mapDirectLookupU16.o
                0x000000000040efc0                m16_createMapDirectLookupU16
 .text$main     0x000000000040f2c0      0x410 bin/win/DEBUG/obj/main.o
                0x000000000040f2c0                main
 .text$mallocChunk
                0x000000000040f6d0      0x100 bin/win/DEBUG/obj/mem_malloc.o
 .text$mci_createMapBinarySearchCanId
                0x000000000040f7d0      0x1b0 bin/win/DEBUG/obj/mci_mapBinarySearchCanId.o
                0x000000000040f7d0                mci_createMapBinarySearchCanId
 .text$mem_createMemoryPool
                0x000000000040f980      0x120 bin/win/DEBUG/obj/mem_malloc.o
                0x000000000040f980                mem_createMemoryPool
 .text$mhn_addMapEntrySenderEvHandleToSenderPortIndex
                0x000000000040faa0       0xb0 bin/win/DEBUG/obj/mhn_mapOsFrameHandleToCanIfHandle.o
                0x000000000040faa0                mhn_addMapEntrySenderEvHandleToSenderPortIndex
 .text$mhn_addOsToEdeHandlePair
                0x000000000040fb50       0x70 bin/win/DEBUG/obj/mhn_mapOsFrameHandleToCanIfHandle.o
                0x000000000040fb50                mhn_addOsToEdeHandlePair
 .text$mhn_assignFrameToDispatcher
                0x000000000040fbc0      0x130 bin/win/DEBUG/obj/mhn_mapOsFrameHandleToCanIfHandle.o
                0x000000000040fbc0                mhn_assignFrameToDispatcher
 .text$mhn_initModule
                0x000000000040fcf0       0x70 bin/win/DEBUG/obj/mhn_mapOsFrameHandleToCanIfHandle.o
                0x000000000040fcf0                mhn_initModule
 .text$mhn_mapOsFrameHandleToEdeIdx
                0x000000000040fd60       0x50 bin/win/DEBUG/obj/mhn_mapOsFrameHandleToCanIfHandle.o
                0x000000000040fd60                mhn_mapOsFrameHandleToEdeIdx
 .text$mhn_mapSenderEvHandleToSenderPortIndex
                0x000000000040fdb0       0xf0 bin/win/DEBUG/obj/mhn_mapOsFrameHandleToCanIfHandle.o
                0x000000000040fdb0                mhn_mapSenderEvHandleToSenderPortIndex
 .text$mid_createMapIdentity
                0x000000000040fea0       0x40 bin/win/DEBUG/obj/mid_mapIdentity.o
                0x000000000040fea0                mid_createMapIdentity
 .text$mpo_createMapOffsetOnly
                0x000000000040fee0      0x140 bin/win/DEBUG/obj/mpo_mapOffsetOnly.o
                0x000000000040fee0                mpo_createMapOffsetOnly
 .text$mu8_createMapDirectLookupU8
                0x0000000000410020      0x300 bin/win/DEBUG/obj/mu8_mapDirectLookupU8.o
                0x0000000000410020                mu8_createMapDirectLookupU8
 .text$onBusOnOff
                0x0000000000410320      0x330 bin/win/DEBUG/obj/apt_applicationTask.o
 .text$onDueCheckEventFrame_PT_1537
                0x0000000000410650       0xf0 bin/win/DEBUG/obj/cbk_callbacks.o
 .text$onDueCheckEventFrame_PT_1538
                0x0000000000410740       0xf0 bin/win/DEBUG/obj/cbk_callbacks.o
 .text$onInitBus
                0x0000000000410830       0xe0 bin/win/DEBUG/obj/apt_applicationTask.o
 .text$onInitFrame_PT_1024
                0x0000000000410910      0x130 bin/win/DEBUG/obj/cbk_callbacks.o
 .text$onInitFrame_PT_1040
                0x0000000000410a40      0x130 bin/win/DEBUG/obj/cbk_callbacks.o
 .text$onInitFrame_PT_1536
                0x0000000000410b70      0x110 bin/win/DEBUG/obj/cbk_callbacks.o
 .text$onInitFrame_PT_1537
                0x0000000000410c80      0x160 bin/win/DEBUG/obj/cbk_callbacks.o
 .text$onInitFrame_PT_1538
                0x0000000000410de0      0x120 bin/win/DEBUG/obj/cbk_callbacks.o
 .text$onInitFrame_PT_2032
                0x0000000000410f00       0xe0 bin/win/DEBUG/obj/cbk_callbacks.o
 .text$onReceiveFrame_PT_1024
                0x0000000000410fe0      0x400 bin/win/DEBUG/obj/cbk_callbacks.o
 .text$onReceiveFrame_PT_1040
                0x00000000004113e0      0x400 bin/win/DEBUG/obj/cbk_callbacks.o
 .text$onReceiveFrame_PT_2032
                0x00000000004117e0      0x3f0 bin/win/DEBUG/obj/cbk_callbacks.o
 .text$onSendFrame_PT_1536
                0x0000000000411bd0      0x1e0 bin/win/DEBUG/obj/cbk_callbacks.o
 .text$onSendFrame_PT_1537
                0x0000000000411db0      0x220 bin/win/DEBUG/obj/cbk_callbacks.o
 .text$onSendFrame_PT_1538
                0x0000000000411fd0      0x1f0 bin/win/DEBUG/obj/cbk_callbacks.o
 .text$onTimeoutFrame_PT_1024
                0x00000000004121c0      0x140 bin/win/DEBUG/obj/cbk_callbacks.o
 .text$onTimeoutFrame_PT_1040
                0x0000000000412300      0x140 bin/win/DEBUG/obj/cbk_callbacks.o
 .text$opt_echoUserInput
                0x0000000000412440      0x1a0 bin/win/DEBUG/obj/opt_getOpt.o
                0x0000000000412440                opt_echoUserInput
 .text$opt_parseCmdLine
                0x00000000004125e0      0x450 bin/win/DEBUG/obj/opt_getOpt.o
                0x00000000004125e0                opt_parseCmdLine
 .text$oss_installIrqHandlerCanBusOff
                0x0000000000412a30       0x30 bin/win/DEBUG/obj/oss_operatingSystemSimulation.o
                0x0000000000412a30                oss_installIrqHandlerCanBusOff
 .text$oss_installIrqHandlerCanRx
                0x0000000000412a60       0x30 bin/win/DEBUG/obj/oss_operatingSystemSimulation.o
                0x0000000000412a60                oss_installIrqHandlerCanRx
 .text$oss_installTask
                0x0000000000412a90       0x80 bin/win/DEBUG/obj/oss_operatingSystemSimulation.o
                0x0000000000412a90                oss_installTask
 .text$oss_kernel
                0x0000000000412b10      0x240 bin/win/DEBUG/obj/oss_operatingSystemSimulation.o
                0x0000000000412b10                oss_kernel
 .text$oss_registerFrameForReception
                0x0000000000412d50       0xd0 bin/win/DEBUG/obj/oss_operatingSystemSimulation.o
                0x0000000000412d50                oss_registerFrameForReception
 .text$oss_registerFrameForSending
                0x0000000000412e20       0x90 bin/win/DEBUG/obj/oss_operatingSystemSimulation.o
                0x0000000000412e20                oss_registerFrameForSending
 .text$oss_restartCanBus
                0x0000000000412eb0      0x240 bin/win/DEBUG/obj/oss_operatingSystemSimulation.o
                0x0000000000412eb0                oss_restartCanBus
 .text$oss_sendCanFrame
                0x00000000004130f0      0x1c0 bin/win/DEBUG/obj/oss_operatingSystemSimulation.o
                0x00000000004130f0                oss_sendCanFrame
 .text$pck_pack_PT_InfoPowerDisplay_1536
                0x00000000004132b0      0x120 bin/win/DEBUG/obj/pck_packCanFrame.o
                0x00000000004132b0                pck_pack_PT_InfoPowerDisplay_1536
 .text$pck_pack_PT_LimitsPowerDisplay_1538
                0x00000000004133d0       0xe0 bin/win/DEBUG/obj/pck_packCanFrame.o
                0x00000000004133d0                pck_pack_PT_LimitsPowerDisplay_1538
 .text$pck_pack_PT_StatusPowerDisplay_1537
                0x00000000004134b0      0x170 bin/win/DEBUG/obj/pck_packCanFrame.o
                0x00000000004134b0                pck_pack_PT_StatusPowerDisplay_1537
 .text$pck_unpack_PT_StateEcu01_1024
                0x0000000000413620       0x80 bin/win/DEBUG/obj/pck_packCanFrame.o
                0x0000000000413620                pck_unpack_PT_StateEcu01_1024
 .text$pck_unpack_PT_StateEcu02_1040
                0x00000000004136a0       0x60 bin/win/DEBUG/obj/pck_packCanFrame.o
                0x00000000004136a0                pck_unpack_PT_StateEcu02_1040
 .text$pck_unpack_PT_UserLimits_2032
                0x0000000000413700      0x110 bin/win/DEBUG/obj/pck_packCanFrame.o
                0x0000000000413700                pck_unpack_PT_UserLimits_2032
 .text$postTailElement
                0x0000000000413810       0x20 bin/win/DEBUG/obj/vsq_threadSafeQueueVariableSize.o
 .text$pwr_checkUserLimits
                0x0000000000413830      0x1a0 bin/win/DEBUG/obj/pwr_computeEnginePower.o
                0x0000000000413830                pwr_checkUserLimits
 .text$pwr_computeEnginePwr
                0x00000000004139d0      0x5d0 bin/win/DEBUG/obj/pwr_computeEnginePower.o
                0x00000000004139d0                pwr_computeEnginePwr
 .text$removeTrailingSlash
                0x0000000000413fa0       0x70 bin/win/DEBUG/obj/fil_file.o
 .text$setHdrOfElementAt
                0x0000000000414010       0xa0 bin/win/DEBUG/obj/vsq_threadSafeQueueVariableSize.o
 .text$setLinkPtrOfElementAt
                0x00000000004140b0       0x80 bin/win/DEBUG/obj/vsq_threadSafeQueueVariableSize.o
 .text$smalloc  0x0000000000414130       0x70 bin/win/DEBUG/obj/fil_file.o
 .text$smalloc  0x00000000004141a0       0x70 bin/win/DEBUG/obj/log_logger.o
 .text$smalloc  0x0000000000414210       0x70 bin/win/DEBUG/obj/main.o
 .text$snprintf
                0x0000000000414280       0x50 bin/win/DEBUG/obj/main.o
 .text$snprintf_patchMinGW64
                0x00000000004142d0       0x70 bin/win/DEBUG/obj/fil_file.o
 .text$snprintf_patchMinGW64
                0x0000000000414340       0x70 bin/win/DEBUG/obj/log_logger.o
 .text$stralloccpy
                0x00000000004143b0       0x50 bin/win/DEBUG/obj/fil_file.o
 .text$stralloccpy
                0x0000000000414400       0x50 bin/win/DEBUG/obj/main.o
 .text$task100us
                0x0000000000414450      0x310 bin/win/DEBUG/obj/oss_operatingSystemSimulation.o
 .text$updateGlobalErrCounters
                0x0000000000414760       0xf0 bin/win/DEBUG/obj/pwr_computeEnginePower.o
 .text$vsnprintf
                0x0000000000414850       0x40 bin/win/DEBUG/obj/fil_file.o
 .text$vsnprintf
                0x0000000000414890       0x40 bin/win/DEBUG/obj/log_logger.o
 .text$vsq_acknReSyncHead
                0x00000000004148d0       0x70 bin/win/DEBUG/obj/vsq_threadSafeQueueVariableSize.o
                0x00000000004148d0                vsq_acknReSyncHead
 .text$vsq_allocTailElement
                0x0000000000414940       0x60 bin/win/DEBUG/obj/vsq_threadSafeQueueVariableSize.o
                0x0000000000414940                vsq_allocTailElement
 .text$vsq_createEventQueue
                0x00000000004149a0      0x120 bin/win/DEBUG/obj/vsq_dispatcherPortInterface.o
                0x00000000004149a0                vsq_createEventQueue
 .text$vsq_createEventQueueHead
                0x0000000000414ac0       0xa0 bin/win/DEBUG/obj/vsq_dispatcherPortInterface.o
                0x0000000000414ac0                vsq_createEventQueueHead
 .text$vsq_createEventQueueTail
                0x0000000000414b60       0xc0 bin/win/DEBUG/obj/vsq_dispatcherPortInterface.o
                0x0000000000414b60                vsq_createEventQueueTail
 .text$vsq_createQueueHead
                0x0000000000414c20       0x70 bin/win/DEBUG/obj/vsq_threadSafeQueueVariableSize.o
                0x0000000000414c20                vsq_createQueueHead
 .text$vsq_createQueueTail
                0x0000000000414c90      0x1d0 bin/win/DEBUG/obj/vsq_threadSafeQueueVariableSize.o
                0x0000000000414c90                vsq_createQueueTail
 .text$vsq_getIsCommunicationBroken
                0x0000000000414e60       0x20 bin/win/DEBUG/obj/vsq_threadSafeQueueVariableSize.o
                0x0000000000414e60                vsq_getIsCommunicationBroken
 .text$vsq_getMaximumQueueUsage
                0x0000000000414e80       0x60 bin/win/DEBUG/obj/vsq_threadSafeQueueVariableSize.o
                0x0000000000414e80                vsq_getMaximumQueueUsage
 .text$vsq_getMaximumQueueUsageInByte
                0x0000000000414ee0       0x50 bin/win/DEBUG/obj/vsq_threadSafeQueueVariableSize.o
                0x0000000000414ee0                vsq_getMaximumQueueUsageInByte
 .text$vsq_getSizeOfQueueHead
                0x0000000000414f30       0x10 bin/win/DEBUG/obj/vsq_threadSafeQueueVariableSize.o
                0x0000000000414f30                vsq_getSizeOfQueueHead
 .text$vsq_getSizeOfQueueTail
                0x0000000000414f40       0x90 bin/win/DEBUG/obj/vsq_threadSafeQueueVariableSize.o
                0x0000000000414f40                vsq_getSizeOfQueueTail
 .text$vsq_linkEventQueueHeadWithTail
                0x0000000000414fd0       0x40 bin/win/DEBUG/obj/vsq_dispatcherPortInterface.o
                0x0000000000414fd0                vsq_linkEventQueueHeadWithTail
 .text$vsq_linkEventQueueTailWithHead
                0x0000000000415010       0x40 bin/win/DEBUG/obj/vsq_dispatcherPortInterface.o
                0x0000000000415010                vsq_linkEventQueueTailWithHead
 .text$vsq_linkQueueHeadWithTail
                0x0000000000415050       0x30 bin/win/DEBUG/obj/vsq_threadSafeQueueVariableSize.o
                0x0000000000415050                vsq_linkQueueHeadWithTail
 .text$vsq_linkQueueTailWithHead
                0x0000000000415080       0x50 bin/win/DEBUG/obj/vsq_threadSafeQueueVariableSize.o
                0x0000000000415080                vsq_linkQueueTailWithHead
 .text$vsq_postTailElement
                0x00000000004150d0       0x60 bin/win/DEBUG/obj/vsq_threadSafeQueueVariableSize.o
                0x00000000004150d0                vsq_postTailElement
 .text$vsq_readFromHead
                0x0000000000415130       0xa0 bin/win/DEBUG/obj/vsq_threadSafeQueueVariableSize.o
                0x0000000000415130                vsq_readFromHead
 .text$vsq_writeToTail
                0x00000000004151d0       0x70 bin/win/DEBUG/obj/vsq_threadSafeQueueVariableSize.o
                0x00000000004151d0                vsq_writeToTail
 *(.text.*)
 .text.unlikely
                0x0000000000415240       0x70 c:/ProgramFiles/mingw-w64-x86_64-8.1.0-posix-seh-rt_v6-rev0/mingw64/bin/../lib/gcc/x86_64-w64-mingw32/8.1.0/../../../../x86_64-w64-mingw32/lib/../lib/libmingw32.a(lib64_libmingw32_a-pseudo-reloc.o)
 .text.startup  0x00000000004152b0       0x10 c:/ProgramFiles/mingw-w64-x86_64-8.1.0-posix-seh-rt_v6-rev0/mingw64/bin/../lib/gcc/x86_64-w64-mingw32/8.1.0/crtend.o
 *(.gnu.linkonce.t.*)
 *(.glue_7t)
 *(.glue_7)
                0x00000000004152c0                . = ALIGN (0x8)
                0x00000000004152c0                ___CTOR_LIST__ = .
                0x00000000004152c0                __CTOR_LIST__ = .
                0x00000000004152c0        0x4 LONG 0xffffffffffffffff
                0x00000000004152c4        0x4 LONG 0xffffffffffffffff
 *(.ctors)
 *(.ctor)
 *(SORT_BY_NAME(.ctors.*))
 .ctors.65535   0x00000000004152c8        0x8 c:/ProgramFiles/mingw-w64-x86_64-8.1.0-posix-seh-rt_v6-rev0/mingw64/bin/../lib/gcc/x86_64-w64-mingw32/8.1.0/crtend.o
                0x00000000004152d0        0x4 LONG 0x0
                0x00000000004152d4        0x4 LONG 0x0
                0x00000000004152d8                ___DTOR_LIST__ = .
                0x00000000004152d8                __DTOR_LIST__ = .
                0x00000000004152d8        0x4 LONG 0xffffffffffffffff
                0x00000000004152dc        0x4 LONG 0xffffffffffffffff
 *(.dtors)
 *(.dtor)
 *(SORT_BY_NAME(.dtors.*))
                0x00000000004152e0        0x4 LONG 0x0
                0x00000000004152e4        0x4 LONG 0x0
 *(.fini)
 *(.gcc_exc)
                [!provide]                        PROVIDE (etext = .)
 *(.gcc_except_table)

.data           0x0000000000416000     0x5600
                0x0000000000416000                __data_start__ = .
 *(.data)
 .data          0x0000000000416000       0x10 c:/ProgramFiles/mingw-w64-x86_64-8.1.0-posix-seh-rt_v6-rev0/mingw64/bin/../lib/gcc/x86_64-w64-mingw32/8.1.0/../../../../x86_64-w64-mingw32/lib/../lib/crt2.o
                0x0000000000416000                __mingw_winmain_nShowCmd
 .data          0x0000000000416010        0x0 c:/ProgramFiles/mingw-w64-x86_64-8.1.0-posix-seh-rt_v6-rev0/mingw64/bin/../lib/gcc/x86_64-w64-mingw32/8.1.0/crtbegin.o
 .data          0x0000000000416010        0x0 bin/win/DEBUG/obj/apt_applicationTask.o
 .data          0x0000000000416010        0x0 bin/win/DEBUG/obj/cbk_callbacks.o
 .data          0x0000000000416010        0x0 bin/win/DEBUG/obj/chk_checksum.o
 .data          0x0000000000416010        0x0 bin/win/DEBUG/obj/ede_eventDispatcherEngine.o
 .data          0x0000000000416010        0x0 bin/win/DEBUG/obj/ede_eventSender.o
 .data          0x0000000000416010        0x0 bin/win/DEBUG/obj/fil_file.o
 .data          0x0000000000416010        0x0 bin/win/DEBUG/obj/log_logger.o
 .data          0x0000000000416010        0x0 bin/win/DEBUG/obj/m16_mapDirectLookupU16.o
 .data          0x0000000000416010        0x0 bin/win/DEBUG/obj/main.o
 .data          0x0000000000416010        0x0 bin/win/DEBUG/obj/mci_mapBinarySearchCanId.o
 .data          0x0000000000416010        0x0 bin/win/DEBUG/obj/mem_malloc.o
 .data          0x0000000000416010        0x0 bin/win/DEBUG/obj/mhn_mapOsFrameHandleToCanIfHandle.o
 .data          0x0000000000416010        0x0 bin/win/DEBUG/obj/mid_mapIdentity.o
 .data          0x0000000000416010        0x0 bin/win/DEBUG/obj/mpo_mapOffsetOnly.o
 .data          0x0000000000416010        0x0 bin/win/DEBUG/obj/mu8_mapDirectLookupU8.o
 *fill*         0x0000000000416010       0x10 
 .data          0x0000000000416020      0x120 bin/win/DEBUG/obj/opt_getOpt.o
 .data          0x0000000000416140        0x0 bin/win/DEBUG/obj/oss_operatingSystemSimulation.o
 .data          0x0000000000416140        0x0 bin/win/DEBUG/obj/pck_packCanFrame.o
 .data          0x0000000000416140        0x0 bin/win/DEBUG/obj/pwr_computeEnginePower.o
 .data          0x0000000000416140        0x0 bin/win/DEBUG/obj/vsq_dispatcherPortInterface.o
 .data          0x0000000000416140        0x0 bin/win/DEBUG/obj/vsq_threadSafeQueueVariableSize.o
 .data          0x0000000000416140       0x10 c:/ProgramFiles/mingw-w64-x86_64-8.1.0-posix-seh-rt_v6-rev0/mingw64/bin/../lib/gcc/x86_64-w64-mingw32/8.1.0/../../../../x86_64-w64-mingw32/lib/../lib/libmingw32.a(lib64_libmingw32_a-gccmain.o)
 .data          0x0000000000416150       0x10 c:/ProgramFiles/mingw-w64-x86_64-8.1.0-posix-seh-rt_v6-rev0/mingw64/bin/../lib/gcc/x86_64-w64-mingw32/8.1.0/../../../../x86_64-w64-mingw32/lib/../lib/libmingw32.a(lib64_libmingw32_a-natstart.o)
                0x0000000000416150                __native_vcclrit_reason
                0x0000000000416154                __native_dllmain_reason
 .data          0x0000000000416160       0x10 c:/ProgramFiles/mingw-w64-x86_64-8.1.0-posix-seh-rt_v6-rev0/mingw64/bin/../lib/gcc/x86_64-w64-mingw32/8.1.0/../../../../x86_64-w64-mingw32/lib/../lib/libmingw32.a(lib64_libmingw32_a-wildcard.o)
                0x0000000000416160                _dowildcard
 .data          0x0000000000416170       0x10 c:/ProgramFiles/mingw-w64-x86_64-8.1.0-posix-seh-rt_v6-rev0/mingw64/bin/../lib/gcc/x86_64-w64-mingw32/8.1.0/../../../../x86_64-w64-mingw32/lib/../lib/libmingw32.a(lib64_libmingw32_a-charmax.o)
                0x0000000000416170                _charmax
 .data          0x0000000000416180        0x0 c:/ProgramFiles/mingw-w64-x86_64-8.1.0-posix-seh-rt_v6-rev0/mingw64/bin/../lib/gcc/x86_64-w64-mingw32/8.1.0/../../../../x86_64-w64-mingw32/lib/../lib/libmingw32.a(lib64_libmingw32_a-dllargv.o)
 .data          0x0000000000416180        0x0 c:/ProgramFiles/mingw-w64-x86_64-8.1.0-posix-seh-rt_v6-rev0/mingw64/bin/../lib/gcc/x86_64-w64-mingw32/8.1.0/../../../../x86_64-w64-mingw32/lib/../lib/libmingw32.a(lib64_libmingw32_a-gs_support.o)
 .data          0x0000000000416180        0x0 c:/ProgramFiles/mingw-w64-x86_64-8.1.0-posix-seh-rt_v6-rev0/mingw64/bin/../lib/gcc/x86_64-w64-mingw32/8.1.0/../../../../x86_64-w64-mingw32/lib/../lib/libmingw32.a(lib64_libmingw32_a-_newmode.o)
 .data          0x0000000000416180        0x0 c:/ProgramFiles/mingw-w64-x86_64-8.1.0-posix-seh-rt_v6-rev0/mingw64/bin/../lib/gcc/x86_64-w64-mingw32/8.1.0/../../../../x86_64-w64-mingw32/lib/../lib/libmingw32.a(lib64_libmingw32_a-tlssup.o)
 .data          0x0000000000416180        0x0 c:/ProgramFiles/mingw-w64-x86_64-8.1.0-posix-seh-rt_v6-rev0/mingw64/bin/../lib/gcc/x86_64-w64-mingw32/8.1.0/../../../../x86_64-w64-mingw32/lib/../lib/libmingw32.a(lib64_libmingw32_a-cinitexe.o)
 .data          0x0000000000416180        0x0 c:/ProgramFiles/mingw-w64-x86_64-8.1.0-posix-seh-rt_v6-rev0/mingw64/bin/../lib/gcc/x86_64-w64-mingw32/8.1.0/../../../../x86_64-w64-mingw32/lib/../lib/libmingw32.a(lib64_libmingw32_a-merr.o)
 .data          0x0000000000416180        0x0 c:/ProgramFiles/mingw-w64-x86_64-8.1.0-posix-seh-rt_v6-rev0/mingw64/bin/../lib/gcc/x86_64-w64-mingw32/8.1.0/../../../../x86_64-w64-mingw32/lib/../lib/libmingw32.a(lib64_libmingw32_a-CRT_fp10.o)
 .data          0x0000000000416180        0x0 c:/ProgramFiles/mingw-w64-x86_64-8.1.0-posix-seh-rt_v6-rev0/mingw64/bin/../lib/gcc/x86_64-w64-mingw32/8.1.0/../../../../x86_64-w64-mingw32/lib/../lib/libmingw32.a(lib64_libmingw32_a-mingw_helpers.o)
 .data          0x0000000000416180        0x0 c:/ProgramFiles/mingw-w64-x86_64-8.1.0-posix-seh-rt_v6-rev0/mingw64/bin/../lib/gcc/x86_64-w64-mingw32/8.1.0/../../../../x86_64-w64-mingw32/lib/../lib/libmingw32.a(lib64_libmingw32_a-pseudo-reloc.o)
 .data          0x0000000000416180        0x0 c:/ProgramFiles/mingw-w64-x86_64-8.1.0-posix-seh-rt_v6-rev0/mingw64/bin/../lib/gcc/x86_64-w64-mingw32/8.1.0/../../../../x86_64-w64-mingw32/lib/../lib/libmingw32.a(lib64_libmingw32_a-xtxtmode.o)
 .data          0x0000000000416180        0x0 c:/ProgramFiles/mingw-w64-x86_64-8.1.0-posix-seh-rt_v6-rev0/mingw64/bin/../lib/gcc/x86_64-w64-mingw32/8.1.0/../../../../x86_64-w64-mingw32/lib/../lib/libmingw32.a(lib64_libmingw32_a-crt_handler.o)
 .data          0x0000000000416180        0x0 c:/ProgramFiles/mingw-w64-x86_64-8.1.0-posix-seh-rt_v6-rev0/mingw64/bin/../lib/gcc/x86_64-w64-mingw32/8.1.0/../../../../x86_64-w64-mingw32/lib/../lib/libmingw32.a(lib64_libmingw32_a-tlsthrd.o)
 .data          0x0000000000416180       0x10 c:/ProgramFiles/mingw-w64-x86_64-8.1.0-posix-seh-rt_v6-rev0/mingw64/bin/../lib/gcc/x86_64-w64-mingw32/8.1.0/../../../../x86_64-w64-mingw32/lib/../lib/libmingw32.a(lib64_libmingw32_a-tlsmcrt.o)
                0x0000000000416180                _CRT_MT
 .data          0x0000000000416190        0x0 c:/ProgramFiles/mingw-w64-x86_64-8.1.0-posix-seh-rt_v6-rev0/mingw64/bin/../lib/gcc/x86_64-w64-mingw32/8.1.0/../../../../x86_64-w64-mingw32/lib/../lib/libmingw32.a(lib64_libmingw32_a-pseudo-reloc-list.o)
 .data          0x0000000000416190        0x0 c:/ProgramFiles/mingw-w64-x86_64-8.1.0-posix-seh-rt_v6-rev0/mingw64/bin/../lib/gcc/x86_64-w64-mingw32/8.1.0/../../../../x86_64-w64-mingw32/lib/../lib/libmingw32.a(lib64_libmingw32_a-pesect.o)
 .data          0x0000000000416190        0x0 c:/ProgramFiles/mingw-w64-x86_64-8.1.0-posix-seh-rt_v6-rev0/mingw64/bin/../lib/gcc/x86_64-w64-mingw32/8.1.0/libgcc.a(_chkstk_ms.o)
 .data          0x0000000000416190        0x0 c:/ProgramFiles/mingw-w64-x86_64-8.1.0-posix-seh-rt_v6-rev0/mingw64/bin/../lib/gcc/x86_64-w64-mingw32/8.1.0/libgcc.a(_ctors.o)
 .data          0x0000000000416190       0x20 c:/ProgramFiles/mingw-w64-x86_64-8.1.0-posix-seh-rt_v6-rev0/mingw64/bin/../lib/gcc/x86_64-w64-mingw32/8.1.0/../../../../x86_64-w64-mingw32/lib/../lib/libmingwex.a(lib64_libmingwex_a-strtodnrp.o)
 .data          0x00000000004161b0        0x0 c:/ProgramFiles/mingw-w64-x86_64-8.1.0-posix-seh-rt_v6-rev0/mingw64/bin/../lib/gcc/x86_64-w64-mingw32/8.1.0/../../../../x86_64-w64-mingw32/lib/../lib/libmingwex.a(lib64_libmingwex_a-dirent.o)
 .data          0x00000000004161b0       0x30 c:/ProgramFiles/mingw-w64-x86_64-8.1.0-posix-seh-rt_v6-rev0/mingw64/bin/../lib/gcc/x86_64-w64-mingw32/8.1.0/../../../../x86_64-w64-mingw32/lib/../lib/libmingwex.a(lib64_libmingwex_a-getopt.o)
                0x00000000004161c8                optopt
                0x00000000004161cc                optind
                0x00000000004161d0                opterr
 .data          0x00000000004161e0       0x10 c:/ProgramFiles/mingw-w64-x86_64-8.1.0-posix-seh-rt_v6-rev0/mingw64/bin/../lib/gcc/x86_64-w64-mingw32/8.1.0/../../../../x86_64-w64-mingw32/lib/../lib/libmingwex.a(lib64_libmingwex_a-mingw_matherr.o)
                0x00000000004161e0                _MINGW_INSTALL_DEBUG_MATHERR
 .data          0x00000000004161f0        0x0 c:/ProgramFiles/mingw-w64-x86_64-8.1.0-posix-seh-rt_v6-rev0/mingw64/bin/../lib/gcc/x86_64-w64-mingw32/8.1.0/../../../../x86_64-w64-mingw32/lib/../lib/libmingwex.a(lib64_libmingwex_a-wassert.o)
 .data          0x00000000004161f0        0x0 c:/ProgramFiles/mingw-w64-x86_64-8.1.0-posix-seh-rt_v6-rev0/mingw64/bin/../lib/gcc/x86_64-w64-mingw32/8.1.0/../../../../x86_64-w64-mingw32/lib/../lib/libmingwex.a(lib64_libmingwex_a-vsnprintf.o)
 .data          0x00000000004161f0        0x0 c:/ProgramFiles/mingw-w64-x86_64-8.1.0-posix-seh-rt_v6-rev0/mingw64/bin/../lib/gcc/x86_64-w64-mingw32/8.1.0/../../../../x86_64-w64-mingw32/lib/../lib/libmingwex.a(lib64_libmingwex_a-strtodg.o)
 .data          0x00000000004161f0        0x0 c:/ProgramFiles/mingw-w64-x86_64-8.1.0-posix-seh-rt_v6-rev0/mingw64/bin/../lib/gcc/x86_64-w64-mingw32/8.1.0/../../../../x86_64-w64-mingw32/lib/../lib/libmingwex.a(lib64_libmingwex_a-sum.o)
 .data          0x00000000004161f0        0x0 c:/ProgramFiles/mingw-w64-x86_64-8.1.0-posix-seh-rt_v6-rev0/mingw64/bin/../lib/gcc/x86_64-w64-mingw32/8.1.0/../../../../x86_64-w64-mingw32/lib/../lib/libmingwex.a(lib64_libmingwex_a-gethex.o)
 .data          0x00000000004161f0        0x0 c:/ProgramFiles/mingw-w64-x86_64-8.1.0-posix-seh-rt_v6-rev0/mingw64/bin/../lib/gcc/x86_64-w64-mingw32/8.1.0/../../../../x86_64-w64-mingw32/lib/../lib/libmingwex.a(lib64_libmingwex_a-gmisc.o)
 .data          0x00000000004161f0        0x0 c:/ProgramFiles/mingw-w64-x86_64-8.1.0-posix-seh-rt_v6-rev0/mingw64/bin/../lib/gcc/x86_64-w64-mingw32/8.1.0/../../../../x86_64-w64-mingw32/lib/../lib/libmingwex.a(lib64_libmingwex_a-hd_init.o)
 .data          0x00000000004161f0        0x0 c:/ProgramFiles/mingw-w64-x86_64-8.1.0-posix-seh-rt_v6-rev0/mingw64/bin/../lib/gcc/x86_64-w64-mingw32/8.1.0/../../../../x86_64-w64-mingw32/lib/../lib/libmingwex.a(lib64_libmingwex_a-hexnan.o)
 .data          0x00000000004161f0       0x10 c:/ProgramFiles/mingw-w64-x86_64-8.1.0-posix-seh-rt_v6-rev0/mingw64/bin/../lib/gcc/x86_64-w64-mingw32/8.1.0/../../../../x86_64-w64-mingw32/lib/../lib/libmingwex.a(lib64_libmingwex_a-misc.o)
 .data          0x0000000000416200        0x0 c:/ProgramFiles/mingw-w64-x86_64-8.1.0-posix-seh-rt_v6-rev0/mingw64/bin/../lib/gcc/x86_64-w64-mingw32/8.1.0/../../../../x86_64-w64-mingw32/lib/../lib/libmingwex.a(lib64_libmingwex_a-smisc.o)
 .data          0x0000000000416200        0x0 c:/ProgramFiles/mingw-w64-x86_64-8.1.0-posix-seh-rt_v6-rev0/mingw64/bin/../lib/gcc/x86_64-w64-mingw32/8.1.0/../../../../x86_64-w64-mingw32/lib/../lib/libmsvcrt.a(duags01260.o)
 .data          0x0000000000416200        0x0 c:/ProgramFiles/mingw-w64-x86_64-8.1.0-posix-seh-rt_v6-rev0/mingw64/bin/../lib/gcc/x86_64-w64-mingw32/8.1.0/../../../../x86_64-w64-mingw32/lib/../lib/libmsvcrt.a(duags01243.o)
 .data          0x0000000000416200        0x0 c:/ProgramFiles/mingw-w64-x86_64-8.1.0-posix-seh-rt_v6-rev0/mingw64/bin/../lib/gcc/x86_64-w64-mingw32/8.1.0/../../../../x86_64-w64-mingw32/lib/../lib/libmsvcrt.a(duags01214.o)
 .data          0x0000000000416200        0x0 c:/ProgramFiles/mingw-w64-x86_64-8.1.0-posix-seh-rt_v6-rev0/mingw64/bin/../lib/gcc/x86_64-w64-mingw32/8.1.0/../../../../x86_64-w64-mingw32/lib/../lib/libmsvcrt.a(duags01212.o)
 .data          0x0000000000416200        0x0 c:/ProgramFiles/mingw-w64-x86_64-8.1.0-posix-seh-rt_v6-rev0/mingw64/bin/../lib/gcc/x86_64-w64-mingw32/8.1.0/../../../../x86_64-w64-mingw32/lib/../lib/libmsvcrt.a(duags01211.o)
 .data          0x0000000000416200        0x0 c:/ProgramFiles/mingw-w64-x86_64-8.1.0-posix-seh-rt_v6-rev0/mingw64/bin/../lib/gcc/x86_64-w64-mingw32/8.1.0/../../../../x86_64-w64-mingw32/lib/../lib/libmsvcrt.a(duags01209.o)
 .data          0x0000000000416200        0x0 c:/ProgramFiles/mingw-w64-x86_64-8.1.0-posix-seh-rt_v6-rev0/mingw64/bin/../lib/gcc/x86_64-w64-mingw32/8.1.0/../../../../x86_64-w64-mingw32/lib/../lib/libmsvcrt.a(duags01208.o)
 .data          0x0000000000416200        0x0 c:/ProgramFiles/mingw-w64-x86_64-8.1.0-posix-seh-rt_v6-rev0/mingw64/bin/../lib/gcc/x86_64-w64-mingw32/8.1.0/../../../../x86_64-w64-mingw32/lib/../lib/libmsvcrt.a(duags01203.o)
 .data          0x0000000000416200        0x0 c:/ProgramFiles/mingw-w64-x86_64-8.1.0-posix-seh-rt_v6-rev0/mingw64/bin/../lib/gcc/x86_64-w64-mingw32/8.1.0/../../../../x86_64-w64-mingw32/lib/../lib/libmsvcrt.a(duags01201.o)
 .data          0x0000000000416200        0x0 c:/ProgramFiles/mingw-w64-x86_64-8.1.0-posix-seh-rt_v6-rev0/mingw64/bin/../lib/gcc/x86_64-w64-mingw32/8.1.0/../../../../x86_64-w64-mingw32/lib/../lib/libmsvcrt.a(duags01200.o)
 .data          0x0000000000416200        0x0 c:/ProgramFiles/mingw-w64-x86_64-8.1.0-posix-seh-rt_v6-rev0/mingw64/bin/../lib/gcc/x86_64-w64-mingw32/8.1.0/../../../../x86_64-w64-mingw32/lib/../lib/libmsvcrt.a(duags01187.o)
 .data          0x0000000000416200        0x0 c:/ProgramFiles/mingw-w64-x86_64-8.1.0-posix-seh-rt_v6-rev0/mingw64/bin/../lib/gcc/x86_64-w64-mingw32/8.1.0/../../../../x86_64-w64-mingw32/lib/../lib/libmsvcrt.a(duags01176.o)
 .data          0x0000000000416200        0x0 c:/ProgramFiles/mingw-w64-x86_64-8.1.0-posix-seh-rt_v6-rev0/mingw64/bin/../lib/gcc/x86_64-w64-mingw32/8.1.0/../../../../x86_64-w64-mingw32/lib/../lib/libmsvcrt.a(duags01175.o)
 .data          0x0000000000416200        0x0 c:/ProgramFiles/mingw-w64-x86_64-8.1.0-posix-seh-rt_v6-rev0/mingw64/bin/../lib/gcc/x86_64-w64-mingw32/8.1.0/../../../../x86_64-w64-mingw32/lib/../lib/libmsvcrt.a(duags01170.o)
 .data          0x0000000000416200        0x0 c:/ProgramFiles/mingw-w64-x86_64-8.1.0-posix-seh-rt_v6-rev0/mingw64/bin/../lib/gcc/x86_64-w64-mingw32/8.1.0/../../../../x86_64-w64-mingw32/lib/../lib/libmsvcrt.a(duags01159.o)
 .data          0x0000000000416200        0x0 c:/ProgramFiles/mingw-w64-x86_64-8.1.0-posix-seh-rt_v6-rev0/mingw64/bin/../lib/gcc/x86_64-w64-mingw32/8.1.0/../../../../x86_64-w64-mingw32/lib/../lib/libmsvcrt.a(duags01157.o)
 .data          0x0000000000416200        0x0 c:/ProgramFiles/mingw-w64-x86_64-8.1.0-posix-seh-rt_v6-rev0/mingw64/bin/../lib/gcc/x86_64-w64-mingw32/8.1.0/../../../../x86_64-w64-mingw32/lib/../lib/libmsvcrt.a(duags01156.o)
 .data          0x0000000000416200        0x0 c:/ProgramFiles/mingw-w64-x86_64-8.1.0-posix-seh-rt_v6-rev0/mingw64/bin/../lib/gcc/x86_64-w64-mingw32/8.1.0/../../../../x86_64-w64-mingw32/lib/../lib/libmsvcrt.a(duags01149.o)
 .data          0x0000000000416200        0x0 c:/ProgramFiles/mingw-w64-x86_64-8.1.0-posix-seh-rt_v6-rev0/mingw64/bin/../lib/gcc/x86_64-w64-mingw32/8.1.0/../../../../x86_64-w64-mingw32/lib/../lib/libmsvcrt.a(duags01142.o)
 .data          0x0000000000416200        0x0 c:/ProgramFiles/mingw-w64-x86_64-8.1.0-posix-seh-rt_v6-rev0/mingw64/bin/../lib/gcc/x86_64-w64-mingw32/8.1.0/../../../../x86_64-w64-mingw32/lib/../lib/libmsvcrt.a(duags01120.o)
 .data          0x0000000000416200        0x0 c:/ProgramFiles/mingw-w64-x86_64-8.1.0-posix-seh-rt_v6-rev0/mingw64/bin/../lib/gcc/x86_64-w64-mingw32/8.1.0/../../../../x86_64-w64-mingw32/lib/../lib/libmsvcrt.a(duags01106.o)
 .data          0x0000000000416200        0x0 c:/ProgramFiles/mingw-w64-x86_64-8.1.0-posix-seh-rt_v6-rev0/mingw64/bin/../lib/gcc/x86_64-w64-mingw32/8.1.0/../../../../x86_64-w64-mingw32/lib/../lib/libmsvcrt.a(duags01101.o)
 .data          0x0000000000416200        0x0 c:/ProgramFiles/mingw-w64-x86_64-8.1.0-posix-seh-rt_v6-rev0/mingw64/bin/../lib/gcc/x86_64-w64-mingw32/8.1.0/../../../../x86_64-w64-mingw32/lib/../lib/libmsvcrt.a(duags01099.o)
 .data          0x0000000000416200        0x0 c:/ProgramFiles/mingw-w64-x86_64-8.1.0-posix-seh-rt_v6-rev0/mingw64/bin/../lib/gcc/x86_64-w64-mingw32/8.1.0/../../../../x86_64-w64-mingw32/lib/../lib/libmsvcrt.a(duags01089.o)
 .data          0x0000000000416200        0x0 c:/ProgramFiles/mingw-w64-x86_64-8.1.0-posix-seh-rt_v6-rev0/mingw64/bin/../lib/gcc/x86_64-w64-mingw32/8.1.0/../../../../x86_64-w64-mingw32/lib/../lib/libmsvcrt.a(duags01085.o)
 .data          0x0000000000416200        0x0 c:/ProgramFiles/mingw-w64-x86_64-8.1.0-posix-seh-rt_v6-rev0/mingw64/bin/../lib/gcc/x86_64-w64-mingw32/8.1.0/../../../../x86_64-w64-mingw32/lib/../lib/libmsvcrt.a(duags01084.o)
 .data          0x0000000000416200        0x0 c:/ProgramFiles/mingw-w64-x86_64-8.1.0-posix-seh-rt_v6-rev0/mingw64/bin/../lib/gcc/x86_64-w64-mingw32/8.1.0/../../../../x86_64-w64-mingw32/lib/../lib/libmsvcrt.a(duags01082.o)
 .data          0x0000000000416200        0x0 c:/ProgramFiles/mingw-w64-x86_64-8.1.0-posix-seh-rt_v6-rev0/mingw64/bin/../lib/gcc/x86_64-w64-mingw32/8.1.0/../../../../x86_64-w64-mingw32/lib/../lib/libmsvcrt.a(duags01080.o)
 .data          0x0000000000416200        0x0 c:/ProgramFiles/mingw-w64-x86_64-8.1.0-posix-seh-rt_v6-rev0/mingw64/bin/../lib/gcc/x86_64-w64-mingw32/8.1.0/../../../../x86_64-w64-mingw32/lib/../lib/libmsvcrt.a(duags01071.o)
 .data          0x0000000000416200        0x0 c:/ProgramFiles/mingw-w64-x86_64-8.1.0-posix-seh-rt_v6-rev0/mingw64/bin/../lib/gcc/x86_64-w64-mingw32/8.1.0/../../../../x86_64-w64-mingw32/lib/../lib/libmsvcrt.a(duags01070.o)
 .data          0x0000000000416200        0x0 c:/ProgramFiles/mingw-w64-x86_64-8.1.0-posix-seh-rt_v6-rev0/mingw64/bin/../lib/gcc/x86_64-w64-mingw32/8.1.0/../../../../x86_64-w64-mingw32/lib/../lib/libmsvcrt.a(duags01069.o)
 .data          0x0000000000416200        0x0 c:/ProgramFiles/mingw-w64-x86_64-8.1.0-posix-seh-rt_v6-rev0/mingw64/bin/../lib/gcc/x86_64-w64-mingw32/8.1.0/../../../../x86_64-w64-mingw32/lib/../lib/libmsvcrt.a(duags01067.o)
 .data          0x0000000000416200        0x0 c:/ProgramFiles/mingw-w64-x86_64-8.1.0-posix-seh-rt_v6-rev0/mingw64/bin/../lib/gcc/x86_64-w64-mingw32/8.1.0/../../../../x86_64-w64-mingw32/lib/../lib/libmsvcrt.a(duags01063.o)
 .data          0x0000000000416200        0x0 c:/ProgramFiles/mingw-w64-x86_64-8.1.0-posix-seh-rt_v6-rev0/mingw64/bin/../lib/gcc/x86_64-w64-mingw32/8.1.0/../../../../x86_64-w64-mingw32/lib/../lib/libmsvcrt.a(duags01060.o)
 .data          0x0000000000416200        0x0 c:/ProgramFiles/mingw-w64-x86_64-8.1.0-posix-seh-rt_v6-rev0/mingw64/bin/../lib/gcc/x86_64-w64-mingw32/8.1.0/../../../../x86_64-w64-mingw32/lib/../lib/libmsvcrt.a(duags01055.o)
 .data          0x0000000000416200        0x0 c:/ProgramFiles/mingw-w64-x86_64-8.1.0-posix-seh-rt_v6-rev0/mingw64/bin/../lib/gcc/x86_64-w64-mingw32/8.1.0/../../../../x86_64-w64-mingw32/lib/../lib/libmsvcrt.a(duags01050.o)
 .data          0x0000000000416200        0x0 c:/ProgramFiles/mingw-w64-x86_64-8.1.0-posix-seh-rt_v6-rev0/mingw64/bin/../lib/gcc/x86_64-w64-mingw32/8.1.0/../../../../x86_64-w64-mingw32/lib/../lib/libmsvcrt.a(duags01048.o)
 .data          0x0000000000416200        0x0 c:/ProgramFiles/mingw-w64-x86_64-8.1.0-posix-seh-rt_v6-rev0/mingw64/bin/../lib/gcc/x86_64-w64-mingw32/8.1.0/../../../../x86_64-w64-mingw32/lib/../lib/libmsvcrt.a(duags01032.o)
 .data          0x0000000000416200        0x0 c:/ProgramFiles/mingw-w64-x86_64-8.1.0-posix-seh-rt_v6-rev0/mingw64/bin/../lib/gcc/x86_64-w64-mingw32/8.1.0/../../../../x86_64-w64-mingw32/lib/../lib/libmsvcrt.a(duags00973.o)
 .data          0x0000000000416200        0x0 c:/ProgramFiles/mingw-w64-x86_64-8.1.0-posix-seh-rt_v6-rev0/mingw64/bin/../lib/gcc/x86_64-w64-mingw32/8.1.0/../../../../x86_64-w64-mingw32/lib/../lib/libmsvcrt.a(duags00852.o)
 .data          0x0000000000416200        0x0 c:/ProgramFiles/mingw-w64-x86_64-8.1.0-posix-seh-rt_v6-rev0/mingw64/bin/../lib/gcc/x86_64-w64-mingw32/8.1.0/../../../../x86_64-w64-mingw32/lib/../lib/libmsvcrt.a(duags00735.o)
 .data          0x0000000000416200        0x0 c:/ProgramFiles/mingw-w64-x86_64-8.1.0-posix-seh-rt_v6-rev0/mingw64/bin/../lib/gcc/x86_64-w64-mingw32/8.1.0/../../../../x86_64-w64-mingw32/lib/../lib/libmsvcrt.a(duags00689.o)
 .data          0x0000000000416200        0x0 c:/ProgramFiles/mingw-w64-x86_64-8.1.0-posix-seh-rt_v6-rev0/mingw64/bin/../lib/gcc/x86_64-w64-mingw32/8.1.0/../../../../x86_64-w64-mingw32/lib/../lib/libmsvcrt.a(duags00614.o)
 .data          0x0000000000416200        0x0 c:/ProgramFiles/mingw-w64-x86_64-8.1.0-posix-seh-rt_v6-rev0/mingw64/bin/../lib/gcc/x86_64-w64-mingw32/8.1.0/../../../../x86_64-w64-mingw32/lib/../lib/libmsvcrt.a(duags00603.o)
 .data          0x0000000000416200        0x0 c:/ProgramFiles/mingw-w64-x86_64-8.1.0-posix-seh-rt_v6-rev0/mingw64/bin/../lib/gcc/x86_64-w64-mingw32/8.1.0/../../../../x86_64-w64-mingw32/lib/../lib/libmsvcrt.a(duags00332.o)
 .data          0x0000000000416200        0x0 c:/ProgramFiles/mingw-w64-x86_64-8.1.0-posix-seh-rt_v6-rev0/mingw64/bin/../lib/gcc/x86_64-w64-mingw32/8.1.0/../../../../x86_64-w64-mingw32/lib/../lib/libmsvcrt.a(duags00278.o)
 .data          0x0000000000416200        0x0 c:/ProgramFiles/mingw-w64-x86_64-8.1.0-posix-seh-rt_v6-rev0/mingw64/bin/../lib/gcc/x86_64-w64-mingw32/8.1.0/../../../../x86_64-w64-mingw32/lib/../lib/libmsvcrt.a(duags00245.o)
 .data          0x0000000000416200        0x0 c:/ProgramFiles/mingw-w64-x86_64-8.1.0-posix-seh-rt_v6-rev0/mingw64/bin/../lib/gcc/x86_64-w64-mingw32/8.1.0/../../../../x86_64-w64-mingw32/lib/../lib/libmsvcrt.a(duags00240.o)
 .data          0x0000000000416200        0x0 c:/ProgramFiles/mingw-w64-x86_64-8.1.0-posix-seh-rt_v6-rev0/mingw64/bin/../lib/gcc/x86_64-w64-mingw32/8.1.0/../../../../x86_64-w64-mingw32/lib/../lib/libmsvcrt.a(duags00237.o)
 .data          0x0000000000416200        0x0 c:/ProgramFiles/mingw-w64-x86_64-8.1.0-posix-seh-rt_v6-rev0/mingw64/bin/../lib/gcc/x86_64-w64-mingw32/8.1.0/../../../../x86_64-w64-mingw32/lib/../lib/libmsvcrt.a(duags00218.o)
 .data          0x0000000000416200        0x0 c:/ProgramFiles/mingw-w64-x86_64-8.1.0-posix-seh-rt_v6-rev0/mingw64/bin/../lib/gcc/x86_64-w64-mingw32/8.1.0/../../../../x86_64-w64-mingw32/lib/../lib/libmsvcrt.a(duags00203.o)
 .data          0x0000000000416200        0x0 c:/ProgramFiles/mingw-w64-x86_64-8.1.0-posix-seh-rt_v6-rev0/mingw64/bin/../lib/gcc/x86_64-w64-mingw32/8.1.0/../../../../x86_64-w64-mingw32/lib/../lib/libmsvcrt.a(duags00141.o)
 .data          0x0000000000416200        0x0 c:/ProgramFiles/mingw-w64-x86_64-8.1.0-posix-seh-rt_v6-rev0/mingw64/bin/../lib/gcc/x86_64-w64-mingw32/8.1.0/../../../../x86_64-w64-mingw32/lib/../lib/libmsvcrt.a(duags00122.o)
 .data          0x0000000000416200        0x0 c:/ProgramFiles/mingw-w64-x86_64-8.1.0-posix-seh-rt_v6-rev0/mingw64/bin/../lib/gcc/x86_64-w64-mingw32/8.1.0/../../../../x86_64-w64-mingw32/lib/../lib/libmsvcrt.a(duags00098.o)
 .data          0x0000000000416200        0x0 c:/ProgramFiles/mingw-w64-x86_64-8.1.0-posix-seh-rt_v6-rev0/mingw64/bin/../lib/gcc/x86_64-w64-mingw32/8.1.0/../../../../x86_64-w64-mingw32/lib/../lib/libmsvcrt.a(duags00096.o)
 .data          0x0000000000416200        0x0 c:/ProgramFiles/mingw-w64-x86_64-8.1.0-posix-seh-rt_v6-rev0/mingw64/bin/../lib/gcc/x86_64-w64-mingw32/8.1.0/../../../../x86_64-w64-mingw32/lib/../lib/libmsvcrt.a(duags00090.o)
 .data          0x0000000000416200        0x0 c:/ProgramFiles/mingw-w64-x86_64-8.1.0-posix-seh-rt_v6-rev0/mingw64/bin/../lib/gcc/x86_64-w64-mingw32/8.1.0/../../../../x86_64-w64-mingw32/lib/../lib/libmsvcrt.a(duags00082.o)
 .data          0x0000000000416200        0x0 c:/ProgramFiles/mingw-w64-x86_64-8.1.0-posix-seh-rt_v6-rev0/mingw64/bin/../lib/gcc/x86_64-w64-mingw32/8.1.0/../../../../x86_64-w64-mingw32/lib/../lib/libmsvcrt.a(duags00081.o)
 .data          0x0000000000416200        0x0 c:/ProgramFiles/mingw-w64-x86_64-8.1.0-posix-seh-rt_v6-rev0/mingw64/bin/../lib/gcc/x86_64-w64-mingw32/8.1.0/../../../../x86_64-w64-mingw32/lib/../lib/libmsvcrt.a(duags00055.o)
 .data          0x0000000000416200       0x10 c:/ProgramFiles/mingw-w64-x86_64-8.1.0-posix-seh-rt_v6-rev0/mingw64/bin/../lib/gcc/x86_64-w64-mingw32/8.1.0/../../../../x86_64-w64-mingw32/lib/../lib/libmsvcrt.a(lib64_libmsvcrt_os_a-acrt_iob_func.o)
                0x0000000000416200                __imp___acrt_iob_func
 .data          0x0000000000416210       0x10 c:/ProgramFiles/mingw-w64-x86_64-8.1.0-posix-seh-rt_v6-rev0/mingw64/bin/../lib/gcc/x86_64-w64-mingw32/8.1.0/../../../../x86_64-w64-mingw32/lib/../lib/libmsvcrt.a(lib64_libmsvcrt_os_a-invalid_parameter_handler.o)
                0x0000000000416210                __imp__get_invalid_parameter_handler
                0x0000000000416218                __imp__set_invalid_parameter_handler
 .data          0x0000000000416220       0x10 c:/ProgramFiles/mingw-w64-x86_64-8.1.0-posix-seh-rt_v6-rev0/mingw64/bin/../lib/gcc/x86_64-w64-mingw32/8.1.0/../../../../x86_64-w64-mingw32/lib/../lib/libmsvcrt.a(lib64_libmsvcrt_os_a-__p___argv.o)
                0x0000000000416220                __imp___p___argv
 .data          0x0000000000416230       0x10 c:/ProgramFiles/mingw-w64-x86_64-8.1.0-posix-seh-rt_v6-rev0/mingw64/bin/../lib/gcc/x86_64-w64-mingw32/8.1.0/../../../../x86_64-w64-mingw32/lib/../lib/libmsvcrt.a(lib64_libmsvcrt_os_a-__p__acmdln.o)
                0x0000000000416230                __imp___p__acmdln
 .data          0x0000000000416240       0x10 c:/ProgramFiles/mingw-w64-x86_64-8.1.0-posix-seh-rt_v6-rev0/mingw64/bin/../lib/gcc/x86_64-w64-mingw32/8.1.0/../../../../x86_64-w64-mingw32/lib/../lib/libmsvcrt.a(lib64_libmsvcrt_os_a-__p__fmode.o)
                0x0000000000416240                __imp___p__fmode
 .data          0x0000000000416250        0x0 c:/ProgramFiles/mingw-w64-x86_64-8.1.0-posix-seh-rt_v6-rev0/mingw64/bin/../lib/gcc/x86_64-w64-mingw32/8.1.0/../../../../x86_64-w64-mingw32/lib/../lib/libmsvcrt.a(duagh.o)
 .data          0x0000000000416250        0x0 c:/ProgramFiles/mingw-w64-x86_64-8.1.0-posix-seh-rt_v6-rev0/mingw64/bin/../lib/gcc/x86_64-w64-mingw32/8.1.0/../../../../x86_64-w64-mingw32/lib/../lib/libmsvcrt.a(duags00115.o)
 .data          0x0000000000416250        0x0 c:/ProgramFiles/mingw-w64-x86_64-8.1.0-posix-seh-rt_v6-rev0/mingw64/bin/../lib/gcc/x86_64-w64-mingw32/8.1.0/../../../../x86_64-w64-mingw32/lib/../lib/libmsvcrt.a(duags00083.o)
 .data          0x0000000000416250        0x0 c:/ProgramFiles/mingw-w64-x86_64-8.1.0-posix-seh-rt_v6-rev0/mingw64/bin/../lib/gcc/x86_64-w64-mingw32/8.1.0/../../../../x86_64-w64-mingw32/lib/../lib/libmsvcrt.a(duags00070.o)
 .data          0x0000000000416250        0x0 c:/ProgramFiles/mingw-w64-x86_64-8.1.0-posix-seh-rt_v6-rev0/mingw64/bin/../lib/gcc/x86_64-w64-mingw32/8.1.0/../../../../x86_64-w64-mingw32/lib/../lib/libmsvcrt.a(duagt.o)
 .data          0x0000000000416250        0x0 c:/ProgramFiles/mingw-w64-x86_64-8.1.0-posix-seh-rt_v6-rev0/mingw64/bin/../lib/gcc/x86_64-w64-mingw32/8.1.0/../../../../x86_64-w64-mingw32/lib/../lib/libuser32.a(dyqes00619.o)
 .data          0x0000000000416250        0x0 c:/ProgramFiles/mingw-w64-x86_64-8.1.0-posix-seh-rt_v6-rev0/mingw64/bin/../lib/gcc/x86_64-w64-mingw32/8.1.0/../../../../x86_64-w64-mingw32/lib/../lib/libuser32.a(dyqeh.o)
 .data          0x0000000000416250        0x0 c:/ProgramFiles/mingw-w64-x86_64-8.1.0-posix-seh-rt_v6-rev0/mingw64/bin/../lib/gcc/x86_64-w64-mingw32/8.1.0/../../../../x86_64-w64-mingw32/lib/../lib/libuser32.a(dyqet.o)
 .data          0x0000000000416250        0x0 c:/ProgramFiles/mingw-w64-x86_64-8.1.0-posix-seh-rt_v6-rev0/mingw64/bin/../lib/gcc/x86_64-w64-mingw32/8.1.0/../../../../x86_64-w64-mingw32/lib/../lib/libkernel32.a(dqifs01445.o)
 .data          0x0000000000416250        0x0 c:/ProgramFiles/mingw-w64-x86_64-8.1.0-posix-seh-rt_v6-rev0/mingw64/bin/../lib/gcc/x86_64-w64-mingw32/8.1.0/../../../../x86_64-w64-mingw32/lib/../lib/libkernel32.a(dqifs01443.o)
 .data          0x0000000000416250        0x0 c:/ProgramFiles/mingw-w64-x86_64-8.1.0-posix-seh-rt_v6-rev0/mingw64/bin/../lib/gcc/x86_64-w64-mingw32/8.1.0/../../../../x86_64-w64-mingw32/lib/../lib/libkernel32.a(dqifs01409.o)
 .data          0x0000000000416250        0x0 c:/ProgramFiles/mingw-w64-x86_64-8.1.0-posix-seh-rt_v6-rev0/mingw64/bin/../lib/gcc/x86_64-w64-mingw32/8.1.0/../../../../x86_64-w64-mingw32/lib/../lib/libkernel32.a(dqifs01395.o)
 .data          0x0000000000416250        0x0 c:/ProgramFiles/mingw-w64-x86_64-8.1.0-posix-seh-rt_v6-rev0/mingw64/bin/../lib/gcc/x86_64-w64-mingw32/8.1.0/../../../../x86_64-w64-mingw32/lib/../lib/libkernel32.a(dqifs01375.o)
 .data          0x0000000000416250        0x0 c:/ProgramFiles/mingw-w64-x86_64-8.1.0-posix-seh-rt_v6-rev0/mingw64/bin/../lib/gcc/x86_64-w64-mingw32/8.1.0/../../../../x86_64-w64-mingw32/lib/../lib/libkernel32.a(dqifs01360.o)
 .data          0x0000000000416250        0x0 c:/ProgramFiles/mingw-w64-x86_64-8.1.0-posix-seh-rt_v6-rev0/mingw64/bin/../lib/gcc/x86_64-w64-mingw32/8.1.0/../../../../x86_64-w64-mingw32/lib/../lib/libkernel32.a(dqifs01346.o)
 .data          0x0000000000416250        0x0 c:/ProgramFiles/mingw-w64-x86_64-8.1.0-posix-seh-rt_v6-rev0/mingw64/bin/../lib/gcc/x86_64-w64-mingw32/8.1.0/../../../../x86_64-w64-mingw32/lib/../lib/libkernel32.a(dqifs01194.o)
 .data          0x0000000000416250        0x0 c:/ProgramFiles/mingw-w64-x86_64-8.1.0-posix-seh-rt_v6-rev0/mingw64/bin/../lib/gcc/x86_64-w64-mingw32/8.1.0/../../../../x86_64-w64-mingw32/lib/../lib/libkernel32.a(dqifs01187.o)
 .data          0x0000000000416250        0x0 c:/ProgramFiles/mingw-w64-x86_64-8.1.0-posix-seh-rt_v6-rev0/mingw64/bin/../lib/gcc/x86_64-w64-mingw32/8.1.0/../../../../x86_64-w64-mingw32/lib/../lib/libkernel32.a(dqifs01180.o)
 .data          0x0000000000416250        0x0 c:/ProgramFiles/mingw-w64-x86_64-8.1.0-posix-seh-rt_v6-rev0/mingw64/bin/../lib/gcc/x86_64-w64-mingw32/8.1.0/../../../../x86_64-w64-mingw32/lib/../lib/libkernel32.a(dqifs01179.o)
 .data          0x0000000000416250        0x0 c:/ProgramFiles/mingw-w64-x86_64-8.1.0-posix-seh-rt_v6-rev0/mingw64/bin/../lib/gcc/x86_64-w64-mingw32/8.1.0/../../../../x86_64-w64-mingw32/lib/../lib/libkernel32.a(dqifs01093.o)
 .data          0x0000000000416250        0x0 c:/ProgramFiles/mingw-w64-x86_64-8.1.0-posix-seh-rt_v6-rev0/mingw64/bin/../lib/gcc/x86_64-w64-mingw32/8.1.0/../../../../x86_64-w64-mingw32/lib/../lib/libkernel32.a(dqifs00951.o)
 .data          0x0000000000416250        0x0 c:/ProgramFiles/mingw-w64-x86_64-8.1.0-posix-seh-rt_v6-rev0/mingw64/bin/../lib/gcc/x86_64-w64-mingw32/8.1.0/../../../../x86_64-w64-mingw32/lib/../lib/libkernel32.a(dqifs00863.o)
 .data          0x0000000000416250        0x0 c:/ProgramFiles/mingw-w64-x86_64-8.1.0-posix-seh-rt_v6-rev0/mingw64/bin/../lib/gcc/x86_64-w64-mingw32/8.1.0/../../../../x86_64-w64-mingw32/lib/../lib/libkernel32.a(dqifs00774.o)
 .data          0x0000000000416250        0x0 c:/ProgramFiles/mingw-w64-x86_64-8.1.0-posix-seh-rt_v6-rev0/mingw64/bin/../lib/gcc/x86_64-w64-mingw32/8.1.0/../../../../x86_64-w64-mingw32/lib/../lib/libkernel32.a(dqifs00746.o)
 .data          0x0000000000416250        0x0 c:/ProgramFiles/mingw-w64-x86_64-8.1.0-posix-seh-rt_v6-rev0/mingw64/bin/../lib/gcc/x86_64-w64-mingw32/8.1.0/../../../../x86_64-w64-mingw32/lib/../lib/libkernel32.a(dqifs00721.o)
 .data          0x0000000000416250        0x0 c:/ProgramFiles/mingw-w64-x86_64-8.1.0-posix-seh-rt_v6-rev0/mingw64/bin/../lib/gcc/x86_64-w64-mingw32/8.1.0/../../../../x86_64-w64-mingw32/lib/../lib/libkernel32.a(dqifs00629.o)
 .data          0x0000000000416250        0x0 c:/ProgramFiles/mingw-w64-x86_64-8.1.0-posix-seh-rt_v6-rev0/mingw64/bin/../lib/gcc/x86_64-w64-mingw32/8.1.0/../../../../x86_64-w64-mingw32/lib/../lib/libkernel32.a(dqifs00609.o)
 .data          0x0000000000416250        0x0 c:/ProgramFiles/mingw-w64-x86_64-8.1.0-posix-seh-rt_v6-rev0/mingw64/bin/../lib/gcc/x86_64-w64-mingw32/8.1.0/../../../../x86_64-w64-mingw32/lib/../lib/libkernel32.a(dqifs00578.o)
 .data          0x0000000000416250        0x0 c:/ProgramFiles/mingw-w64-x86_64-8.1.0-posix-seh-rt_v6-rev0/mingw64/bin/../lib/gcc/x86_64-w64-mingw32/8.1.0/../../../../x86_64-w64-mingw32/lib/../lib/libkernel32.a(dqifs00540.o)
 .data          0x0000000000416250        0x0 c:/ProgramFiles/mingw-w64-x86_64-8.1.0-posix-seh-rt_v6-rev0/mingw64/bin/../lib/gcc/x86_64-w64-mingw32/8.1.0/../../../../x86_64-w64-mingw32/lib/../lib/libkernel32.a(dqifs00536.o)
 .data          0x0000000000416250        0x0 c:/ProgramFiles/mingw-w64-x86_64-8.1.0-posix-seh-rt_v6-rev0/mingw64/bin/../lib/gcc/x86_64-w64-mingw32/8.1.0/../../../../x86_64-w64-mingw32/lib/../lib/libkernel32.a(dqifs00535.o)
 .data          0x0000000000416250        0x0 c:/ProgramFiles/mingw-w64-x86_64-8.1.0-posix-seh-rt_v6-rev0/mingw64/bin/../lib/gcc/x86_64-w64-mingw32/8.1.0/../../../../x86_64-w64-mingw32/lib/../lib/libkernel32.a(dqifs00304.o)
 .data          0x0000000000416250        0x0 c:/ProgramFiles/mingw-w64-x86_64-8.1.0-posix-seh-rt_v6-rev0/mingw64/bin/../lib/gcc/x86_64-w64-mingw32/8.1.0/../../../../x86_64-w64-mingw32/lib/../lib/libkernel32.a(dqifs00268.o)
 .data          0x0000000000416250        0x0 c:/ProgramFiles/mingw-w64-x86_64-8.1.0-posix-seh-rt_v6-rev0/mingw64/bin/../lib/gcc/x86_64-w64-mingw32/8.1.0/../../../../x86_64-w64-mingw32/lib/../lib/libkernel32.a(dqifh.o)
 .data          0x0000000000416250        0x0 c:/ProgramFiles/mingw-w64-x86_64-8.1.0-posix-seh-rt_v6-rev0/mingw64/bin/../lib/gcc/x86_64-w64-mingw32/8.1.0/../../../../x86_64-w64-mingw32/lib/../lib/libkernel32.a(dqift.o)
 .data          0x0000000000416250        0x0 c:/ProgramFiles/mingw-w64-x86_64-8.1.0-posix-seh-rt_v6-rev0/mingw64/bin/../lib/gcc/x86_64-w64-mingw32/8.1.0/../../../../x86_64-w64-mingw32/lib/../lib/libmsvcrt.a(duags00253.o)
 .data          0x0000000000416250        0x0 c:/ProgramFiles/mingw-w64-x86_64-8.1.0-posix-seh-rt_v6-rev0/mingw64/bin/../lib/gcc/x86_64-w64-mingw32/8.1.0/crtend.o
 *(.data2)
 *(SORT_BY_NAME(.data$*))
 .data$SQC_.4935
                0x0000000000416250       0x10 bin/win/DEBUG/obj/oss_operatingSystemSimulation.o
 .data$SQC_.4946
                0x0000000000416260       0x10 bin/win/DEBUG/obj/oss_operatingSystemSimulation.o
 .data$SQC_.4955
                0x0000000000416270       0x10 bin/win/DEBUG/obj/oss_operatingSystemSimulation.o
 .data$__security_cookie
                0x0000000000416280       0x10 c:/ProgramFiles/mingw-w64-x86_64-8.1.0-posix-seh-rt_v6-rev0/mingw64/bin/../lib/gcc/x86_64-w64-mingw32/8.1.0/../../../../x86_64-w64-mingw32/lib/../lib/libmingw32.a(lib64_libmingw32_a-gs_support.o)
                0x0000000000416280                __security_cookie
 .data$__security_cookie_complement
                0x0000000000416290       0x10 c:/ProgramFiles/mingw-w64-x86_64-8.1.0-posix-seh-rt_v6-rev0/mingw64/bin/../lib/gcc/x86_64-w64-mingw32/8.1.0/../../../../x86_64-w64-mingw32/lib/../lib/libmingw32.a(lib64_libmingw32_a-gs_support.o)
                0x0000000000416290                __security_cookie_complement
 .data$_hFrame1024
                0x00000000004162a0       0x10 bin/win/DEBUG/obj/oss_operatingSystemSimulation.o
 .data$_hFrame1040
                0x00000000004162b0       0x10 bin/win/DEBUG/obj/oss_operatingSystemSimulation.o
 .data$_hFrame2032
                0x00000000004162c0       0x10 bin/win/DEBUG/obj/oss_operatingSystemSimulation.o
 .data$_hOsEventSender
                0x00000000004162d0       0x10 bin/win/DEBUG/obj/apt_applicationTask.o
 .data$_hTimerDueCheck_PT_1537
                0x00000000004162e0       0x10 bin/win/DEBUG/obj/cbk_callbacks.o
 .data$_hTimerDueCheck_PT_1538
                0x00000000004162f0       0x10 bin/win/DEBUG/obj/cbk_callbacks.o
 .data$_hTimerTimeout_PT_1024
                0x0000000000416300       0x10 bin/win/DEBUG/obj/cbk_callbacks.o
 .data$_hTimerTimeout_PT_1040
                0x0000000000416310       0x10 bin/win/DEBUG/obj/cbk_callbacks.o
 .data$_hTimerTimeout_PT_1537
                0x0000000000416320       0x10 bin/win/DEBUG/obj/cbk_callbacks.o
 .data$_idxSenderPortAry
                0x0000000000416330       0x20 bin/win/DEBUG/obj/mhn_mapOsFrameHandleToCanIfHandle.o
 .data$_irqHandlerCanBusOff
                0x0000000000416350       0x10 bin/win/DEBUG/obj/oss_operatingSystemSimulation.o
 .data$_irqHandlerCanRx
                0x0000000000416360       0x10 bin/win/DEBUG/obj/oss_operatingSystemSimulation.o
 .data$_isBusOff
                0x0000000000416370       0x10 bin/win/DEBUG/obj/oss_operatingSystemSimulation.o
 .data$_lastSentFrContents_PT_LimitsPowerDisplay_1538
                0x0000000000416380       0x10 bin/win/DEBUG/obj/cbk_callbacks.o
 .data$_lastSentFrContents_PT_StatusPowerDisplay_1537
                0x0000000000416390       0x10 bin/win/DEBUG/obj/cbk_callbacks.o
 .data$_logCanData
                0x00000000004163a0       0x10 bin/win/DEBUG/obj/oss_operatingSystemSimulation.o
 .data$_mapAry  0x00000000004163b0       0x10 bin/win/DEBUG/obj/mhn_mapOsFrameHandleToCanIfHandle.o
 .data$_nextHandleCanFrame
                0x00000000004163c0       0x10 bin/win/DEBUG/obj/oss_operatingSystemSimulation.o
 .data$_noRefsToObjects
                0x00000000004163d0       0x10 bin/win/DEBUG/obj/log_logger.o
 .data$_taskAry
                0x00000000004163e0       0x40 bin/win/DEBUG/obj/oss_operatingSystemSimulation.o
 .data$apt_canBusOff
                0x0000000000416420       0x10 bin/win/DEBUG/obj/apt_applicationTask.o
                0x0000000000416420                apt_canBusOff
 .data$apt_hDispatcherSystemAry
                0x0000000000416430       0x10 bin/win/DEBUG/obj/apt_applicationTask.o
                0x0000000000416430                apt_hDispatcherSystemAry
 .data$apt_memoryPoolAPSW
                0x0000000000416440       0x20 bin/win/DEBUG/obj/apt_applicationTask.o
 .data$apt_memoryPoolOS
                0x0000000000416460       0x20 bin/win/DEBUG/obj/apt_applicationTask.o
 .data$deltaPwr.4961
                0x0000000000416480       0x10 bin/win/DEBUG/obj/oss_operatingSystemSimulation.o
 .data$deltaSOR.4960
                0x0000000000416490       0x10 bin/win/DEBUG/obj/oss_operatingSystemSimulation.o
 .data$heapMemoryAPSW.4342
                0x00000000004164a0     0x2720 bin/win/DEBUG/obj/apt_applicationTask.o
 .data$heapMemoryOS.4341
                0x0000000000418bc0     0x2720 bin/win/DEBUG/obj/apt_applicationTask.o
 .data$lastSqc_.4908
                0x000000000041b2e0       0x10 bin/win/DEBUG/obj/cbk_callbacks.o
 .data$lastSqc_.4915
                0x000000000041b2f0       0x10 bin/win/DEBUG/obj/cbk_callbacks.o
 .data$lastSqc_.4922
                0x000000000041b300       0x10 bin/win/DEBUG/obj/cbk_callbacks.o
 *fill*         0x000000000041b310       0x10 
 .data$logLevelStringAry_.5092
                0x000000000041b320       0x40 bin/win/DEBUG/obj/log_logger.o
 .data$main_hGlobalLogger
                0x000000000041b360       0x10 bin/win/DEBUG/obj/main.o
                0x000000000041b360                main_hGlobalLogger
 .data$maxPower.4959
                0x000000000041b370       0x10 bin/win/DEBUG/obj/oss_operatingSystemSimulation.o
 .data$maxSpeedOfRotation.4957
                0x000000000041b380       0x10 bin/win/DEBUG/obj/oss_operatingSystemSimulation.o
 .data$minPower.4958
                0x000000000041b390       0x10 bin/win/DEBUG/obj/oss_operatingSystemSimulation.o
 .data$minSpeedOfRotation.4956
                0x000000000041b3a0       0x10 bin/win/DEBUG/obj/oss_operatingSystemSimulation.o
 .data$oss_tiSim
                0x000000000041b3b0       0x10 bin/win/DEBUG/obj/oss_operatingSystemSimulation.o
                0x000000000041b3b0                oss_tiSim
 .data$oss_tiTick
                0x000000000041b3c0       0x10 bin/win/DEBUG/obj/oss_operatingSystemSimulation.o
                0x000000000041b3c0                oss_tiTick
 .data$pck_API_PT_InfoPowerDisplay_1536
                0x000000000041b3d0       0x10 bin/win/DEBUG/obj/pck_packCanFrame.o
                0x000000000041b3d0                pck_API_PT_InfoPowerDisplay_1536
 .data$pck_API_PT_LimitsPowerDisplay_1538
                0x000000000041b3e0       0x10 bin/win/DEBUG/obj/pck_packCanFrame.o
                0x000000000041b3e0                pck_API_PT_LimitsPowerDisplay_1538
 .data$pck_API_PT_StateEcu01_1024
                0x000000000041b3f0       0x10 bin/win/DEBUG/obj/pck_packCanFrame.o
                0x000000000041b3f0                pck_API_PT_StateEcu01_1024
 .data$pck_API_PT_StateEcu02_1040
                0x000000000041b400       0x10 bin/win/DEBUG/obj/pck_packCanFrame.o
                0x000000000041b400                pck_API_PT_StateEcu02_1040
 .data$pck_API_PT_StatusPowerDisplay_1537
                0x000000000041b410       0x10 bin/win/DEBUG/obj/pck_packCanFrame.o
                0x000000000041b410                pck_API_PT_StatusPowerDisplay_1537
 .data$pck_API_PT_UserLimits_2032
                0x000000000041b420       0x10 bin/win/DEBUG/obj/pck_packCanFrame.o
                0x000000000041b420                pck_API_PT_UserLimits_2032
 .data$speedOfRotationSlope_.4933
                0x000000000041b430       0x10 bin/win/DEBUG/obj/oss_operatingSystemSimulation.o
 .data$speedOfRotation_.4934
                0x000000000041b440       0x10 bin/win/DEBUG/obj/oss_operatingSystemSimulation.o
 .data$stsTransmission_last_.4790
                0x000000000041b450       0x10 bin/win/DEBUG/obj/pwr_computeEnginePower.o
 .data$stsTransmission_last_.4794
                0x000000000041b460       0x10 bin/win/DEBUG/obj/pwr_computeEnginePower.o
 .data$tiLastReceive_.4932
                0x000000000041b470       0x10 bin/win/DEBUG/obj/oss_operatingSystemSimulation.o
 .data$tiLastReceive_.4943
                0x000000000041b480       0x10 bin/win/DEBUG/obj/oss_operatingSystemSimulation.o
 .data$tiReceive_.4931
                0x000000000041b490       0x10 bin/win/DEBUG/obj/oss_operatingSystemSimulation.o
 .data$tiReceive_.4942
                0x000000000041b4a0       0x10 bin/win/DEBUG/obj/oss_operatingSystemSimulation.o
 .data$tiReceive_.4954
                0x000000000041b4b0       0x10 bin/win/DEBUG/obj/oss_operatingSystemSimulation.o
 .data$timeStr.5053
                0x000000000041b4c0       0x20 bin/win/DEBUG/obj/main.o
 .data$timerRecovery_.4329
                0x000000000041b4e0       0x10 bin/win/DEBUG/obj/apt_applicationTask.o
 .data$torqueSlope_.4944
                0x000000000041b4f0       0x10 bin/win/DEBUG/obj/oss_operatingSystemSimulation.o
 .data$torque_.4945
                0x000000000041b500       0x10 bin/win/DEBUG/obj/oss_operatingSystemSimulation.o
 *(.jcr)
                0x000000000041b510                __data_end__ = .
 *(.data_cygwin_nocopy)

.rdata          0x000000000041c000     0x5600
 *(.rdata)
 .rdata         0x000000000041c000      0x710 bin/win/DEBUG/obj/apt_applicationTask.o
 .rdata         0x000000000041c710      0xc70 bin/win/DEBUG/obj/cbk_callbacks.o
 .rdata         0x000000000041d380       0x90 bin/win/DEBUG/obj/chk_checksum.o
 .rdata         0x000000000041d410      0x580 bin/win/DEBUG/obj/ede_eventDispatcherEngine.o
 .rdata         0x000000000041d990       0x90 bin/win/DEBUG/obj/ede_eventSender.o
 .rdata         0x000000000041da20       0xc0 bin/win/DEBUG/obj/fil_file.o
 .rdata         0x000000000041dae0      0x400 bin/win/DEBUG/obj/log_logger.o
 .rdata         0x000000000041dee0       0xd0 bin/win/DEBUG/obj/m16_mapDirectLookupU16.o
 .rdata         0x000000000041dfb0      0x360 bin/win/DEBUG/obj/main.o
 .rdata         0x000000000041e310      0x1a0 bin/win/DEBUG/obj/mci_mapBinarySearchCanId.o
 .rdata         0x000000000041e4b0       0x70 bin/win/DEBUG/obj/mem_malloc.o
 .rdata         0x000000000041e520      0x2b0 bin/win/DEBUG/obj/mhn_mapOsFrameHandleToCanIfHandle.o
 .rdata         0x000000000041e7d0      0x1b0 bin/win/DEBUG/obj/mpo_mapOffsetOnly.o
 .rdata         0x000000000041e980       0xc0 bin/win/DEBUG/obj/mu8_mapDirectLookupU8.o
 .rdata         0x000000000041ea40      0xa70 bin/win/DEBUG/obj/opt_getOpt.o
 .rdata         0x000000000041f4b0      0x820 bin/win/DEBUG/obj/oss_operatingSystemSimulation.o
 .rdata         0x000000000041fcd0      0x190 bin/win/DEBUG/obj/pwr_computeEnginePower.o
 .rdata         0x000000000041fe60       0x70 bin/win/DEBUG/obj/vsq_dispatcherPortInterface.o
 .rdata         0x000000000041fed0      0x660 bin/win/DEBUG/obj/vsq_threadSafeQueueVariableSize.o
 .rdata         0x0000000000420530       0x10 c:/ProgramFiles/mingw-w64-x86_64-8.1.0-posix-seh-rt_v6-rev0/mingw64/bin/../lib/gcc/x86_64-w64-mingw32/8.1.0/../../../../x86_64-w64-mingw32/lib/../lib/libmingw32.a(lib64_libmingw32_a-gs_support.o)
 .rdata         0x0000000000420540       0x60 c:/ProgramFiles/mingw-w64-x86_64-8.1.0-posix-seh-rt_v6-rev0/mingw64/bin/../lib/gcc/x86_64-w64-mingw32/8.1.0/../../../../x86_64-w64-mingw32/lib/../lib/libmingw32.a(lib64_libmingw32_a-tlssup.o)
                0x0000000000420540                __dyn_tls_init_callback
                0x0000000000420560                _tls_used
 .rdata         0x00000000004205a0      0x140 c:/ProgramFiles/mingw-w64-x86_64-8.1.0-posix-seh-rt_v6-rev0/mingw64/bin/../lib/gcc/x86_64-w64-mingw32/8.1.0/../../../../x86_64-w64-mingw32/lib/../lib/libmingw32.a(lib64_libmingw32_a-merr.o)
 .rdata         0x00000000004206e0      0x110 c:/ProgramFiles/mingw-w64-x86_64-8.1.0-posix-seh-rt_v6-rev0/mingw64/bin/../lib/gcc/x86_64-w64-mingw32/8.1.0/../../../../x86_64-w64-mingw32/lib/../lib/libmingw32.a(lib64_libmingw32_a-pseudo-reloc.o)
 .rdata         0x00000000004207f0       0x10 c:/ProgramFiles/mingw-w64-x86_64-8.1.0-posix-seh-rt_v6-rev0/mingw64/bin/../lib/gcc/x86_64-w64-mingw32/8.1.0/../../../../x86_64-w64-mingw32/lib/../lib/libmingw32.a(lib64_libmingw32_a-crt_handler.o)
 .rdata         0x0000000000420800       0x20 c:/ProgramFiles/mingw-w64-x86_64-8.1.0-posix-seh-rt_v6-rev0/mingw64/bin/../lib/gcc/x86_64-w64-mingw32/8.1.0/../../../../x86_64-w64-mingw32/lib/../lib/libmingwex.a(lib64_libmingwex_a-strtodnrp.o)
 .rdata         0x0000000000420820      0x140 c:/ProgramFiles/mingw-w64-x86_64-8.1.0-posix-seh-rt_v6-rev0/mingw64/bin/../lib/gcc/x86_64-w64-mingw32/8.1.0/../../../../x86_64-w64-mingw32/lib/../lib/libmingwex.a(lib64_libmingwex_a-getopt.o)
 .rdata         0x0000000000420960       0xe0 c:/ProgramFiles/mingw-w64-x86_64-8.1.0-posix-seh-rt_v6-rev0/mingw64/bin/../lib/gcc/x86_64-w64-mingw32/8.1.0/../../../../x86_64-w64-mingw32/lib/../lib/libmingwex.a(lib64_libmingwex_a-wassert.o)
 .rdata         0x0000000000420a40      0x180 c:/ProgramFiles/mingw-w64-x86_64-8.1.0-posix-seh-rt_v6-rev0/mingw64/bin/../lib/gcc/x86_64-w64-mingw32/8.1.0/../../../../x86_64-w64-mingw32/lib/../lib/libmingwex.a(lib64_libmingwex_a-strtodg.o)
 .rdata         0x0000000000420bc0       0x20 c:/ProgramFiles/mingw-w64-x86_64-8.1.0-posix-seh-rt_v6-rev0/mingw64/bin/../lib/gcc/x86_64-w64-mingw32/8.1.0/../../../../x86_64-w64-mingw32/lib/../lib/libmingwex.a(lib64_libmingwex_a-hd_init.o)
 .rdata         0x0000000000420be0      0x160 c:/ProgramFiles/mingw-w64-x86_64-8.1.0-posix-seh-rt_v6-rev0/mingw64/bin/../lib/gcc/x86_64-w64-mingw32/8.1.0/../../../../x86_64-w64-mingw32/lib/../lib/libmingwex.a(lib64_libmingwex_a-misc.o)
                0x0000000000420c00                __tens_D2A
                0x0000000000420cc0                __tinytens_D2A
                0x0000000000420d00                __bigtens_D2A
 *(SORT_BY_NAME(.rdata$*))
 .rdata$.refptr._CRT_MT
                0x0000000000420d40       0x10 c:/ProgramFiles/mingw-w64-x86_64-8.1.0-posix-seh-rt_v6-rev0/mingw64/bin/../lib/gcc/x86_64-w64-mingw32/8.1.0/../../../../x86_64-w64-mingw32/lib/../lib/libmingw32.a(lib64_libmingw32_a-tlssup.o)
                0x0000000000420d40                .refptr._CRT_MT
 .rdata$.refptr._MINGW_INSTALL_DEBUG_MATHERR
                0x0000000000420d50       0x10 c:/ProgramFiles/mingw-w64-x86_64-8.1.0-posix-seh-rt_v6-rev0/mingw64/bin/../lib/gcc/x86_64-w64-mingw32/8.1.0/../../../../x86_64-w64-mingw32/lib/../lib/crt2.o
                0x0000000000420d50                .refptr._MINGW_INSTALL_DEBUG_MATHERR
 .rdata$.refptr.__CTOR_LIST__
                0x0000000000420d60       0x10 c:/ProgramFiles/mingw-w64-x86_64-8.1.0-posix-seh-rt_v6-rev0/mingw64/bin/../lib/gcc/x86_64-w64-mingw32/8.1.0/../../../../x86_64-w64-mingw32/lib/../lib/libmingw32.a(lib64_libmingw32_a-gccmain.o)
                0x0000000000420d60                .refptr.__CTOR_LIST__
 .rdata$.refptr.__RUNTIME_PSEUDO_RELOC_LIST_END__
                0x0000000000420d70       0x10 c:/ProgramFiles/mingw-w64-x86_64-8.1.0-posix-seh-rt_v6-rev0/mingw64/bin/../lib/gcc/x86_64-w64-mingw32/8.1.0/../../../../x86_64-w64-mingw32/lib/../lib/libmingw32.a(lib64_libmingw32_a-pseudo-reloc.o)
                0x0000000000420d70                .refptr.__RUNTIME_PSEUDO_RELOC_LIST_END__
 .rdata$.refptr.__RUNTIME_PSEUDO_RELOC_LIST__
                0x0000000000420d80       0x10 c:/ProgramFiles/mingw-w64-x86_64-8.1.0-posix-seh-rt_v6-rev0/mingw64/bin/../lib/gcc/x86_64-w64-mingw32/8.1.0/../../../../x86_64-w64-mingw32/lib/../lib/libmingw32.a(lib64_libmingw32_a-pseudo-reloc.o)
                0x0000000000420d80                .refptr.__RUNTIME_PSEUDO_RELOC_LIST__
 .rdata$.refptr.__bigtens_D2A
                0x0000000000420d90       0x10 c:/ProgramFiles/mingw-w64-x86_64-8.1.0-posix-seh-rt_v6-rev0/mingw64/bin/../lib/gcc/x86_64-w64-mingw32/8.1.0/../../../../x86_64-w64-mingw32/lib/../lib/libmingwex.a(lib64_libmingwex_a-strtodg.o)
                0x0000000000420d90                .refptr.__bigtens_D2A
 .rdata$.refptr.__dyn_tls_init_callback
                0x0000000000420da0       0x10 c:/ProgramFiles/mingw-w64-x86_64-8.1.0-posix-seh-rt_v6-rev0/mingw64/bin/../lib/gcc/x86_64-w64-mingw32/8.1.0/../../../../x86_64-w64-mingw32/lib/../lib/crt2.o
                0x0000000000420da0                .refptr.__dyn_tls_init_callback
 .rdata$.refptr.__hexdig_D2A
                0x0000000000420db0       0x10 c:/ProgramFiles/mingw-w64-x86_64-8.1.0-posix-seh-rt_v6-rev0/mingw64/bin/../lib/gcc/x86_64-w64-mingw32/8.1.0/../../../../x86_64-w64-mingw32/lib/../lib/libmingwex.a(lib64_libmingwex_a-gethex.o)
                0x0000000000420db0                .refptr.__hexdig_D2A
 .rdata$.refptr.__image_base__
                0x0000000000420dc0       0x10 c:/ProgramFiles/mingw-w64-x86_64-8.1.0-posix-seh-rt_v6-rev0/mingw64/bin/../lib/gcc/x86_64-w64-mingw32/8.1.0/../../../../x86_64-w64-mingw32/lib/../lib/crt2.o
                0x0000000000420dc0                .refptr.__image_base__
 .rdata$.refptr.__imp___argv
                0x0000000000420dd0       0x10 c:/ProgramFiles/mingw-w64-x86_64-8.1.0-posix-seh-rt_v6-rev0/mingw64/bin/../lib/gcc/x86_64-w64-mingw32/8.1.0/../../../../x86_64-w64-mingw32/lib/../lib/libmsvcrt.a(lib64_libmsvcrt_os_a-__p___argv.o)
                0x0000000000420dd0                .refptr.__imp___argv
 .rdata$.refptr.__imp___initenv
                0x0000000000420de0       0x10 c:/ProgramFiles/mingw-w64-x86_64-8.1.0-posix-seh-rt_v6-rev0/mingw64/bin/../lib/gcc/x86_64-w64-mingw32/8.1.0/../../../../x86_64-w64-mingw32/lib/../lib/crt2.o
                0x0000000000420de0                .refptr.__imp___initenv
 .rdata$.refptr.__imp__acmdln
                0x0000000000420df0       0x10 c:/ProgramFiles/mingw-w64-x86_64-8.1.0-posix-seh-rt_v6-rev0/mingw64/bin/../lib/gcc/x86_64-w64-mingw32/8.1.0/../../../../x86_64-w64-mingw32/lib/../lib/libmsvcrt.a(lib64_libmsvcrt_os_a-__p__acmdln.o)
                0x0000000000420df0                .refptr.__imp__acmdln
 .rdata$.refptr.__imp__fmode
                0x0000000000420e00       0x10 c:/ProgramFiles/mingw-w64-x86_64-8.1.0-posix-seh-rt_v6-rev0/mingw64/bin/../lib/gcc/x86_64-w64-mingw32/8.1.0/../../../../x86_64-w64-mingw32/lib/../lib/libmsvcrt.a(lib64_libmsvcrt_os_a-__p__fmode.o)
                0x0000000000420e00                .refptr.__imp__fmode
 .rdata$.refptr.__mingw_oldexcpt_handler
                0x0000000000420e10       0x10 c:/ProgramFiles/mingw-w64-x86_64-8.1.0-posix-seh-rt_v6-rev0/mingw64/bin/../lib/gcc/x86_64-w64-mingw32/8.1.0/../../../../x86_64-w64-mingw32/lib/../lib/crt2.o
                0x0000000000420e10                .refptr.__mingw_oldexcpt_handler
 .rdata$.refptr.__native_startup_lock
                0x0000000000420e20       0x10 c:/ProgramFiles/mingw-w64-x86_64-8.1.0-posix-seh-rt_v6-rev0/mingw64/bin/../lib/gcc/x86_64-w64-mingw32/8.1.0/../../../../x86_64-w64-mingw32/lib/../lib/crt2.o
                0x0000000000420e20                .refptr.__native_startup_lock
 .rdata$.refptr.__native_startup_state
                0x0000000000420e30       0x10 c:/ProgramFiles/mingw-w64-x86_64-8.1.0-posix-seh-rt_v6-rev0/mingw64/bin/../lib/gcc/x86_64-w64-mingw32/8.1.0/../../../../x86_64-w64-mingw32/lib/../lib/crt2.o
                0x0000000000420e30                .refptr.__native_startup_state
 .rdata$.refptr.__tens_D2A
                0x0000000000420e40       0x10 c:/ProgramFiles/mingw-w64-x86_64-8.1.0-posix-seh-rt_v6-rev0/mingw64/bin/../lib/gcc/x86_64-w64-mingw32/8.1.0/../../../../x86_64-w64-mingw32/lib/../lib/libmingwex.a(lib64_libmingwex_a-strtodg.o)
                0x0000000000420e40                .refptr.__tens_D2A
 .rdata$.refptr.__tinytens_D2A
                0x0000000000420e50       0x10 c:/ProgramFiles/mingw-w64-x86_64-8.1.0-posix-seh-rt_v6-rev0/mingw64/bin/../lib/gcc/x86_64-w64-mingw32/8.1.0/../../../../x86_64-w64-mingw32/lib/../lib/libmingwex.a(lib64_libmingwex_a-strtodg.o)
                0x0000000000420e50                .refptr.__tinytens_D2A
 .rdata$.refptr.__xc_a
                0x0000000000420e60       0x10 c:/ProgramFiles/mingw-w64-x86_64-8.1.0-posix-seh-rt_v6-rev0/mingw64/bin/../lib/gcc/x86_64-w64-mingw32/8.1.0/../../../../x86_64-w64-mingw32/lib/../lib/crt2.o
                0x0000000000420e60                .refptr.__xc_a
 .rdata$.refptr.__xc_z
                0x0000000000420e70       0x10 c:/ProgramFiles/mingw-w64-x86_64-8.1.0-posix-seh-rt_v6-rev0/mingw64/bin/../lib/gcc/x86_64-w64-mingw32/8.1.0/../../../../x86_64-w64-mingw32/lib/../lib/crt2.o
                0x0000000000420e70                .refptr.__xc_z
 .rdata$.refptr.__xi_a
                0x0000000000420e80       0x10 c:/ProgramFiles/mingw-w64-x86_64-8.1.0-posix-seh-rt_v6-rev0/mingw64/bin/../lib/gcc/x86_64-w64-mingw32/8.1.0/../../../../x86_64-w64-mingw32/lib/../lib/crt2.o
                0x0000000000420e80                .refptr.__xi_a
 .rdata$.refptr.__xi_z
                0x0000000000420e90       0x10 c:/ProgramFiles/mingw-w64-x86_64-8.1.0-posix-seh-rt_v6-rev0/mingw64/bin/../lib/gcc/x86_64-w64-mingw32/8.1.0/../../../../x86_64-w64-mingw32/lib/../lib/crt2.o
                0x0000000000420e90                .refptr.__xi_z
 .rdata$.refptr._dowildcard
                0x0000000000420ea0       0x10 c:/ProgramFiles/mingw-w64-x86_64-8.1.0-posix-seh-rt_v6-rev0/mingw64/bin/../lib/gcc/x86_64-w64-mingw32/8.1.0/../../../../x86_64-w64-mingw32/lib/../lib/crt2.o
                0x0000000000420ea0                .refptr._dowildcard
 .rdata$.refptr._fmode
                0x0000000000420eb0       0x10 c:/ProgramFiles/mingw-w64-x86_64-8.1.0-posix-seh-rt_v6-rev0/mingw64/bin/../lib/gcc/x86_64-w64-mingw32/8.1.0/../../../../x86_64-w64-mingw32/lib/../lib/crt2.o
                0x0000000000420eb0                .refptr._fmode
 .rdata$.refptr._gnu_exception_handler
                0x0000000000420ec0       0x10 c:/ProgramFiles/mingw-w64-x86_64-8.1.0-posix-seh-rt_v6-rev0/mingw64/bin/../lib/gcc/x86_64-w64-mingw32/8.1.0/../../../../x86_64-w64-mingw32/lib/../lib/crt2.o
                0x0000000000420ec0                .refptr._gnu_exception_handler
 .rdata$.refptr._matherr
                0x0000000000420ed0       0x10 c:/ProgramFiles/mingw-w64-x86_64-8.1.0-posix-seh-rt_v6-rev0/mingw64/bin/../lib/gcc/x86_64-w64-mingw32/8.1.0/../../../../x86_64-w64-mingw32/lib/../lib/crt2.o
                0x0000000000420ed0                .refptr._matherr
 .rdata$.refptr._newmode
                0x0000000000420ee0       0x10 c:/ProgramFiles/mingw-w64-x86_64-8.1.0-posix-seh-rt_v6-rev0/mingw64/bin/../lib/gcc/x86_64-w64-mingw32/8.1.0/../../../../x86_64-w64-mingw32/lib/../lib/crt2.o
                0x0000000000420ee0                .refptr._newmode
 .rdata$.refptr.apt_hDispatcherSystemAry
                0x0000000000420ef0       0x10 bin/win/DEBUG/obj/cbk_callbacks.o
                0x0000000000420ef0                .refptr.apt_hDispatcherSystemAry
 .rdata$.refptr.apt_irqHandlerBusOff
                0x0000000000420f00       0x10 bin/win/DEBUG/obj/main.o
                0x0000000000420f00                .refptr.apt_irqHandlerBusOff
 .rdata$.refptr.apt_irqHandlerRxCan
                0x0000000000420f10       0x10 bin/win/DEBUG/obj/main.o
                0x0000000000420f10                .refptr.apt_irqHandlerRxCan
 .rdata$.refptr.apt_task100ms
                0x0000000000420f20       0x10 bin/win/DEBUG/obj/main.o
                0x0000000000420f20                .refptr.apt_task100ms
 .rdata$.refptr.apt_task10ms
                0x0000000000420f30       0x10 bin/win/DEBUG/obj/main.o
                0x0000000000420f30                .refptr.apt_task10ms
 .rdata$.refptr.apt_taskInit
                0x0000000000420f40       0x10 bin/win/DEBUG/obj/main.o
                0x0000000000420f40                .refptr.apt_taskInit
 .rdata$.refptr.apt_taskShutdown
                0x0000000000420f50       0x10 bin/win/DEBUG/obj/main.o
                0x0000000000420f50                .refptr.apt_taskShutdown
 .rdata$.refptr.main_hGlobalLogger
                0x0000000000420f60       0x10 bin/win/DEBUG/obj/apt_applicationTask.o
                0x0000000000420f60                .refptr.main_hGlobalLogger
 .rdata$.refptr.mhn_addMapEntrySenderEvHandleToSenderPortIndex
                0x0000000000420f70       0x10 bin/win/DEBUG/obj/apt_applicationTask.o
                0x0000000000420f70                .refptr.mhn_addMapEntrySenderEvHandleToSenderPortIndex
 .rdata$.refptr.mhn_mapSenderEvHandleToSenderPortIndex
                0x0000000000420f80       0x10 bin/win/DEBUG/obj/apt_applicationTask.o
                0x0000000000420f80                .refptr.mhn_mapSenderEvHandleToSenderPortIndex
 .rdata$.refptr.mingw_app_type
                0x0000000000420f90       0x10 c:/ProgramFiles/mingw-w64-x86_64-8.1.0-posix-seh-rt_v6-rev0/mingw64/bin/../lib/gcc/x86_64-w64-mingw32/8.1.0/../../../../x86_64-w64-mingw32/lib/../lib/crt2.o
                0x0000000000420f90                .refptr.mingw_app_type
 .rdata$.refptr.mingw_initcharmax
                0x0000000000420fa0       0x10 c:/ProgramFiles/mingw-w64-x86_64-8.1.0-posix-seh-rt_v6-rev0/mingw64/bin/../lib/gcc/x86_64-w64-mingw32/8.1.0/../../../../x86_64-w64-mingw32/lib/../lib/crt2.o
                0x0000000000420fa0                .refptr.mingw_initcharmax
 .rdata$.refptr.mingw_initltsdrot_force
                0x0000000000420fb0       0x10 c:/ProgramFiles/mingw-w64-x86_64-8.1.0-posix-seh-rt_v6-rev0/mingw64/bin/../lib/gcc/x86_64-w64-mingw32/8.1.0/../../../../x86_64-w64-mingw32/lib/../lib/crt2.o
                0x0000000000420fb0                .refptr.mingw_initltsdrot_force
 .rdata$.refptr.mingw_initltsdyn_force
                0x0000000000420fc0       0x10 c:/ProgramFiles/mingw-w64-x86_64-8.1.0-posix-seh-rt_v6-rev0/mingw64/bin/../lib/gcc/x86_64-w64-mingw32/8.1.0/../../../../x86_64-w64-mingw32/lib/../lib/crt2.o
                0x0000000000420fc0                .refptr.mingw_initltsdyn_force
 .rdata$.refptr.mingw_initltssuo_force
                0x0000000000420fd0       0x10 c:/ProgramFiles/mingw-w64-x86_64-8.1.0-posix-seh-rt_v6-rev0/mingw64/bin/../lib/gcc/x86_64-w64-mingw32/8.1.0/../../../../x86_64-w64-mingw32/lib/../lib/crt2.o
                0x0000000000420fd0                .refptr.mingw_initltssuo_force
 .rdata$.refptr.optarg
                0x0000000000420fe0       0x10 bin/win/DEBUG/obj/opt_getOpt.o
                0x0000000000420fe0                .refptr.optarg
 .rdata$.refptr.opterr
                0x0000000000420ff0       0x10 bin/win/DEBUG/obj/opt_getOpt.o
                0x0000000000420ff0                .refptr.opterr
 .rdata$.refptr.optind
                0x0000000000421000       0x10 bin/win/DEBUG/obj/opt_getOpt.o
                0x0000000000421000                .refptr.optind
 .rdata$.refptr.optopt
                0x0000000000421010       0x10 bin/win/DEBUG/obj/opt_getOpt.o
                0x0000000000421010                .refptr.optopt
 .rdata$.refptr.oss_tiSim
                0x0000000000421020       0x10 bin/win/DEBUG/obj/apt_applicationTask.o
                0x0000000000421020                .refptr.oss_tiSim
 .rdata$.refptr.pck_API_PT_InfoPowerDisplay_1536
                0x0000000000421030       0x10 bin/win/DEBUG/obj/cbk_callbacks.o
                0x0000000000421030                .refptr.pck_API_PT_InfoPowerDisplay_1536
 .rdata$.refptr.pck_API_PT_LimitsPowerDisplay_1538
                0x0000000000421040       0x10 bin/win/DEBUG/obj/cbk_callbacks.o
                0x0000000000421040                .refptr.pck_API_PT_LimitsPowerDisplay_1538
 .rdata$.refptr.pck_API_PT_StateEcu01_1024
                0x0000000000421050       0x10 bin/win/DEBUG/obj/cbk_callbacks.o
                0x0000000000421050                .refptr.pck_API_PT_StateEcu01_1024
 .rdata$.refptr.pck_API_PT_StateEcu02_1040
                0x0000000000421060       0x10 bin/win/DEBUG/obj/cbk_callbacks.o
                0x0000000000421060                .refptr.pck_API_PT_StateEcu02_1040
 .rdata$.refptr.pck_API_PT_StatusPowerDisplay_1537
                0x0000000000421070       0x10 bin/win/DEBUG/obj/cbk_callbacks.o
                0x0000000000421070                .refptr.pck_API_PT_StatusPowerDisplay_1537
 .rdata$.refptr.pck_API_PT_UserLimits_2032
                0x0000000000421080       0x10 bin/win/DEBUG/obj/cbk_callbacks.o
                0x0000000000421080                .refptr.pck_API_PT_UserLimits_2032
 .rdata$zzz     0x0000000000421090       0x40 bin/win/DEBUG/obj/apt_applicationTask.o
 .rdata$zzz     0x00000000004210d0       0x40 bin/win/DEBUG/obj/cbk_callbacks.o
 .rdata$zzz     0x0000000000421110       0x40 bin/win/DEBUG/obj/chk_checksum.o
 .rdata$zzz     0x0000000000421150       0x40 bin/win/DEBUG/obj/ede_eventDispatcherEngine.o
 .rdata$zzz     0x0000000000421190       0x40 bin/win/DEBUG/obj/ede_eventSender.o
 .rdata$zzz     0x00000000004211d0       0x40 bin/win/DEBUG/obj/fil_file.o
 .rdata$zzz     0x0000000000421210       0x40 bin/win/DEBUG/obj/log_logger.o
 .rdata$zzz     0x0000000000421250       0x40 bin/win/DEBUG/obj/m16_mapDirectLookupU16.o
 .rdata$zzz     0x0000000000421290       0x40 bin/win/DEBUG/obj/main.o
 .rdata$zzz     0x00000000004212d0       0x40 bin/win/DEBUG/obj/mci_mapBinarySearchCanId.o
 .rdata$zzz     0x0000000000421310       0x40 bin/win/DEBUG/obj/mem_malloc.o
 .rdata$zzz     0x0000000000421350       0x40 bin/win/DEBUG/obj/mhn_mapOsFrameHandleToCanIfHandle.o
 .rdata$zzz     0x0000000000421390       0x40 bin/win/DEBUG/obj/mid_mapIdentity.o
 .rdata$zzz     0x00000000004213d0       0x40 bin/win/DEBUG/obj/mpo_mapOffsetOnly.o
 .rdata$zzz     0x0000000000421410       0x40 bin/win/DEBUG/obj/mu8_mapDirectLookupU8.o
 .rdata$zzz     0x0000000000421450       0x40 bin/win/DEBUG/obj/opt_getOpt.o
 .rdata$zzz     0x0000000000421490       0x40 bin/win/DEBUG/obj/oss_operatingSystemSimulation.o
 .rdata$zzz     0x00000000004214d0       0x40 bin/win/DEBUG/obj/pck_packCanFrame.o
 .rdata$zzz     0x0000000000421510       0x40 bin/win/DEBUG/obj/pwr_computeEnginePower.o
 .rdata$zzz     0x0000000000421550       0x40 bin/win/DEBUG/obj/vsq_dispatcherPortInterface.o
 .rdata$zzz     0x0000000000421590       0x40 bin/win/DEBUG/obj/vsq_threadSafeQueueVariableSize.o
                0x00000000004215d0                __rt_psrelocs_start = .
 *(.rdata_runtime_pseudo_reloc)
                0x00000000004215d0                __rt_psrelocs_end = .
                0x0000000000000000                __rt_psrelocs_size = (__rt_psrelocs_end - __rt_psrelocs_start)
                0x00000000004215d0                ___RUNTIME_PSEUDO_RELOC_LIST_END__ = .
                0x00000000004215d0                __RUNTIME_PSEUDO_RELOC_LIST_END__ = .
                0x00000000004215d0                ___RUNTIME_PSEUDO_RELOC_LIST__ = (. - __rt_psrelocs_size)
                0x00000000004215d0                __RUNTIME_PSEUDO_RELOC_LIST__ = (. - __rt_psrelocs_size)

.eh_frame
 *(.eh_frame*)

.pdata          0x0000000000422000      0xe00
 *(.pdata*)
 .pdata         0x0000000000422000       0x54 c:/ProgramFiles/mingw-w64-x86_64-8.1.0-posix-seh-rt_v6-rev0/mingw64/bin/../lib/gcc/x86_64-w64-mingw32/8.1.0/../../../../x86_64-w64-mingw32/lib/../lib/crt2.o
 .pdata         0x0000000000422054       0x18 c:/ProgramFiles/mingw-w64-x86_64-8.1.0-posix-seh-rt_v6-rev0/mingw64/bin/../lib/gcc/x86_64-w64-mingw32/8.1.0/crtbegin.o
 .pdata$log_getLogLevel
                0x000000000042206c        0xc bin/win/DEBUG/obj/apt_applicationTask.o
 .pdata$apt_irqHandlerRxCan
                0x0000000000422078        0xc bin/win/DEBUG/obj/apt_applicationTask.o
 .pdata$apt_irqHandlerBusOff
                0x0000000000422084        0xc bin/win/DEBUG/obj/apt_applicationTask.o
 .pdata$onBusOnOff
                0x0000000000422090        0xc bin/win/DEBUG/obj/apt_applicationTask.o
 .pdata$onInitBus
                0x000000000042209c        0xc bin/win/DEBUG/obj/apt_applicationTask.o
 .pdata$apt_taskInit
                0x00000000004220a8        0xc bin/win/DEBUG/obj/apt_applicationTask.o
 .pdata$apt_task10ms
                0x00000000004220b4        0xc bin/win/DEBUG/obj/apt_applicationTask.o
 .pdata$apt_task100ms
                0x00000000004220c0        0xc bin/win/DEBUG/obj/apt_applicationTask.o
 .pdata$apt_taskShutdown
                0x00000000004220cc        0xc bin/win/DEBUG/obj/apt_applicationTask.o
 .pdata$log_getLogLevel
                0x00000000004220d8        0xc bin/win/DEBUG/obj/cbk_callbacks.o
 .pdata$onReceiveFrame_PT_1024
                0x00000000004220e4        0xc bin/win/DEBUG/obj/cbk_callbacks.o
 .pdata$onReceiveFrame_PT_1040
                0x00000000004220f0        0xc bin/win/DEBUG/obj/cbk_callbacks.o
 .pdata$onReceiveFrame_PT_2032
                0x00000000004220fc        0xc bin/win/DEBUG/obj/cbk_callbacks.o
 .pdata$onTimeoutFrame_PT_1024
                0x0000000000422108        0xc bin/win/DEBUG/obj/cbk_callbacks.o
 .pdata$onTimeoutFrame_PT_1040
                0x0000000000422114        0xc bin/win/DEBUG/obj/cbk_callbacks.o
 .pdata$onSendFrame_PT_1536
                0x0000000000422120        0xc bin/win/DEBUG/obj/cbk_callbacks.o
 .pdata$onSendFrame_PT_1537
                0x000000000042212c        0xc bin/win/DEBUG/obj/cbk_callbacks.o
 .pdata$onSendFrame_PT_1538
                0x0000000000422138        0xc bin/win/DEBUG/obj/cbk_callbacks.o
 .pdata$onDueCheckEventFrame_PT_1537
                0x0000000000422144        0xc bin/win/DEBUG/obj/cbk_callbacks.o
 .pdata$onDueCheckEventFrame_PT_1538
                0x0000000000422150        0xc bin/win/DEBUG/obj/cbk_callbacks.o
 .pdata$onInitFrame_PT_1024
                0x000000000042215c        0xc bin/win/DEBUG/obj/cbk_callbacks.o
 .pdata$onInitFrame_PT_1040
                0x0000000000422168        0xc bin/win/DEBUG/obj/cbk_callbacks.o
 .pdata$onInitFrame_PT_2032
                0x0000000000422174        0xc bin/win/DEBUG/obj/cbk_callbacks.o
 .pdata$onInitFrame_PT_1536
                0x0000000000422180        0xc bin/win/DEBUG/obj/cbk_callbacks.o
 .pdata$onInitFrame_PT_1537
                0x000000000042218c        0xc bin/win/DEBUG/obj/cbk_callbacks.o
 .pdata$onInitFrame_PT_1538
                0x0000000000422198        0xc bin/win/DEBUG/obj/cbk_callbacks.o
 .pdata$cbk_initInterface
                0x00000000004221a4        0xc bin/win/DEBUG/obj/cbk_callbacks.o
 .pdata$chk_validateSequenceCounter
                0x00000000004221b0        0xc bin/win/DEBUG/obj/chk_checksum.o
 .pdata$chk_updateSequenceCounter
                0x00000000004221bc        0xc bin/win/DEBUG/obj/chk_checksum.o
 .pdata$chk_validateChecksum
                0x00000000004221c8        0xc bin/win/DEBUG/obj/chk_checksum.o
 .pdata$chk_computeChecksum
                0x00000000004221d4        0xc bin/win/DEBUG/obj/chk_checksum.o
 .pdata$createTimer
                0x00000000004221e0        0xc bin/win/DEBUG/obj/ede_eventDispatcherEngine.o
 .pdata$invokeCallback
                0x00000000004221ec        0xc bin/win/DEBUG/obj/ede_eventDispatcherEngine.o
 .pdata$isExtEventSrc
                0x00000000004221f8        0xc bin/win/DEBUG/obj/ede_eventDispatcherEngine.o
 .pdata$getEventSourceFromContext
                0x0000000000422204        0xc bin/win/DEBUG/obj/ede_eventDispatcherEngine.o
 .pdata$getTimerObject
                0x0000000000422210        0xc bin/win/DEBUG/obj/ede_eventDispatcherEngine.o
 .pdata$ede_createDispatcherSystem
                0x000000000042221c        0xc bin/win/DEBUG/obj/ede_eventDispatcherEngine.o
 .pdata$ede_createDispatcher
                0x0000000000422228        0xc bin/win/DEBUG/obj/ede_eventDispatcherEngine.o
 .pdata$ede_registerExternalEventSource
                0x0000000000422234        0xc bin/win/DEBUG/obj/ede_eventDispatcherEngine.o
 .pdata$ede_registerInternalEventSource
                0x0000000000422240        0xc bin/win/DEBUG/obj/ede_eventDispatcherEngine.o
 .pdata$ede_dispatcherMain
                0x000000000042224c        0xc bin/win/DEBUG/obj/ede_eventDispatcherEngine.o
 .pdata$ede_createPeriodicTimer
                0x0000000000422258        0xc bin/win/DEBUG/obj/ede_eventDispatcherEngine.o
 .pdata$ede_createSingleShotTimer
                0x0000000000422264        0xc bin/win/DEBUG/obj/ede_eventDispatcherEngine.o
 .pdata$ede_killTimer
                0x0000000000422270        0xc bin/win/DEBUG/obj/ede_eventDispatcherEngine.o
 .pdata$ede_suspendSingleShotTimer
                0x000000000042227c        0xc bin/win/DEBUG/obj/ede_eventDispatcherEngine.o
 .pdata$ede_retriggerSingleShotTimer
                0x0000000000422288        0xc bin/win/DEBUG/obj/ede_eventDispatcherEngine.o
 .pdata$ede_installCallback
                0x0000000000422294        0xc bin/win/DEBUG/obj/ede_eventDispatcherEngine.o
 .pdata$ede_getIdxEventSource
                0x00000000004222a0        0xc bin/win/DEBUG/obj/ede_eventDispatcherEngine.o
 .pdata$ede_getIdxExternalEventSource
                0x00000000004222ac        0xc bin/win/DEBUG/obj/ede_eventDispatcherEngine.o
 .pdata$ede_getIdxInternalEventSource
                0x00000000004222b8        0xc bin/win/DEBUG/obj/ede_eventDispatcherEngine.o
 .pdata$ede_getEventSourceData
                0x00000000004222c4        0xc bin/win/DEBUG/obj/ede_eventDispatcherEngine.o
 .pdata$ede_getIdxPort
                0x00000000004222d0        0xc bin/win/DEBUG/obj/ede_eventDispatcherEngine.o
 .pdata$ede_getHandleTimer
                0x00000000004222dc        0xc bin/win/DEBUG/obj/ede_eventDispatcherEngine.o
 .pdata$ede_getKindOfEvent
                0x00000000004222e8        0xc bin/win/DEBUG/obj/ede_eventDispatcherEngine.o
 .pdata$ede_getEventData
                0x00000000004222f4        0xc bin/win/DEBUG/obj/ede_eventDispatcherEngine.o
 .pdata$ede_getTimerContextData
                0x0000000000422300        0xc bin/win/DEBUG/obj/ede_eventDispatcherEngine.o
 .pdata$ede_createSender
                0x000000000042230c        0xc bin/win/DEBUG/obj/ede_eventSender.o
 .pdata$ede_postEvent
                0x0000000000422318        0xc bin/win/DEBUG/obj/ede_eventSender.o
 .pdata$ede_postEventToPort
                0x0000000000422324        0xc bin/win/DEBUG/obj/ede_eventSender.o
 .pdata$ede_getNoSenderPortBlockedEvents
                0x0000000000422330        0xc bin/win/DEBUG/obj/ede_eventSender.o
 .pdata$vsnprintf
                0x000000000042233c        0xc bin/win/DEBUG/obj/fil_file.o
 .pdata$smalloc
                0x0000000000422348        0xc bin/win/DEBUG/obj/fil_file.o
 .pdata$stralloccpy
                0x0000000000422354        0xc bin/win/DEBUG/obj/fil_file.o
 .pdata$snprintf_patchMinGW64
                0x0000000000422360        0xc bin/win/DEBUG/obj/fil_file.o
 .pdata$removeTrailingSlash
                0x000000000042236c        0xc bin/win/DEBUG/obj/fil_file.o
 .pdata$checkForInstallDir
                0x0000000000422378        0xc bin/win/DEBUG/obj/fil_file.o
 .pdata$fil_splitPath
                0x0000000000422384        0xc bin/win/DEBUG/obj/fil_file.o
 .pdata$fil_changeExtension
                0x0000000000422390        0xc bin/win/DEBUG/obj/fil_file.o
 .pdata$fil_changeFileName
                0x000000000042239c        0xc bin/win/DEBUG/obj/fil_file.o
 .pdata$fil_copyFile
                0x00000000004223a8        0xc bin/win/DEBUG/obj/fil_file.o
 .pdata$fil_copyDir
                0x00000000004223b4        0xc bin/win/DEBUG/obj/fil_file.o
 .pdata$vsnprintf
                0x00000000004223c0        0xc bin/win/DEBUG/obj/log_logger.o
 .pdata$log_getLogLevel
                0x00000000004223cc        0xc bin/win/DEBUG/obj/log_logger.o
 .pdata$smalloc
                0x00000000004223d8        0xc bin/win/DEBUG/obj/log_logger.o
 .pdata$snprintf_patchMinGW64
                0x00000000004223e4        0xc bin/win/DEBUG/obj/log_logger.o
 .pdata$log_initModule
                0x00000000004223f0        0xc bin/win/DEBUG/obj/log_logger.o
 .pdata$log_shutdownModule
                0x00000000004223fc        0xc bin/win/DEBUG/obj/log_logger.o
 .pdata$log_createLogger
                0x0000000000422408        0xc bin/win/DEBUG/obj/log_logger.o
 .pdata$log_cloneByReference
                0x0000000000422414        0xc bin/win/DEBUG/obj/log_logger.o
 .pdata$log_deleteLogger
                0x0000000000422420        0xc bin/win/DEBUG/obj/log_logger.o
 .pdata$log_setEchoToConsole
                0x000000000042242c        0xc bin/win/DEBUG/obj/log_logger.o
 .pdata$log_setLogLevel
                0x0000000000422438        0xc bin/win/DEBUG/obj/log_logger.o
 .pdata$log_parseLogLevel
                0x0000000000422444        0xc bin/win/DEBUG/obj/log_logger.o
 .pdata$log_setLineFormat
                0x0000000000422450        0xc bin/win/DEBUG/obj/log_logger.o
 .pdata$log_parseLineFormat
                0x000000000042245c        0xc bin/win/DEBUG/obj/log_logger.o
 .pdata$log_getLengthOfLineHeader
                0x0000000000422468        0xc bin/win/DEBUG/obj/log_logger.o
 .pdata$log_close
                0x0000000000422474        0xc bin/win/DEBUG/obj/log_logger.o
 .pdata$log_getStreams
                0x0000000000422480        0xc bin/win/DEBUG/obj/log_logger.o
 .pdata$log_flush
                0x000000000042248c        0xc bin/win/DEBUG/obj/log_logger.o
 .pdata$logInternal
                0x0000000000422498        0xc bin/win/DEBUG/obj/log_logger.o
 .pdata$log_log
                0x00000000004224a4        0xc bin/win/DEBUG/obj/log_logger.o
 .pdata$log_logLine
                0x00000000004224b0        0xc bin/win/DEBUG/obj/log_logger.o
 .pdata$addKeyValuePair
                0x00000000004224bc        0xc bin/win/DEBUG/obj/m16_mapDirectLookupU16.o
 .pdata$getValue
                0x00000000004224c8        0xc bin/win/DEBUG/obj/m16_mapDirectLookupU16.o
 .pdata$m16_createMapDirectLookupU16
                0x00000000004224d4        0xc bin/win/DEBUG/obj/m16_mapDirectLookupU16.o
 .pdata$snprintf
                0x00000000004224e0        0xc bin/win/DEBUG/obj/main.o
 .pdata$smalloc
                0x00000000004224ec        0xc bin/win/DEBUG/obj/main.o
 .pdata$stralloccpy
                0x00000000004224f8        0xc bin/win/DEBUG/obj/main.o
 .pdata$log_getLogLevel
                0x0000000000422504        0xc bin/win/DEBUG/obj/main.o
 .pdata$log_getLineFormat
                0x0000000000422510        0xc bin/win/DEBUG/obj/main.o
 .pdata$getTimeStr
                0x000000000042251c        0xc bin/win/DEBUG/obj/main.o
 .pdata$getLogFileName
                0x0000000000422528        0xc bin/win/DEBUG/obj/main.o
 .pdata$main    0x0000000000422534        0xc bin/win/DEBUG/obj/main.o
 .pdata$comparePairsIdAndIdxById
                0x0000000000422540        0xc bin/win/DEBUG/obj/mci_mapBinarySearchCanId.o
 .pdata$getIdxByCanId
                0x000000000042254c        0xc bin/win/DEBUG/obj/mci_mapBinarySearchCanId.o
 .pdata$addKeyValuePair
                0x0000000000422558        0xc bin/win/DEBUG/obj/mci_mapBinarySearchCanId.o
 .pdata$getValue
                0x0000000000422564        0xc bin/win/DEBUG/obj/mci_mapBinarySearchCanId.o
 .pdata$mci_createMapBinarySearchCanId
                0x0000000000422570        0xc bin/win/DEBUG/obj/mci_mapBinarySearchCanId.o
 .pdata$mallocChunk
                0x000000000042257c        0xc bin/win/DEBUG/obj/mem_malloc.o
 .pdata$getNbrOfAvailableBytes
                0x0000000000422588        0xc bin/win/DEBUG/obj/mem_malloc.o
 .pdata$getNbrOfAllocatedBytes
                0x0000000000422594        0xc bin/win/DEBUG/obj/mem_malloc.o
 .pdata$mem_createMemoryPool
                0x00000000004225a0        0xc bin/win/DEBUG/obj/mem_malloc.o
 .pdata$log_getLogLevel
                0x00000000004225ac        0xc bin/win/DEBUG/obj/mhn_mapOsFrameHandleToCanIfHandle.o
 .pdata$add     0x00000000004225b8        0xc bin/win/DEBUG/obj/mhn_mapOsFrameHandleToCanIfHandle.o
 .pdata$get     0x00000000004225c4        0xc bin/win/DEBUG/obj/mhn_mapOsFrameHandleToCanIfHandle.o
 .pdata$mhn_initModule
                0x00000000004225d0        0xc bin/win/DEBUG/obj/mhn_mapOsFrameHandleToCanIfHandle.o
 .pdata$mhn_assignFrameToDispatcher
                0x00000000004225dc        0xc bin/win/DEBUG/obj/mhn_mapOsFrameHandleToCanIfHandle.o
 .pdata$mhn_addOsToEdeHandlePair
                0x00000000004225e8        0xc bin/win/DEBUG/obj/mhn_mapOsFrameHandleToCanIfHandle.o
 .pdata$mhn_mapOsFrameHandleToEdeIdx
                0x00000000004225f4        0xc bin/win/DEBUG/obj/mhn_mapOsFrameHandleToCanIfHandle.o
 .pdata$mhn_addMapEntrySenderEvHandleToSenderPortIndex
                0x0000000000422600        0xc bin/win/DEBUG/obj/mhn_mapOsFrameHandleToCanIfHandle.o
 .pdata$mhn_mapSenderEvHandleToSenderPortIndex
                0x000000000042260c        0xc bin/win/DEBUG/obj/mhn_mapOsFrameHandleToCanIfHandle.o
 .pdata$getValue
                0x0000000000422618        0xc bin/win/DEBUG/obj/mid_mapIdentity.o
 .pdata$mid_createMapIdentity
                0x0000000000422624        0xc bin/win/DEBUG/obj/mid_mapIdentity.o
 .pdata$addKeyValuePair
                0x0000000000422630        0xc bin/win/DEBUG/obj/mpo_mapOffsetOnly.o
 .pdata$getValue
                0x000000000042263c        0xc bin/win/DEBUG/obj/mpo_mapOffsetOnly.o
 .pdata$mpo_createMapOffsetOnly
                0x0000000000422648        0xc bin/win/DEBUG/obj/mpo_mapOffsetOnly.o
 .pdata$addKeyValuePair
                0x0000000000422654        0xc bin/win/DEBUG/obj/mu8_mapDirectLookupU8.o
 .pdata$getValue
                0x0000000000422660        0xc bin/win/DEBUG/obj/mu8_mapDirectLookupU8.o
 .pdata$mu8_createMapDirectLookupU8
                0x000000000042266c        0xc bin/win/DEBUG/obj/mu8_mapDirectLookupU8.o
 .pdata$checkUserInput
                0x0000000000422678        0xc bin/win/DEBUG/obj/opt_getOpt.o
 .pdata$opt_parseCmdLine
                0x0000000000422684        0xc bin/win/DEBUG/obj/opt_getOpt.o
 .pdata$opt_echoUserInput
                0x0000000000422690        0xc bin/win/DEBUG/obj/opt_getOpt.o
 .pdata$log_getLogLevel
                0x000000000042269c        0xc bin/win/DEBUG/obj/oss_operatingSystemSimulation.o
 .pdata$logCanFrame
                0x00000000004226a8        0xc bin/win/DEBUG/obj/oss_operatingSystemSimulation.o
 .pdata$clockMsgSpeed
                0x00000000004226b4        0xc bin/win/DEBUG/obj/oss_operatingSystemSimulation.o
 .pdata$clockMsgTorque
                0x00000000004226c0        0xc bin/win/DEBUG/obj/oss_operatingSystemSimulation.o
 .pdata$clockMsgUserLimits
                0x00000000004226cc        0xc bin/win/DEBUG/obj/oss_operatingSystemSimulation.o
 .pdata$task100us
                0x00000000004226d8        0xc bin/win/DEBUG/obj/oss_operatingSystemSimulation.o
 .pdata$oss_kernel
                0x00000000004226e4        0xc bin/win/DEBUG/obj/oss_operatingSystemSimulation.o
 .pdata$oss_installTask
                0x00000000004226f0        0xc bin/win/DEBUG/obj/oss_operatingSystemSimulation.o
 .pdata$oss_installIrqHandlerCanBusOff
                0x00000000004226fc        0xc bin/win/DEBUG/obj/oss_operatingSystemSimulation.o
 .pdata$oss_installIrqHandlerCanRx
                0x0000000000422708        0xc bin/win/DEBUG/obj/oss_operatingSystemSimulation.o
 .pdata$oss_registerFrameForReception
                0x0000000000422714        0xc bin/win/DEBUG/obj/oss_operatingSystemSimulation.o
 .pdata$oss_registerFrameForSending
                0x0000000000422720        0xc bin/win/DEBUG/obj/oss_operatingSystemSimulation.o
 .pdata$oss_restartCanBus
                0x000000000042272c        0xc bin/win/DEBUG/obj/oss_operatingSystemSimulation.o
 .pdata$oss_sendCanFrame
                0x0000000000422738        0xc bin/win/DEBUG/obj/oss_operatingSystemSimulation.o
 .pdata$pck_unpack_PT_StateEcu01_1024
                0x0000000000422744        0xc bin/win/DEBUG/obj/pck_packCanFrame.o
 .pdata$pck_unpack_PT_StateEcu02_1040
                0x0000000000422750        0xc bin/win/DEBUG/obj/pck_packCanFrame.o
 .pdata$pck_unpack_PT_UserLimits_2032
                0x000000000042275c        0xc bin/win/DEBUG/obj/pck_packCanFrame.o
 .pdata$pck_pack_PT_InfoPowerDisplay_1536
                0x0000000000422768        0xc bin/win/DEBUG/obj/pck_packCanFrame.o
 .pdata$pck_pack_PT_StatusPowerDisplay_1537
                0x0000000000422774        0xc bin/win/DEBUG/obj/pck_packCanFrame.o
 .pdata$pck_pack_PT_LimitsPowerDisplay_1538
                0x0000000000422780        0xc bin/win/DEBUG/obj/pck_packCanFrame.o
 .pdata$log_getLogLevel
                0x000000000042278c        0xc bin/win/DEBUG/obj/pwr_computeEnginePower.o
 .pdata$updateGlobalErrCounters
                0x0000000000422798        0xc bin/win/DEBUG/obj/pwr_computeEnginePower.o
 .pdata$pwr_computeEnginePwr
                0x00000000004227a4        0xc bin/win/DEBUG/obj/pwr_computeEnginePower.o
 .pdata$pwr_checkUserLimits
                0x00000000004227b0        0xc bin/win/DEBUG/obj/pwr_computeEnginePower.o
 .pdata$edePortSdr_allocBuffer
                0x00000000004227bc        0xc bin/win/DEBUG/obj/vsq_dispatcherPortInterface.o
 .pdata$edePortSdr_submitBuffer
                0x00000000004227c8        0xc bin/win/DEBUG/obj/vsq_dispatcherPortInterface.o
 .pdata$edePortDisp_readBuffer
                0x00000000004227d4        0xc bin/win/DEBUG/obj/vsq_dispatcherPortInterface.o
 .pdata$edePortDisp_freeBuffer
                0x00000000004227e0        0xc bin/win/DEBUG/obj/vsq_dispatcherPortInterface.o
 .pdata$vsq_createEventQueueHead
                0x00000000004227ec        0xc bin/win/DEBUG/obj/vsq_dispatcherPortInterface.o
 .pdata$vsq_createEventQueueTail
                0x00000000004227f8        0xc bin/win/DEBUG/obj/vsq_dispatcherPortInterface.o
 .pdata$vsq_linkEventQueueHeadWithTail
                0x0000000000422804        0xc bin/win/DEBUG/obj/vsq_dispatcherPortInterface.o
 .pdata$vsq_linkEventQueueTailWithHead
                0x0000000000422810        0xc bin/win/DEBUG/obj/vsq_dispatcherPortInterface.o
 .pdata$vsq_createEventQueue
                0x000000000042281c        0xc bin/win/DEBUG/obj/vsq_dispatcherPortInterface.o
 .pdata$alignedSizeOfObject
                0x0000000000422828        0xc bin/win/DEBUG/obj/vsq_threadSafeQueueVariableSize.o
 .pdata$isaligned
                0x0000000000422834        0xc bin/win/DEBUG/obj/vsq_threadSafeQueueVariableSize.o
 .pdata$calculateSizeOfRingBuffer
                0x0000000000422840        0xc bin/win/DEBUG/obj/vsq_threadSafeQueueVariableSize.o
 .pdata$getElementAt
                0x000000000042284c        0xc bin/win/DEBUG/obj/vsq_threadSafeQueueVariableSize.o
 .pdata$getLinkPtrOfElementAt
                0x0000000000422858        0xc bin/win/DEBUG/obj/vsq_threadSafeQueueVariableSize.o
 .pdata$setLinkPtrOfElementAt
                0x0000000000422864        0xc bin/win/DEBUG/obj/vsq_threadSafeQueueVariableSize.o
 .pdata$setHdrOfElementAt
                0x0000000000422870        0xc bin/win/DEBUG/obj/vsq_threadSafeQueueVariableSize.o
 .pdata$allocTailElement
                0x000000000042287c        0xc bin/win/DEBUG/obj/vsq_threadSafeQueueVariableSize.o
 .pdata$postTailElement
                0x0000000000422888        0xc bin/win/DEBUG/obj/vsq_threadSafeQueueVariableSize.o
 .pdata$byteOffsetOfRingBuffer
                0x0000000000422894        0xc bin/win/DEBUG/obj/vsq_threadSafeQueueVariableSize.o
 .pdata$vsq_getSizeOfQueueHead
                0x00000000004228a0        0xc bin/win/DEBUG/obj/vsq_threadSafeQueueVariableSize.o
 .pdata$vsq_getSizeOfQueueTail
                0x00000000004228ac        0xc bin/win/DEBUG/obj/vsq_threadSafeQueueVariableSize.o
 .pdata$vsq_createQueueHead
                0x00000000004228b8        0xc bin/win/DEBUG/obj/vsq_threadSafeQueueVariableSize.o
 .pdata$vsq_createQueueTail
                0x00000000004228c4        0xc bin/win/DEBUG/obj/vsq_threadSafeQueueVariableSize.o
 .pdata$vsq_linkQueueHeadWithTail
                0x00000000004228d0        0xc bin/win/DEBUG/obj/vsq_threadSafeQueueVariableSize.o
 .pdata$vsq_linkQueueTailWithHead
                0x00000000004228dc        0xc bin/win/DEBUG/obj/vsq_threadSafeQueueVariableSize.o
 .pdata$vsq_writeToTail
                0x00000000004228e8        0xc bin/win/DEBUG/obj/vsq_threadSafeQueueVariableSize.o
 .pdata$vsq_allocTailElement
                0x00000000004228f4        0xc bin/win/DEBUG/obj/vsq_threadSafeQueueVariableSize.o
 .pdata$vsq_postTailElement
                0x0000000000422900        0xc bin/win/DEBUG/obj/vsq_threadSafeQueueVariableSize.o
 .pdata$vsq_readFromHead
                0x000000000042290c        0xc bin/win/DEBUG/obj/vsq_threadSafeQueueVariableSize.o
 .pdata$vsq_getIsCommunicationBroken
                0x0000000000422918        0xc bin/win/DEBUG/obj/vsq_threadSafeQueueVariableSize.o
 .pdata$vsq_acknReSyncHead
                0x0000000000422924        0xc bin/win/DEBUG/obj/vsq_threadSafeQueueVariableSize.o
 .pdata$vsq_getMaximumQueueUsage
                0x0000000000422930        0xc bin/win/DEBUG/obj/vsq_threadSafeQueueVariableSize.o
 .pdata$vsq_getMaximumQueueUsageInByte
                0x000000000042293c        0xc bin/win/DEBUG/obj/vsq_threadSafeQueueVariableSize.o
 .pdata         0x0000000000422948       0x24 c:/ProgramFiles/mingw-w64-x86_64-8.1.0-posix-seh-rt_v6-rev0/mingw64/bin/../lib/gcc/x86_64-w64-mingw32/8.1.0/../../../../x86_64-w64-mingw32/lib/../lib/libmingw32.a(lib64_libmingw32_a-gccmain.o)
 .pdata         0x000000000042296c        0xc c:/ProgramFiles/mingw-w64-x86_64-8.1.0-posix-seh-rt_v6-rev0/mingw64/bin/../lib/gcc/x86_64-w64-mingw32/8.1.0/../../../../x86_64-w64-mingw32/lib/../lib/libmingw32.a(lib64_libmingw32_a-charmax.o)
 .pdata         0x0000000000422978        0xc c:/ProgramFiles/mingw-w64-x86_64-8.1.0-posix-seh-rt_v6-rev0/mingw64/bin/../lib/gcc/x86_64-w64-mingw32/8.1.0/../../../../x86_64-w64-mingw32/lib/../lib/libmingw32.a(lib64_libmingw32_a-dllargv.o)
 .pdata         0x0000000000422984       0x18 c:/ProgramFiles/mingw-w64-x86_64-8.1.0-posix-seh-rt_v6-rev0/mingw64/bin/../lib/gcc/x86_64-w64-mingw32/8.1.0/../../../../x86_64-w64-mingw32/lib/../lib/libmingw32.a(lib64_libmingw32_a-gs_support.o)
 .pdata         0x000000000042299c       0x24 c:/ProgramFiles/mingw-w64-x86_64-8.1.0-posix-seh-rt_v6-rev0/mingw64/bin/../lib/gcc/x86_64-w64-mingw32/8.1.0/../../../../x86_64-w64-mingw32/lib/../lib/libmingw32.a(lib64_libmingw32_a-tlssup.o)
 .pdata         0x00000000004229c0       0x24 c:/ProgramFiles/mingw-w64-x86_64-8.1.0-posix-seh-rt_v6-rev0/mingw64/bin/../lib/gcc/x86_64-w64-mingw32/8.1.0/../../../../x86_64-w64-mingw32/lib/../lib/libmingw32.a(lib64_libmingw32_a-merr.o)
 .pdata         0x00000000004229e4        0xc c:/ProgramFiles/mingw-w64-x86_64-8.1.0-posix-seh-rt_v6-rev0/mingw64/bin/../lib/gcc/x86_64-w64-mingw32/8.1.0/../../../../x86_64-w64-mingw32/lib/../lib/libmingw32.a(lib64_libmingw32_a-CRT_fp10.o)
 .pdata         0x00000000004229f0       0x18 c:/ProgramFiles/mingw-w64-x86_64-8.1.0-posix-seh-rt_v6-rev0/mingw64/bin/../lib/gcc/x86_64-w64-mingw32/8.1.0/../../../../x86_64-w64-mingw32/lib/../lib/libmingw32.a(lib64_libmingw32_a-mingw_helpers.o)
 .pdata.unlikely
                0x0000000000422a08        0xc c:/ProgramFiles/mingw-w64-x86_64-8.1.0-posix-seh-rt_v6-rev0/mingw64/bin/../lib/gcc/x86_64-w64-mingw32/8.1.0/../../../../x86_64-w64-mingw32/lib/../lib/libmingw32.a(lib64_libmingw32_a-pseudo-reloc.o)
 .pdata         0x0000000000422a14       0x18 c:/ProgramFiles/mingw-w64-x86_64-8.1.0-posix-seh-rt_v6-rev0/mingw64/bin/../lib/gcc/x86_64-w64-mingw32/8.1.0/../../../../x86_64-w64-mingw32/lib/../lib/libmingw32.a(lib64_libmingw32_a-pseudo-reloc.o)
 .pdata         0x0000000000422a2c       0x24 c:/ProgramFiles/mingw-w64-x86_64-8.1.0-posix-seh-rt_v6-rev0/mingw64/bin/../lib/gcc/x86_64-w64-mingw32/8.1.0/../../../../x86_64-w64-mingw32/lib/../lib/libmingw32.a(lib64_libmingw32_a-crt_handler.o)
 .pdata         0x0000000000422a50       0x30 c:/ProgramFiles/mingw-w64-x86_64-8.1.0-posix-seh-rt_v6-rev0/mingw64/bin/../lib/gcc/x86_64-w64-mingw32/8.1.0/../../../../x86_64-w64-mingw32/lib/../lib/libmingw32.a(lib64_libmingw32_a-tlsthrd.o)
 .pdata         0x0000000000422a80       0x78 c:/ProgramFiles/mingw-w64-x86_64-8.1.0-posix-seh-rt_v6-rev0/mingw64/bin/../lib/gcc/x86_64-w64-mingw32/8.1.0/../../../../x86_64-w64-mingw32/lib/../lib/libmingw32.a(lib64_libmingw32_a-pesect.o)
 .pdata         0x0000000000422af8        0xc c:/ProgramFiles/mingw-w64-x86_64-8.1.0-posix-seh-rt_v6-rev0/mingw64/bin/../lib/gcc/x86_64-w64-mingw32/8.1.0/../../../../x86_64-w64-mingw32/lib/../lib/libmingwex.a(lib64_libmingwex_a-strtodnrp.o)
 .pdata         0x0000000000422b04       0x48 c:/ProgramFiles/mingw-w64-x86_64-8.1.0-posix-seh-rt_v6-rev0/mingw64/bin/../lib/gcc/x86_64-w64-mingw32/8.1.0/../../../../x86_64-w64-mingw32/lib/../lib/libmingwex.a(lib64_libmingwex_a-dirent.o)
 .pdata         0x0000000000422b4c       0x54 c:/ProgramFiles/mingw-w64-x86_64-8.1.0-posix-seh-rt_v6-rev0/mingw64/bin/../lib/gcc/x86_64-w64-mingw32/8.1.0/../../../../x86_64-w64-mingw32/lib/../lib/libmingwex.a(lib64_libmingwex_a-getopt.o)
 .pdata         0x0000000000422ba0       0x18 c:/ProgramFiles/mingw-w64-x86_64-8.1.0-posix-seh-rt_v6-rev0/mingw64/bin/../lib/gcc/x86_64-w64-mingw32/8.1.0/../../../../x86_64-w64-mingw32/lib/../lib/libmingwex.a(lib64_libmingwex_a-wassert.o)
 .pdata         0x0000000000422bb8        0xc c:/ProgramFiles/mingw-w64-x86_64-8.1.0-posix-seh-rt_v6-rev0/mingw64/bin/../lib/gcc/x86_64-w64-mingw32/8.1.0/../../../../x86_64-w64-mingw32/lib/../lib/libmingwex.a(lib64_libmingwex_a-vsnprintf.o)
 .pdata         0x0000000000422bc4       0x3c c:/ProgramFiles/mingw-w64-x86_64-8.1.0-posix-seh-rt_v6-rev0/mingw64/bin/../lib/gcc/x86_64-w64-mingw32/8.1.0/../../../../x86_64-w64-mingw32/lib/../lib/libmingwex.a(lib64_libmingwex_a-strtodg.o)
 .pdata         0x0000000000422c00        0xc c:/ProgramFiles/mingw-w64-x86_64-8.1.0-posix-seh-rt_v6-rev0/mingw64/bin/../lib/gcc/x86_64-w64-mingw32/8.1.0/../../../../x86_64-w64-mingw32/lib/../lib/libmingwex.a(lib64_libmingwex_a-sum.o)
 .pdata         0x0000000000422c0c        0xc c:/ProgramFiles/mingw-w64-x86_64-8.1.0-posix-seh-rt_v6-rev0/mingw64/bin/../lib/gcc/x86_64-w64-mingw32/8.1.0/../../../../x86_64-w64-mingw32/lib/../lib/libmingwex.a(lib64_libmingwex_a-gethex.o)
 .pdata         0x0000000000422c18       0x18 c:/ProgramFiles/mingw-w64-x86_64-8.1.0-posix-seh-rt_v6-rev0/mingw64/bin/../lib/gcc/x86_64-w64-mingw32/8.1.0/../../../../x86_64-w64-mingw32/lib/../lib/libmingwex.a(lib64_libmingwex_a-gmisc.o)
 .pdata         0x0000000000422c30        0xc c:/ProgramFiles/mingw-w64-x86_64-8.1.0-posix-seh-rt_v6-rev0/mingw64/bin/../lib/gcc/x86_64-w64-mingw32/8.1.0/../../../../x86_64-w64-mingw32/lib/../lib/libmingwex.a(lib64_libmingwex_a-hd_init.o)
 .pdata         0x0000000000422c3c        0xc c:/ProgramFiles/mingw-w64-x86_64-8.1.0-posix-seh-rt_v6-rev0/mingw64/bin/../lib/gcc/x86_64-w64-mingw32/8.1.0/../../../../x86_64-w64-mingw32/lib/../lib/libmingwex.a(lib64_libmingwex_a-hexnan.o)
 .pdata         0x0000000000422c48       0xa8 c:/ProgramFiles/mingw-w64-x86_64-8.1.0-posix-seh-rt_v6-rev0/mingw64/bin/../lib/gcc/x86_64-w64-mingw32/8.1.0/../../../../x86_64-w64-mingw32/lib/../lib/libmingwex.a(lib64_libmingwex_a-misc.o)
 .pdata         0x0000000000422cf0       0x3c c:/ProgramFiles/mingw-w64-x86_64-8.1.0-posix-seh-rt_v6-rev0/mingw64/bin/../lib/gcc/x86_64-w64-mingw32/8.1.0/../../../../x86_64-w64-mingw32/lib/../lib/libmingwex.a(lib64_libmingwex_a-smisc.o)
 .pdata         0x0000000000422d2c        0xc c:/ProgramFiles/mingw-w64-x86_64-8.1.0-posix-seh-rt_v6-rev0/mingw64/bin/../lib/gcc/x86_64-w64-mingw32/8.1.0/../../../../x86_64-w64-mingw32/lib/../lib/libmsvcrt.a(lib64_libmsvcrt_os_a-acrt_iob_func.o)
 .pdata         0x0000000000422d38       0x18 c:/ProgramFiles/mingw-w64-x86_64-8.1.0-posix-seh-rt_v6-rev0/mingw64/bin/../lib/gcc/x86_64-w64-mingw32/8.1.0/../../../../x86_64-w64-mingw32/lib/../lib/libmsvcrt.a(lib64_libmsvcrt_os_a-invalid_parameter_handler.o)
 .pdata         0x0000000000422d50        0xc c:/ProgramFiles/mingw-w64-x86_64-8.1.0-posix-seh-rt_v6-rev0/mingw64/bin/../lib/gcc/x86_64-w64-mingw32/8.1.0/../../../../x86_64-w64-mingw32/lib/../lib/libmsvcrt.a(lib64_libmsvcrt_os_a-__p___argv.o)
 .pdata         0x0000000000422d5c        0xc c:/ProgramFiles/mingw-w64-x86_64-8.1.0-posix-seh-rt_v6-rev0/mingw64/bin/../lib/gcc/x86_64-w64-mingw32/8.1.0/../../../../x86_64-w64-mingw32/lib/../lib/libmsvcrt.a(lib64_libmsvcrt_os_a-__p__acmdln.o)
 .pdata         0x0000000000422d68        0xc c:/ProgramFiles/mingw-w64-x86_64-8.1.0-posix-seh-rt_v6-rev0/mingw64/bin/../lib/gcc/x86_64-w64-mingw32/8.1.0/../../../../x86_64-w64-mingw32/lib/../lib/libmsvcrt.a(lib64_libmsvcrt_os_a-__p__fmode.o)
 .pdata.startup
                0x0000000000422d74        0xc c:/ProgramFiles/mingw-w64-x86_64-8.1.0-posix-seh-rt_v6-rev0/mingw64/bin/../lib/gcc/x86_64-w64-mingw32/8.1.0/crtend.o

.xdata          0x0000000000423000      0xe00
 *(.xdata*)
 .xdata         0x0000000000423000       0x70 c:/ProgramFiles/mingw-w64-x86_64-8.1.0-posix-seh-rt_v6-rev0/mingw64/bin/../lib/gcc/x86_64-w64-mingw32/8.1.0/../../../../x86_64-w64-mingw32/lib/../lib/crt2.o
 .xdata         0x0000000000423070        0x8 c:/ProgramFiles/mingw-w64-x86_64-8.1.0-posix-seh-rt_v6-rev0/mingw64/bin/../lib/gcc/x86_64-w64-mingw32/8.1.0/crtbegin.o
 .xdata$log_getLogLevel
                0x0000000000423078        0x8 bin/win/DEBUG/obj/apt_applicationTask.o
 .xdata$apt_irqHandlerRxCan
                0x0000000000423080        0xc bin/win/DEBUG/obj/apt_applicationTask.o
 .xdata$apt_irqHandlerBusOff
                0x000000000042308c        0xc bin/win/DEBUG/obj/apt_applicationTask.o
 .xdata$onBusOnOff
                0x0000000000423098        0xc bin/win/DEBUG/obj/apt_applicationTask.o
 .xdata$onInitBus
                0x00000000004230a4        0xc bin/win/DEBUG/obj/apt_applicationTask.o
 .xdata$apt_taskInit
                0x00000000004230b0        0xc bin/win/DEBUG/obj/apt_applicationTask.o
 .xdata$apt_task10ms
                0x00000000004230bc        0xc bin/win/DEBUG/obj/apt_applicationTask.o
 .xdata$apt_task100ms
                0x00000000004230c8        0xc bin/win/DEBUG/obj/apt_applicationTask.o
 .xdata$apt_taskShutdown
                0x00000000004230d4        0xc bin/win/DEBUG/obj/apt_applicationTask.o
 .xdata$log_getLogLevel
                0x00000000004230e0        0x8 bin/win/DEBUG/obj/cbk_callbacks.o
 .xdata$onReceiveFrame_PT_1024
                0x00000000004230e8        0xc bin/win/DEBUG/obj/cbk_callbacks.o
 .xdata$onReceiveFrame_PT_1040
                0x00000000004230f4        0xc bin/win/DEBUG/obj/cbk_callbacks.o
 .xdata$onReceiveFrame_PT_2032
                0x0000000000423100        0xc bin/win/DEBUG/obj/cbk_callbacks.o
 .xdata$onTimeoutFrame_PT_1024
                0x000000000042310c        0xc bin/win/DEBUG/obj/cbk_callbacks.o
 .xdata$onTimeoutFrame_PT_1040
                0x0000000000423118        0xc bin/win/DEBUG/obj/cbk_callbacks.o
 .xdata$onSendFrame_PT_1536
                0x0000000000423124        0xc bin/win/DEBUG/obj/cbk_callbacks.o
 .xdata$onSendFrame_PT_1537
                0x0000000000423130        0xc bin/win/DEBUG/obj/cbk_callbacks.o
 .xdata$onSendFrame_PT_1538
                0x000000000042313c        0xc bin/win/DEBUG/obj/cbk_callbacks.o
 .xdata$onDueCheckEventFrame_PT_1537
                0x0000000000423148        0xc bin/win/DEBUG/obj/cbk_callbacks.o
 .xdata$onDueCheckEventFrame_PT_1538
                0x0000000000423154        0xc bin/win/DEBUG/obj/cbk_callbacks.o
 .xdata$onInitFrame_PT_1024
                0x0000000000423160        0xc bin/win/DEBUG/obj/cbk_callbacks.o
 .xdata$onInitFrame_PT_1040
                0x000000000042316c        0xc bin/win/DEBUG/obj/cbk_callbacks.o
 .xdata$onInitFrame_PT_2032
                0x0000000000423178        0xc bin/win/DEBUG/obj/cbk_callbacks.o
 .xdata$onInitFrame_PT_1536
                0x0000000000423184        0xc bin/win/DEBUG/obj/cbk_callbacks.o
 .xdata$onInitFrame_PT_1537
                0x0000000000423190        0xc bin/win/DEBUG/obj/cbk_callbacks.o
 .xdata$onInitFrame_PT_1538
                0x000000000042319c        0xc bin/win/DEBUG/obj/cbk_callbacks.o
 .xdata$cbk_initInterface
                0x00000000004231a8       0x18 bin/win/DEBUG/obj/cbk_callbacks.o
 .xdata$chk_validateSequenceCounter
                0x00000000004231c0        0xc bin/win/DEBUG/obj/chk_checksum.o
 .xdata$chk_updateSequenceCounter
                0x00000000004231cc        0x8 bin/win/DEBUG/obj/chk_checksum.o
 .xdata$chk_validateChecksum
                0x00000000004231d4        0xc bin/win/DEBUG/obj/chk_checksum.o
 .xdata$chk_computeChecksum
                0x00000000004231e0        0xc bin/win/DEBUG/obj/chk_checksum.o
 .xdata$createTimer
                0x00000000004231ec        0xc bin/win/DEBUG/obj/ede_eventDispatcherEngine.o
 .xdata$invokeCallback
                0x00000000004231f8        0xc bin/win/DEBUG/obj/ede_eventDispatcherEngine.o
 .xdata$isExtEventSrc
                0x0000000000423204        0xc bin/win/DEBUG/obj/ede_eventDispatcherEngine.o
 .xdata$getEventSourceFromContext
                0x0000000000423210        0xc bin/win/DEBUG/obj/ede_eventDispatcherEngine.o
 .xdata$getTimerObject
                0x000000000042321c        0xc bin/win/DEBUG/obj/ede_eventDispatcherEngine.o
 .xdata$ede_createDispatcherSystem
                0x0000000000423228        0xc bin/win/DEBUG/obj/ede_eventDispatcherEngine.o
 .xdata$ede_createDispatcher
                0x0000000000423234        0xc bin/win/DEBUG/obj/ede_eventDispatcherEngine.o
 .xdata$ede_registerExternalEventSource
                0x0000000000423240        0xc bin/win/DEBUG/obj/ede_eventDispatcherEngine.o
 .xdata$ede_registerInternalEventSource
                0x000000000042324c        0xc bin/win/DEBUG/obj/ede_eventDispatcherEngine.o
 .xdata$ede_dispatcherMain
                0x0000000000423258       0x10 bin/win/DEBUG/obj/ede_eventDispatcherEngine.o
 .xdata$ede_createPeriodicTimer
                0x0000000000423268        0xc bin/win/DEBUG/obj/ede_eventDispatcherEngine.o
 .xdata$ede_createSingleShotTimer
                0x0000000000423274        0xc bin/win/DEBUG/obj/ede_eventDispatcherEngine.o
 .xdata$ede_killTimer
                0x0000000000423280        0xc bin/win/DEBUG/obj/ede_eventDispatcherEngine.o
 .xdata$ede_suspendSingleShotTimer
                0x000000000042328c        0xc bin/win/DEBUG/obj/ede_eventDispatcherEngine.o
 .xdata$ede_retriggerSingleShotTimer
                0x0000000000423298        0xc bin/win/DEBUG/obj/ede_eventDispatcherEngine.o
 .xdata$ede_installCallback
                0x00000000004232a4        0xc bin/win/DEBUG/obj/ede_eventDispatcherEngine.o
 .xdata$ede_getIdxEventSource
                0x00000000004232b0        0xc bin/win/DEBUG/obj/ede_eventDispatcherEngine.o
 .xdata$ede_getIdxExternalEventSource
                0x00000000004232bc        0xc bin/win/DEBUG/obj/ede_eventDispatcherEngine.o
 .xdata$ede_getIdxInternalEventSource
                0x00000000004232c8        0xc bin/win/DEBUG/obj/ede_eventDispatcherEngine.o
 .xdata$ede_getEventSourceData
                0x00000000004232d4        0xc bin/win/DEBUG/obj/ede_eventDispatcherEngine.o
 .xdata$ede_getIdxPort
                0x00000000004232e0        0x8 bin/win/DEBUG/obj/ede_eventDispatcherEngine.o
 .xdata$ede_getHandleTimer
                0x00000000004232e8        0xc bin/win/DEBUG/obj/ede_eventDispatcherEngine.o
 .xdata$ede_getKindOfEvent
                0x00000000004232f4        0x8 bin/win/DEBUG/obj/ede_eventDispatcherEngine.o
 .xdata$ede_getEventData
                0x00000000004232fc        0xc bin/win/DEBUG/obj/ede_eventDispatcherEngine.o
 .xdata$ede_getTimerContextData
                0x0000000000423308        0xc bin/win/DEBUG/obj/ede_eventDispatcherEngine.o
 .xdata$ede_createSender
                0x0000000000423314        0xc bin/win/DEBUG/obj/ede_eventSender.o
 .xdata$ede_postEvent
                0x0000000000423320        0xc bin/win/DEBUG/obj/ede_eventSender.o
 .xdata$ede_postEventToPort
                0x000000000042332c        0xc bin/win/DEBUG/obj/ede_eventSender.o
 .xdata$ede_getNoSenderPortBlockedEvents
                0x0000000000423338        0xc bin/win/DEBUG/obj/ede_eventSender.o
 .xdata$vsnprintf
                0x0000000000423344        0xc bin/win/DEBUG/obj/fil_file.o
 .xdata$smalloc
                0x0000000000423350        0xc bin/win/DEBUG/obj/fil_file.o
 .xdata$stralloccpy
                0x000000000042335c        0xc bin/win/DEBUG/obj/fil_file.o
 .xdata$snprintf_patchMinGW64
                0x0000000000423368        0xc bin/win/DEBUG/obj/fil_file.o
 .xdata$removeTrailingSlash
                0x0000000000423374        0xc bin/win/DEBUG/obj/fil_file.o
 .xdata$checkForInstallDir
                0x0000000000423380       0x14 bin/win/DEBUG/obj/fil_file.o
 .xdata$fil_splitPath
                0x0000000000423394        0xc bin/win/DEBUG/obj/fil_file.o
 .xdata$fil_changeExtension
                0x00000000004233a0       0x18 bin/win/DEBUG/obj/fil_file.o
 .xdata$fil_changeFileName
                0x00000000004233b8       0x18 bin/win/DEBUG/obj/fil_file.o
 .xdata$fil_copyFile
                0x00000000004233d0        0xc bin/win/DEBUG/obj/fil_file.o
 .xdata$fil_copyDir
                0x00000000004233dc       0x1c bin/win/DEBUG/obj/fil_file.o
 .xdata$vsnprintf
                0x00000000004233f8        0xc bin/win/DEBUG/obj/log_logger.o
 .xdata$log_getLogLevel
                0x0000000000423404        0x8 bin/win/DEBUG/obj/log_logger.o
 .xdata$smalloc
                0x000000000042340c        0xc bin/win/DEBUG/obj/log_logger.o
 .xdata$snprintf_patchMinGW64
                0x0000000000423418        0xc bin/win/DEBUG/obj/log_logger.o
 .xdata$log_initModule
                0x0000000000423424        0xc bin/win/DEBUG/obj/log_logger.o
 .xdata$log_shutdownModule
                0x0000000000423430        0xc bin/win/DEBUG/obj/log_logger.o
 .xdata$log_createLogger
                0x000000000042343c        0xc bin/win/DEBUG/obj/log_logger.o
 .xdata$log_cloneByReference
                0x0000000000423448        0xc bin/win/DEBUG/obj/log_logger.o
 .xdata$log_deleteLogger
                0x0000000000423454        0xc bin/win/DEBUG/obj/log_logger.o
 .xdata$log_setEchoToConsole
                0x0000000000423460        0x8 bin/win/DEBUG/obj/log_logger.o
 .xdata$log_setLogLevel
                0x0000000000423468        0xc bin/win/DEBUG/obj/log_logger.o
 .xdata$log_parseLogLevel
                0x0000000000423474        0xc bin/win/DEBUG/obj/log_logger.o
 .xdata$log_setLineFormat
                0x0000000000423480        0xc bin/win/DEBUG/obj/log_logger.o
 .xdata$log_parseLineFormat
                0x000000000042348c        0xc bin/win/DEBUG/obj/log_logger.o
 .xdata$log_getLengthOfLineHeader
                0x0000000000423498        0xc bin/win/DEBUG/obj/log_logger.o
 .xdata$log_close
                0x00000000004234a4        0xc bin/win/DEBUG/obj/log_logger.o
 .xdata$log_getStreams
                0x00000000004234b0        0xc bin/win/DEBUG/obj/log_logger.o
 .xdata$log_flush
                0x00000000004234bc        0xc bin/win/DEBUG/obj/log_logger.o
 .xdata$logInternal
                0x00000000004234c8        0xc bin/win/DEBUG/obj/log_logger.o
 .xdata$log_log
                0x00000000004234d4        0xc bin/win/DEBUG/obj/log_logger.o
 .xdata$log_logLine
                0x00000000004234e0        0xc bin/win/DEBUG/obj/log_logger.o
 .xdata$addKeyValuePair
                0x00000000004234ec        0xc bin/win/DEBUG/obj/m16_mapDirectLookupU16.o
 .xdata$getValue
                0x00000000004234f8        0xc bin/win/DEBUG/obj/m16_mapDirectLookupU16.o
 .xdata$m16_createMapDirectLookupU16
                0x0000000000423504        0xc bin/win/DEBUG/obj/m16_mapDirectLookupU16.o
 .xdata$snprintf
                0x0000000000423510        0xc bin/win/DEBUG/obj/main.o
 .xdata$smalloc
                0x000000000042351c        0xc bin/win/DEBUG/obj/main.o
 .xdata$stralloccpy
                0x0000000000423528        0xc bin/win/DEBUG/obj/main.o
 .xdata$log_getLogLevel
                0x0000000000423534        0x8 bin/win/DEBUG/obj/main.o
 .xdata$log_getLineFormat
                0x000000000042353c        0x8 bin/win/DEBUG/obj/main.o
 .xdata$getTimeStr
                0x0000000000423544        0xc bin/win/DEBUG/obj/main.o
 .xdata$getLogFileName
                0x0000000000423550       0x18 bin/win/DEBUG/obj/main.o
 .xdata$main    0x0000000000423568        0xc bin/win/DEBUG/obj/main.o
 .xdata$comparePairsIdAndIdxById
                0x0000000000423574        0xc bin/win/DEBUG/obj/mci_mapBinarySearchCanId.o
 .xdata$getIdxByCanId
                0x0000000000423580        0xc bin/win/DEBUG/obj/mci_mapBinarySearchCanId.o
 .xdata$addKeyValuePair
                0x000000000042358c        0xc bin/win/DEBUG/obj/mci_mapBinarySearchCanId.o
 .xdata$getValue
                0x0000000000423598        0xc bin/win/DEBUG/obj/mci_mapBinarySearchCanId.o
 .xdata$mci_createMapBinarySearchCanId
                0x00000000004235a4        0xc bin/win/DEBUG/obj/mci_mapBinarySearchCanId.o
 .xdata$mallocChunk
                0x00000000004235b0        0xc bin/win/DEBUG/obj/mem_malloc.o
 .xdata$getNbrOfAvailableBytes
                0x00000000004235bc        0xc bin/win/DEBUG/obj/mem_malloc.o
 .xdata$getNbrOfAllocatedBytes
                0x00000000004235c8        0xc bin/win/DEBUG/obj/mem_malloc.o
 .xdata$mem_createMemoryPool
                0x00000000004235d4        0xc bin/win/DEBUG/obj/mem_malloc.o
 .xdata$log_getLogLevel
                0x00000000004235e0        0x8 bin/win/DEBUG/obj/mhn_mapOsFrameHandleToCanIfHandle.o
 .xdata$add     0x00000000004235e8        0xc bin/win/DEBUG/obj/mhn_mapOsFrameHandleToCanIfHandle.o
 .xdata$get     0x00000000004235f4        0xc bin/win/DEBUG/obj/mhn_mapOsFrameHandleToCanIfHandle.o
 .xdata$mhn_initModule
                0x0000000000423600        0xc bin/win/DEBUG/obj/mhn_mapOsFrameHandleToCanIfHandle.o
 .xdata$mhn_assignFrameToDispatcher
                0x000000000042360c        0xc bin/win/DEBUG/obj/mhn_mapOsFrameHandleToCanIfHandle.o
 .xdata$mhn_addOsToEdeHandlePair
                0x0000000000423618        0xc bin/win/DEBUG/obj/mhn_mapOsFrameHandleToCanIfHandle.o
 .xdata$mhn_mapOsFrameHandleToEdeIdx
                0x0000000000423624        0xc bin/win/DEBUG/obj/mhn_mapOsFrameHandleToCanIfHandle.o
 .xdata$mhn_addMapEntrySenderEvHandleToSenderPortIndex
                0x0000000000423630        0xc bin/win/DEBUG/obj/mhn_mapOsFrameHandleToCanIfHandle.o
 .xdata$mhn_mapSenderEvHandleToSenderPortIndex
                0x000000000042363c        0xc bin/win/DEBUG/obj/mhn_mapOsFrameHandleToCanIfHandle.o
 .xdata$getValue
                0x0000000000423648        0x8 bin/win/DEBUG/obj/mid_mapIdentity.o
 .xdata$mid_createMapIdentity
                0x0000000000423650        0x8 bin/win/DEBUG/obj/mid_mapIdentity.o
 .xdata$addKeyValuePair
                0x0000000000423658        0xc bin/win/DEBUG/obj/mpo_mapOffsetOnly.o
 .xdata$getValue
                0x0000000000423664        0xc bin/win/DEBUG/obj/mpo_mapOffsetOnly.o
 .xdata$mpo_createMapOffsetOnly
                0x0000000000423670        0xc bin/win/DEBUG/obj/mpo_mapOffsetOnly.o
 .xdata$addKeyValuePair
                0x000000000042367c        0xc bin/win/DEBUG/obj/mu8_mapDirectLookupU8.o
 .xdata$getValue
                0x0000000000423688        0xc bin/win/DEBUG/obj/mu8_mapDirectLookupU8.o
 .xdata$mu8_createMapDirectLookupU8
                0x0000000000423694        0xc bin/win/DEBUG/obj/mu8_mapDirectLookupU8.o
 .xdata$checkUserInput
                0x00000000004236a0        0xc bin/win/DEBUG/obj/opt_getOpt.o
 .xdata$opt_parseCmdLine
                0x00000000004236ac       0x10 bin/win/DEBUG/obj/opt_getOpt.o
 .xdata$opt_echoUserInput
                0x00000000004236bc       0x10 bin/win/DEBUG/obj/opt_getOpt.o
 .xdata$log_getLogLevel
                0x00000000004236cc        0x8 bin/win/DEBUG/obj/oss_operatingSystemSimulation.o
 .xdata$logCanFrame
                0x00000000004236d4        0xc bin/win/DEBUG/obj/oss_operatingSystemSimulation.o
 .xdata$clockMsgSpeed
                0x00000000004236e0        0xc bin/win/DEBUG/obj/oss_operatingSystemSimulation.o
 .xdata$clockMsgTorque
                0x00000000004236ec        0xc bin/win/DEBUG/obj/oss_operatingSystemSimulation.o
 .xdata$clockMsgUserLimits
                0x00000000004236f8        0xc bin/win/DEBUG/obj/oss_operatingSystemSimulation.o
 .xdata$task100us
                0x0000000000423704        0xc bin/win/DEBUG/obj/oss_operatingSystemSimulation.o
 .xdata$oss_kernel
                0x0000000000423710        0xc bin/win/DEBUG/obj/oss_operatingSystemSimulation.o
 .xdata$oss_installTask
                0x000000000042371c        0xc bin/win/DEBUG/obj/oss_operatingSystemSimulation.o
 .xdata$oss_installIrqHandlerCanBusOff
                0x0000000000423728        0xc bin/win/DEBUG/obj/oss_operatingSystemSimulation.o
 .xdata$oss_installIrqHandlerCanRx
                0x0000000000423734        0xc bin/win/DEBUG/obj/oss_operatingSystemSimulation.o
 .xdata$oss_registerFrameForReception
                0x0000000000423740        0xc bin/win/DEBUG/obj/oss_operatingSystemSimulation.o
 .xdata$oss_registerFrameForSending
                0x000000000042374c        0xc bin/win/DEBUG/obj/oss_operatingSystemSimulation.o
 .xdata$oss_restartCanBus
                0x0000000000423758        0xc bin/win/DEBUG/obj/oss_operatingSystemSimulation.o
 .xdata$oss_sendCanFrame
                0x0000000000423764        0xc bin/win/DEBUG/obj/oss_operatingSystemSimulation.o
 .xdata$pck_unpack_PT_StateEcu01_1024
                0x0000000000423770        0x8 bin/win/DEBUG/obj/pck_packCanFrame.o
 .xdata$pck_unpack_PT_StateEcu02_1040
                0x0000000000423778        0x8 bin/win/DEBUG/obj/pck_packCanFrame.o
 .xdata$pck_unpack_PT_UserLimits_2032
                0x0000000000423780        0x8 bin/win/DEBUG/obj/pck_packCanFrame.o
 .xdata$pck_pack_PT_InfoPowerDisplay_1536
                0x0000000000423788        0xc bin/win/DEBUG/obj/pck_packCanFrame.o
 .xdata$pck_pack_PT_StatusPowerDisplay_1537
                0x0000000000423794        0xc bin/win/DEBUG/obj/pck_packCanFrame.o
 .xdata$pck_pack_PT_LimitsPowerDisplay_1538
                0x00000000004237a0        0xc bin/win/DEBUG/obj/pck_packCanFrame.o
 .xdata$log_getLogLevel
                0x00000000004237ac        0x8 bin/win/DEBUG/obj/pwr_computeEnginePower.o
 .xdata$updateGlobalErrCounters
                0x00000000004237b4        0x8 bin/win/DEBUG/obj/pwr_computeEnginePower.o
 .xdata$pwr_computeEnginePwr
                0x00000000004237bc       0x10 bin/win/DEBUG/obj/pwr_computeEnginePower.o
 .xdata$pwr_checkUserLimits
                0x00000000004237cc        0xc bin/win/DEBUG/obj/pwr_computeEnginePower.o
 .xdata$edePortSdr_allocBuffer
                0x00000000004237d8        0xc bin/win/DEBUG/obj/vsq_dispatcherPortInterface.o
 .xdata$edePortSdr_submitBuffer
                0x00000000004237e4        0xc bin/win/DEBUG/obj/vsq_dispatcherPortInterface.o
 .xdata$edePortDisp_readBuffer
                0x00000000004237f0        0xc bin/win/DEBUG/obj/vsq_dispatcherPortInterface.o
 .xdata$edePortDisp_freeBuffer
                0x00000000004237fc        0x8 bin/win/DEBUG/obj/vsq_dispatcherPortInterface.o
 .xdata$vsq_createEventQueueHead
                0x0000000000423804        0xc bin/win/DEBUG/obj/vsq_dispatcherPortInterface.o
 .xdata$vsq_createEventQueueTail
                0x0000000000423810        0xc bin/win/DEBUG/obj/vsq_dispatcherPortInterface.o
 .xdata$vsq_linkEventQueueHeadWithTail
                0x000000000042381c       0x10 bin/win/DEBUG/obj/vsq_dispatcherPortInterface.o
 .xdata$vsq_linkEventQueueTailWithHead
                0x000000000042382c       0x10 bin/win/DEBUG/obj/vsq_dispatcherPortInterface.o
 .xdata$vsq_createEventQueue
                0x000000000042383c        0xc bin/win/DEBUG/obj/vsq_dispatcherPortInterface.o
 .xdata$alignedSizeOfObject
                0x0000000000423848        0xc bin/win/DEBUG/obj/vsq_threadSafeQueueVariableSize.o
 .xdata$isaligned
                0x0000000000423854        0x8 bin/win/DEBUG/obj/vsq_threadSafeQueueVariableSize.o
 .xdata$calculateSizeOfRingBuffer
                0x000000000042385c        0xc bin/win/DEBUG/obj/vsq_threadSafeQueueVariableSize.o
 .xdata$getElementAt
                0x0000000000423868        0xc bin/win/DEBUG/obj/vsq_threadSafeQueueVariableSize.o
 .xdata$getLinkPtrOfElementAt
                0x0000000000423874        0xc bin/win/DEBUG/obj/vsq_threadSafeQueueVariableSize.o
 .xdata$setLinkPtrOfElementAt
                0x0000000000423880        0xc bin/win/DEBUG/obj/vsq_threadSafeQueueVariableSize.o
 .xdata$setHdrOfElementAt
                0x000000000042388c        0xc bin/win/DEBUG/obj/vsq_threadSafeQueueVariableSize.o
 .xdata$allocTailElement
                0x0000000000423898        0xc bin/win/DEBUG/obj/vsq_threadSafeQueueVariableSize.o
 .xdata$postTailElement
                0x00000000004238a4        0x8 bin/win/DEBUG/obj/vsq_threadSafeQueueVariableSize.o
 .xdata$byteOffsetOfRingBuffer
                0x00000000004238ac        0xc bin/win/DEBUG/obj/vsq_threadSafeQueueVariableSize.o
 .xdata$vsq_getSizeOfQueueHead
                0x00000000004238b8        0x4 bin/win/DEBUG/obj/vsq_threadSafeQueueVariableSize.o
 .xdata$vsq_getSizeOfQueueTail
                0x00000000004238bc        0xc bin/win/DEBUG/obj/vsq_threadSafeQueueVariableSize.o
 .xdata$vsq_createQueueHead
                0x00000000004238c8        0xc bin/win/DEBUG/obj/vsq_threadSafeQueueVariableSize.o
 .xdata$vsq_createQueueTail
                0x00000000004238d4        0xc bin/win/DEBUG/obj/vsq_threadSafeQueueVariableSize.o
 .xdata$vsq_linkQueueHeadWithTail
                0x00000000004238e0        0x8 bin/win/DEBUG/obj/vsq_threadSafeQueueVariableSize.o
 .xdata$vsq_linkQueueTailWithHead
                0x00000000004238e8        0xc bin/win/DEBUG/obj/vsq_threadSafeQueueVariableSize.o
 .xdata$vsq_writeToTail
                0x00000000004238f4        0xc bin/win/DEBUG/obj/vsq_threadSafeQueueVariableSize.o
 .xdata$vsq_allocTailElement
                0x0000000000423900        0xc bin/win/DEBUG/obj/vsq_threadSafeQueueVariableSize.o
 .xdata$vsq_postTailElement
                0x000000000042390c        0xc bin/win/DEBUG/obj/vsq_threadSafeQueueVariableSize.o
 .xdata$vsq_readFromHead
                0x0000000000423918        0xc bin/win/DEBUG/obj/vsq_threadSafeQueueVariableSize.o
 .xdata$vsq_getIsCommunicationBroken
                0x0000000000423924        0x8 bin/win/DEBUG/obj/vsq_threadSafeQueueVariableSize.o
 .xdata$vsq_acknReSyncHead
                0x000000000042392c        0xc bin/win/DEBUG/obj/vsq_threadSafeQueueVariableSize.o
 .xdata$vsq_getMaximumQueueUsage
                0x0000000000423938        0xc bin/win/DEBUG/obj/vsq_threadSafeQueueVariableSize.o
 .xdata$vsq_getMaximumQueueUsageInByte
                0x0000000000423944        0xc bin/win/DEBUG/obj/vsq_threadSafeQueueVariableSize.o
 .xdata         0x0000000000423950       0x18 c:/ProgramFiles/mingw-w64-x86_64-8.1.0-posix-seh-rt_v6-rev0/mingw64/bin/../lib/gcc/x86_64-w64-mingw32/8.1.0/../../../../x86_64-w64-mingw32/lib/../lib/libmingw32.a(lib64_libmingw32_a-gccmain.o)
 .xdata         0x0000000000423968        0x4 c:/ProgramFiles/mingw-w64-x86_64-8.1.0-posix-seh-rt_v6-rev0/mingw64/bin/../lib/gcc/x86_64-w64-mingw32/8.1.0/../../../../x86_64-w64-mingw32/lib/../lib/libmingw32.a(lib64_libmingw32_a-charmax.o)
 .xdata         0x000000000042396c        0x4 c:/ProgramFiles/mingw-w64-x86_64-8.1.0-posix-seh-rt_v6-rev0/mingw64/bin/../lib/gcc/x86_64-w64-mingw32/8.1.0/../../../../x86_64-w64-mingw32/lib/../lib/libmingw32.a(lib64_libmingw32_a-dllargv.o)
 .xdata         0x0000000000423970       0x20 c:/ProgramFiles/mingw-w64-x86_64-8.1.0-posix-seh-rt_v6-rev0/mingw64/bin/../lib/gcc/x86_64-w64-mingw32/8.1.0/../../../../x86_64-w64-mingw32/lib/../lib/libmingw32.a(lib64_libmingw32_a-gs_support.o)
 .xdata         0x0000000000423990       0x18 c:/ProgramFiles/mingw-w64-x86_64-8.1.0-posix-seh-rt_v6-rev0/mingw64/bin/../lib/gcc/x86_64-w64-mingw32/8.1.0/../../../../x86_64-w64-mingw32/lib/../lib/libmingw32.a(lib64_libmingw32_a-tlssup.o)
 .xdata         0x00000000004239a8       0x24 c:/ProgramFiles/mingw-w64-x86_64-8.1.0-posix-seh-rt_v6-rev0/mingw64/bin/../lib/gcc/x86_64-w64-mingw32/8.1.0/../../../../x86_64-w64-mingw32/lib/../lib/libmingw32.a(lib64_libmingw32_a-merr.o)
 .xdata         0x00000000004239cc        0x4 c:/ProgramFiles/mingw-w64-x86_64-8.1.0-posix-seh-rt_v6-rev0/mingw64/bin/../lib/gcc/x86_64-w64-mingw32/8.1.0/../../../../x86_64-w64-mingw32/lib/../lib/libmingw32.a(lib64_libmingw32_a-CRT_fp10.o)
 .xdata         0x00000000004239d0        0x8 c:/ProgramFiles/mingw-w64-x86_64-8.1.0-posix-seh-rt_v6-rev0/mingw64/bin/../lib/gcc/x86_64-w64-mingw32/8.1.0/../../../../x86_64-w64-mingw32/lib/../lib/libmingw32.a(lib64_libmingw32_a-mingw_helpers.o)
 .xdata.unlikely
                0x00000000004239d8        0xc c:/ProgramFiles/mingw-w64-x86_64-8.1.0-posix-seh-rt_v6-rev0/mingw64/bin/../lib/gcc/x86_64-w64-mingw32/8.1.0/../../../../x86_64-w64-mingw32/lib/../lib/libmingw32.a(lib64_libmingw32_a-pseudo-reloc.o)
 .xdata         0x00000000004239e4       0x28 c:/ProgramFiles/mingw-w64-x86_64-8.1.0-posix-seh-rt_v6-rev0/mingw64/bin/../lib/gcc/x86_64-w64-mingw32/8.1.0/../../../../x86_64-w64-mingw32/lib/../lib/libmingw32.a(lib64_libmingw32_a-pseudo-reloc.o)
 .xdata         0x0000000000423a0c       0x20 c:/ProgramFiles/mingw-w64-x86_64-8.1.0-posix-seh-rt_v6-rev0/mingw64/bin/../lib/gcc/x86_64-w64-mingw32/8.1.0/../../../../x86_64-w64-mingw32/lib/../lib/libmingw32.a(lib64_libmingw32_a-crt_handler.o)
 .xdata         0x0000000000423a2c       0x30 c:/ProgramFiles/mingw-w64-x86_64-8.1.0-posix-seh-rt_v6-rev0/mingw64/bin/../lib/gcc/x86_64-w64-mingw32/8.1.0/../../../../x86_64-w64-mingw32/lib/../lib/libmingw32.a(lib64_libmingw32_a-tlsthrd.o)
 .xdata         0x0000000000423a5c       0x48 c:/ProgramFiles/mingw-w64-x86_64-8.1.0-posix-seh-rt_v6-rev0/mingw64/bin/../lib/gcc/x86_64-w64-mingw32/8.1.0/../../../../x86_64-w64-mingw32/lib/../lib/libmingw32.a(lib64_libmingw32_a-pesect.o)
 .xdata         0x0000000000423aa4        0x8 c:/ProgramFiles/mingw-w64-x86_64-8.1.0-posix-seh-rt_v6-rev0/mingw64/bin/../lib/gcc/x86_64-w64-mingw32/8.1.0/../../../../x86_64-w64-mingw32/lib/../lib/libmingwex.a(lib64_libmingwex_a-strtodnrp.o)
 .xdata         0x0000000000423aac       0x48 c:/ProgramFiles/mingw-w64-x86_64-8.1.0-posix-seh-rt_v6-rev0/mingw64/bin/../lib/gcc/x86_64-w64-mingw32/8.1.0/../../../../x86_64-w64-mingw32/lib/../lib/libmingwex.a(lib64_libmingwex_a-dirent.o)
 .xdata         0x0000000000423af4       0x64 c:/ProgramFiles/mingw-w64-x86_64-8.1.0-posix-seh-rt_v6-rev0/mingw64/bin/../lib/gcc/x86_64-w64-mingw32/8.1.0/../../../../x86_64-w64-mingw32/lib/../lib/libmingwex.a(lib64_libmingwex_a-getopt.o)
 .xdata         0x0000000000423b58       0x24 c:/ProgramFiles/mingw-w64-x86_64-8.1.0-posix-seh-rt_v6-rev0/mingw64/bin/../lib/gcc/x86_64-w64-mingw32/8.1.0/../../../../x86_64-w64-mingw32/lib/../lib/libmingwex.a(lib64_libmingwex_a-wassert.o)
 .xdata         0x0000000000423b7c        0x4 c:/ProgramFiles/mingw-w64-x86_64-8.1.0-posix-seh-rt_v6-rev0/mingw64/bin/../lib/gcc/x86_64-w64-mingw32/8.1.0/../../../../x86_64-w64-mingw32/lib/../lib/libmingwex.a(lib64_libmingwex_a-vsnprintf.o)
 .xdata         0x0000000000423b80       0x54 c:/ProgramFiles/mingw-w64-x86_64-8.1.0-posix-seh-rt_v6-rev0/mingw64/bin/../lib/gcc/x86_64-w64-mingw32/8.1.0/../../../../x86_64-w64-mingw32/lib/../lib/libmingwex.a(lib64_libmingwex_a-strtodg.o)
 .xdata         0x0000000000423bd4       0x14 c:/ProgramFiles/mingw-w64-x86_64-8.1.0-posix-seh-rt_v6-rev0/mingw64/bin/../lib/gcc/x86_64-w64-mingw32/8.1.0/../../../../x86_64-w64-mingw32/lib/../lib/libmingwex.a(lib64_libmingwex_a-sum.o)
 .xdata         0x0000000000423be8       0x18 c:/ProgramFiles/mingw-w64-x86_64-8.1.0-posix-seh-rt_v6-rev0/mingw64/bin/../lib/gcc/x86_64-w64-mingw32/8.1.0/../../../../x86_64-w64-mingw32/lib/../lib/libmingwex.a(lib64_libmingwex_a-gethex.o)
 .xdata         0x0000000000423c00       0x14 c:/ProgramFiles/mingw-w64-x86_64-8.1.0-posix-seh-rt_v6-rev0/mingw64/bin/../lib/gcc/x86_64-w64-mingw32/8.1.0/../../../../x86_64-w64-mingw32/lib/../lib/libmingwex.a(lib64_libmingwex_a-gmisc.o)
 .xdata         0x0000000000423c14        0x4 c:/ProgramFiles/mingw-w64-x86_64-8.1.0-posix-seh-rt_v6-rev0/mingw64/bin/../lib/gcc/x86_64-w64-mingw32/8.1.0/../../../../x86_64-w64-mingw32/lib/../lib/libmingwex.a(lib64_libmingwex_a-hd_init.o)
 .xdata         0x0000000000423c18       0x18 c:/ProgramFiles/mingw-w64-x86_64-8.1.0-posix-seh-rt_v6-rev0/mingw64/bin/../lib/gcc/x86_64-w64-mingw32/8.1.0/../../../../x86_64-w64-mingw32/lib/../lib/libmingwex.a(lib64_libmingwex_a-hexnan.o)
 .xdata         0x0000000000423c30       0xa4 c:/ProgramFiles/mingw-w64-x86_64-8.1.0-posix-seh-rt_v6-rev0/mingw64/bin/../lib/gcc/x86_64-w64-mingw32/8.1.0/../../../../x86_64-w64-mingw32/lib/../lib/libmingwex.a(lib64_libmingwex_a-misc.o)
 .xdata         0x0000000000423cd4       0x34 c:/ProgramFiles/mingw-w64-x86_64-8.1.0-posix-seh-rt_v6-rev0/mingw64/bin/../lib/gcc/x86_64-w64-mingw32/8.1.0/../../../../x86_64-w64-mingw32/lib/../lib/libmingwex.a(lib64_libmingwex_a-smisc.o)
 .xdata         0x0000000000423d08        0x8 c:/ProgramFiles/mingw-w64-x86_64-8.1.0-posix-seh-rt_v6-rev0/mingw64/bin/../lib/gcc/x86_64-w64-mingw32/8.1.0/../../../../x86_64-w64-mingw32/lib/../lib/libmsvcrt.a(lib64_libmsvcrt_os_a-acrt_iob_func.o)
 .xdata         0x0000000000423d10        0x8 c:/ProgramFiles/mingw-w64-x86_64-8.1.0-posix-seh-rt_v6-rev0/mingw64/bin/../lib/gcc/x86_64-w64-mingw32/8.1.0/../../../../x86_64-w64-mingw32/lib/../lib/libmsvcrt.a(lib64_libmsvcrt_os_a-invalid_parameter_handler.o)
 .xdata         0x0000000000423d18        0x4 c:/ProgramFiles/mingw-w64-x86_64-8.1.0-posix-seh-rt_v6-rev0/mingw64/bin/../lib/gcc/x86_64-w64-mingw32/8.1.0/../../../../x86_64-w64-mingw32/lib/../lib/libmsvcrt.a(lib64_libmsvcrt_os_a-__p___argv.o)
 .xdata         0x0000000000423d1c        0x4 c:/ProgramFiles/mingw-w64-x86_64-8.1.0-posix-seh-rt_v6-rev0/mingw64/bin/../lib/gcc/x86_64-w64-mingw32/8.1.0/../../../../x86_64-w64-mingw32/lib/../lib/libmsvcrt.a(lib64_libmsvcrt_os_a-__p__acmdln.o)
 .xdata         0x0000000000423d20        0x4 c:/ProgramFiles/mingw-w64-x86_64-8.1.0-posix-seh-rt_v6-rev0/mingw64/bin/../lib/gcc/x86_64-w64-mingw32/8.1.0/../../../../x86_64-w64-mingw32/lib/../lib/libmsvcrt.a(lib64_libmsvcrt_os_a-__p__fmode.o)
 .xdata.startup
                0x0000000000423d24        0x4 c:/ProgramFiles/mingw-w64-x86_64-8.1.0-posix-seh-rt_v6-rev0/mingw64/bin/../lib/gcc/x86_64-w64-mingw32/8.1.0/crtend.o

.bss            0x0000000000424000     0x1480
                0x0000000000424000                __bss_start__ = .
 *(.bss)
 .bss           0x0000000000424000       0x30 c:/ProgramFiles/mingw-w64-x86_64-8.1.0-posix-seh-rt_v6-rev0/mingw64/bin/../lib/gcc/x86_64-w64-mingw32/8.1.0/../../../../x86_64-w64-mingw32/lib/../lib/crt2.o
 .bss           0x0000000000424030        0x0 c:/ProgramFiles/mingw-w64-x86_64-8.1.0-posix-seh-rt_v6-rev0/mingw64/bin/../lib/gcc/x86_64-w64-mingw32/8.1.0/crtbegin.o
 .bss           0x0000000000424030        0x0 bin/win/DEBUG/obj/apt_applicationTask.o
 .bss           0x0000000000424030        0x0 bin/win/DEBUG/obj/cbk_callbacks.o
 .bss           0x0000000000424030        0x0 bin/win/DEBUG/obj/chk_checksum.o
 .bss           0x0000000000424030        0x0 bin/win/DEBUG/obj/ede_eventDispatcherEngine.o
 .bss           0x0000000000424030        0x0 bin/win/DEBUG/obj/ede_eventSender.o
 .bss           0x0000000000424030        0x0 bin/win/DEBUG/obj/fil_file.o
 .bss           0x0000000000424030        0x0 bin/win/DEBUG/obj/log_logger.o
 .bss           0x0000000000424030        0x0 bin/win/DEBUG/obj/m16_mapDirectLookupU16.o
 .bss           0x0000000000424030        0x0 bin/win/DEBUG/obj/main.o
 .bss           0x0000000000424030        0x0 bin/win/DEBUG/obj/mci_mapBinarySearchCanId.o
 .bss           0x0000000000424030        0x0 bin/win/DEBUG/obj/mem_malloc.o
 .bss           0x0000000000424030        0x0 bin/win/DEBUG/obj/mhn_mapOsFrameHandleToCanIfHandle.o
 .bss           0x0000000000424030        0x0 bin/win/DEBUG/obj/mid_mapIdentity.o
 .bss           0x0000000000424030        0x0 bin/win/DEBUG/obj/mpo_mapOffsetOnly.o
 .bss           0x0000000000424030        0x0 bin/win/DEBUG/obj/mu8_mapDirectLookupU8.o
 .bss           0x0000000000424030        0x0 bin/win/DEBUG/obj/opt_getOpt.o
 .bss           0x0000000000424030        0x0 bin/win/DEBUG/obj/oss_operatingSystemSimulation.o
 .bss           0x0000000000424030        0x0 bin/win/DEBUG/obj/pck_packCanFrame.o
 .bss           0x0000000000424030        0x0 bin/win/DEBUG/obj/pwr_computeEnginePower.o
 .bss           0x0000000000424030        0x0 bin/win/DEBUG/obj/vsq_dispatcherPortInterface.o
 .bss           0x0000000000424030        0x0 bin/win/DEBUG/obj/vsq_threadSafeQueueVariableSize.o
 .bss           0x0000000000424030       0x10 c:/ProgramFiles/mingw-w64-x86_64-8.1.0-posix-seh-rt_v6-rev0/mingw64/bin/../lib/gcc/x86_64-w64-mingw32/8.1.0/../../../../x86_64-w64-mingw32/lib/../lib/libmingw32.a(lib64_libmingw32_a-gccmain.o)
 .bss           0x0000000000424040        0x0 c:/ProgramFiles/mingw-w64-x86_64-8.1.0-posix-seh-rt_v6-rev0/mingw64/bin/../lib/gcc/x86_64-w64-mingw32/8.1.0/../../../../x86_64-w64-mingw32/lib/../lib/libmingw32.a(lib64_libmingw32_a-natstart.o)
 .bss           0x0000000000424040        0x0 c:/ProgramFiles/mingw-w64-x86_64-8.1.0-posix-seh-rt_v6-rev0/mingw64/bin/../lib/gcc/x86_64-w64-mingw32/8.1.0/../../../../x86_64-w64-mingw32/lib/../lib/libmingw32.a(lib64_libmingw32_a-wildcard.o)
 .bss           0x0000000000424040       0x10 c:/ProgramFiles/mingw-w64-x86_64-8.1.0-posix-seh-rt_v6-rev0/mingw64/bin/../lib/gcc/x86_64-w64-mingw32/8.1.0/../../../../x86_64-w64-mingw32/lib/../lib/libmingw32.a(lib64_libmingw32_a-charmax.o)
                0x0000000000424040                mingw_initcharmax
 .bss           0x0000000000424050        0x0 c:/ProgramFiles/mingw-w64-x86_64-8.1.0-posix-seh-rt_v6-rev0/mingw64/bin/../lib/gcc/x86_64-w64-mingw32/8.1.0/../../../../x86_64-w64-mingw32/lib/../lib/libmingw32.a(lib64_libmingw32_a-dllargv.o)
 *fill*         0x0000000000424050       0x10 
 .bss           0x0000000000424060      0x580 c:/ProgramFiles/mingw-w64-x86_64-8.1.0-posix-seh-rt_v6-rev0/mingw64/bin/../lib/gcc/x86_64-w64-mingw32/8.1.0/../../../../x86_64-w64-mingw32/lib/../lib/libmingw32.a(lib64_libmingw32_a-gs_support.o)
 .bss           0x00000000004245e0       0x10 c:/ProgramFiles/mingw-w64-x86_64-8.1.0-posix-seh-rt_v6-rev0/mingw64/bin/../lib/gcc/x86_64-w64-mingw32/8.1.0/../../../../x86_64-w64-mingw32/lib/../lib/libmingw32.a(lib64_libmingw32_a-_newmode.o)
                0x00000000004245e0                _newmode
 .bss           0x00000000004245f0       0x10 c:/ProgramFiles/mingw-w64-x86_64-8.1.0-posix-seh-rt_v6-rev0/mingw64/bin/../lib/gcc/x86_64-w64-mingw32/8.1.0/../../../../x86_64-w64-mingw32/lib/../lib/libmingw32.a(lib64_libmingw32_a-tlssup.o)
                0x00000000004245f0                mingw_initltssuo_force
                0x00000000004245f4                mingw_initltsdyn_force
                0x00000000004245f8                mingw_initltsdrot_force
                0x00000000004245fc                _tls_index
 .bss           0x0000000000424600        0x0 c:/ProgramFiles/mingw-w64-x86_64-8.1.0-posix-seh-rt_v6-rev0/mingw64/bin/../lib/gcc/x86_64-w64-mingw32/8.1.0/../../../../x86_64-w64-mingw32/lib/../lib/libmingw32.a(lib64_libmingw32_a-cinitexe.o)
 .bss           0x0000000000424600       0x10 c:/ProgramFiles/mingw-w64-x86_64-8.1.0-posix-seh-rt_v6-rev0/mingw64/bin/../lib/gcc/x86_64-w64-mingw32/8.1.0/../../../../x86_64-w64-mingw32/lib/../lib/libmingw32.a(lib64_libmingw32_a-merr.o)
 .bss           0x0000000000424610        0x0 c:/ProgramFiles/mingw-w64-x86_64-8.1.0-posix-seh-rt_v6-rev0/mingw64/bin/../lib/gcc/x86_64-w64-mingw32/8.1.0/../../../../x86_64-w64-mingw32/lib/../lib/libmingw32.a(lib64_libmingw32_a-CRT_fp10.o)
 .bss           0x0000000000424610       0x10 c:/ProgramFiles/mingw-w64-x86_64-8.1.0-posix-seh-rt_v6-rev0/mingw64/bin/../lib/gcc/x86_64-w64-mingw32/8.1.0/../../../../x86_64-w64-mingw32/lib/../lib/libmingw32.a(lib64_libmingw32_a-mingw_helpers.o)
                0x0000000000424610                mingw_app_type
 .bss           0x0000000000424620       0x10 c:/ProgramFiles/mingw-w64-x86_64-8.1.0-posix-seh-rt_v6-rev0/mingw64/bin/../lib/gcc/x86_64-w64-mingw32/8.1.0/../../../../x86_64-w64-mingw32/lib/../lib/libmingw32.a(lib64_libmingw32_a-pseudo-reloc.o)
 .bss           0x0000000000424630       0x10 c:/ProgramFiles/mingw-w64-x86_64-8.1.0-posix-seh-rt_v6-rev0/mingw64/bin/../lib/gcc/x86_64-w64-mingw32/8.1.0/../../../../x86_64-w64-mingw32/lib/../lib/libmingw32.a(lib64_libmingw32_a-xtxtmode.o)
                0x0000000000424630                _fmode
 .bss           0x0000000000424640      0x2a0 c:/ProgramFiles/mingw-w64-x86_64-8.1.0-posix-seh-rt_v6-rev0/mingw64/bin/../lib/gcc/x86_64-w64-mingw32/8.1.0/../../../../x86_64-w64-mingw32/lib/../lib/libmingw32.a(lib64_libmingw32_a-crt_handler.o)
                0x0000000000424640                __mingw_oldexcpt_handler
 .bss           0x00000000004248e0       0x60 c:/ProgramFiles/mingw-w64-x86_64-8.1.0-posix-seh-rt_v6-rev0/mingw64/bin/../lib/gcc/x86_64-w64-mingw32/8.1.0/../../../../x86_64-w64-mingw32/lib/../lib/libmingw32.a(lib64_libmingw32_a-tlsthrd.o)
 .bss           0x0000000000424940        0x0 c:/ProgramFiles/mingw-w64-x86_64-8.1.0-posix-seh-rt_v6-rev0/mingw64/bin/../lib/gcc/x86_64-w64-mingw32/8.1.0/../../../../x86_64-w64-mingw32/lib/../lib/libmingw32.a(lib64_libmingw32_a-tlsmcrt.o)
 .bss           0x0000000000424940       0x10 c:/ProgramFiles/mingw-w64-x86_64-8.1.0-posix-seh-rt_v6-rev0/mingw64/bin/../lib/gcc/x86_64-w64-mingw32/8.1.0/../../../../x86_64-w64-mingw32/lib/../lib/libmingw32.a(lib64_libmingw32_a-pseudo-reloc-list.o)
 .bss           0x0000000000424950        0x0 c:/ProgramFiles/mingw-w64-x86_64-8.1.0-posix-seh-rt_v6-rev0/mingw64/bin/../lib/gcc/x86_64-w64-mingw32/8.1.0/../../../../x86_64-w64-mingw32/lib/../lib/libmingw32.a(lib64_libmingw32_a-pesect.o)
 .bss           0x0000000000424950        0x0 c:/ProgramFiles/mingw-w64-x86_64-8.1.0-posix-seh-rt_v6-rev0/mingw64/bin/../lib/gcc/x86_64-w64-mingw32/8.1.0/libgcc.a(_chkstk_ms.o)
 .bss           0x0000000000424950        0x0 c:/ProgramFiles/mingw-w64-x86_64-8.1.0-posix-seh-rt_v6-rev0/mingw64/bin/../lib/gcc/x86_64-w64-mingw32/8.1.0/libgcc.a(_ctors.o)
 .bss           0x0000000000424950        0x0 c:/ProgramFiles/mingw-w64-x86_64-8.1.0-posix-seh-rt_v6-rev0/mingw64/bin/../lib/gcc/x86_64-w64-mingw32/8.1.0/../../../../x86_64-w64-mingw32/lib/../lib/libmingwex.a(lib64_libmingwex_a-strtodnrp.o)
 .bss           0x0000000000424950        0x0 c:/ProgramFiles/mingw-w64-x86_64-8.1.0-posix-seh-rt_v6-rev0/mingw64/bin/../lib/gcc/x86_64-w64-mingw32/8.1.0/../../../../x86_64-w64-mingw32/lib/../lib/libmingwex.a(lib64_libmingwex_a-dirent.o)
 .bss           0x0000000000424950        0x0 c:/ProgramFiles/mingw-w64-x86_64-8.1.0-posix-seh-rt_v6-rev0/mingw64/bin/../lib/gcc/x86_64-w64-mingw32/8.1.0/../../../../x86_64-w64-mingw32/lib/../lib/libmingwex.a(lib64_libmingwex_a-getopt.o)
 .bss           0x0000000000424950        0x0 c:/ProgramFiles/mingw-w64-x86_64-8.1.0-posix-seh-rt_v6-rev0/mingw64/bin/../lib/gcc/x86_64-w64-mingw32/8.1.0/../../../../x86_64-w64-mingw32/lib/../lib/libmingwex.a(lib64_libmingwex_a-mingw_matherr.o)
 .bss           0x0000000000424950        0x0 c:/ProgramFiles/mingw-w64-x86_64-8.1.0-posix-seh-rt_v6-rev0/mingw64/bin/../lib/gcc/x86_64-w64-mingw32/8.1.0/../../../../x86_64-w64-mingw32/lib/../lib/libmingwex.a(lib64_libmingwex_a-wassert.o)
 .bss           0x0000000000424950        0x0 c:/ProgramFiles/mingw-w64-x86_64-8.1.0-posix-seh-rt_v6-rev0/mingw64/bin/../lib/gcc/x86_64-w64-mingw32/8.1.0/../../../../x86_64-w64-mingw32/lib/../lib/libmingwex.a(lib64_libmingwex_a-vsnprintf.o)
 .bss           0x0000000000424950        0x0 c:/ProgramFiles/mingw-w64-x86_64-8.1.0-posix-seh-rt_v6-rev0/mingw64/bin/../lib/gcc/x86_64-w64-mingw32/8.1.0/../../../../x86_64-w64-mingw32/lib/../lib/libmingwex.a(lib64_libmingwex_a-strtodg.o)
 .bss           0x0000000000424950        0x0 c:/ProgramFiles/mingw-w64-x86_64-8.1.0-posix-seh-rt_v6-rev0/mingw64/bin/../lib/gcc/x86_64-w64-mingw32/8.1.0/../../../../x86_64-w64-mingw32/lib/../lib/libmingwex.a(lib64_libmingwex_a-sum.o)
 .bss           0x0000000000424950        0x0 c:/ProgramFiles/mingw-w64-x86_64-8.1.0-posix-seh-rt_v6-rev0/mingw64/bin/../lib/gcc/x86_64-w64-mingw32/8.1.0/../../../../x86_64-w64-mingw32/lib/../lib/libmingwex.a(lib64_libmingwex_a-gethex.o)
 .bss           0x0000000000424950        0x0 c:/ProgramFiles/mingw-w64-x86_64-8.1.0-posix-seh-rt_v6-rev0/mingw64/bin/../lib/gcc/x86_64-w64-mingw32/8.1.0/../../../../x86_64-w64-mingw32/lib/../lib/libmingwex.a(lib64_libmingwex_a-gmisc.o)
 .bss           0x0000000000424950        0x0 c:/ProgramFiles/mingw-w64-x86_64-8.1.0-posix-seh-rt_v6-rev0/mingw64/bin/../lib/gcc/x86_64-w64-mingw32/8.1.0/../../../../x86_64-w64-mingw32/lib/../lib/libmingwex.a(lib64_libmingwex_a-hd_init.o)
 .bss           0x0000000000424950        0x0 c:/ProgramFiles/mingw-w64-x86_64-8.1.0-posix-seh-rt_v6-rev0/mingw64/bin/../lib/gcc/x86_64-w64-mingw32/8.1.0/../../../../x86_64-w64-mingw32/lib/../lib/libmingwex.a(lib64_libmingwex_a-hexnan.o)
 *fill*         0x0000000000424950       0x10 
 .bss           0x0000000000424960      0x9e0 c:/ProgramFiles/mingw-w64-x86_64-8.1.0-posix-seh-rt_v6-rev0/mingw64/bin/../lib/gcc/x86_64-w64-mingw32/8.1.0/../../../../x86_64-w64-mingw32/lib/../lib/libmingwex.a(lib64_libmingwex_a-misc.o)
 .bss           0x0000000000425340        0x0 c:/ProgramFiles/mingw-w64-x86_64-8.1.0-posix-seh-rt_v6-rev0/mingw64/bin/../lib/gcc/x86_64-w64-mingw32/8.1.0/../../../../x86_64-w64-mingw32/lib/../lib/libmingwex.a(lib64_libmingwex_a-smisc.o)
 .bss           0x0000000000425340        0x0 c:/ProgramFiles/mingw-w64-x86_64-8.1.0-posix-seh-rt_v6-rev0/mingw64/bin/../lib/gcc/x86_64-w64-mingw32/8.1.0/../../../../x86_64-w64-mingw32/lib/../lib/libmsvcrt.a(duags01260.o)
 .bss           0x0000000000425340        0x0 c:/ProgramFiles/mingw-w64-x86_64-8.1.0-posix-seh-rt_v6-rev0/mingw64/bin/../lib/gcc/x86_64-w64-mingw32/8.1.0/../../../../x86_64-w64-mingw32/lib/../lib/libmsvcrt.a(duags01243.o)
 .bss           0x0000000000425340        0x0 c:/ProgramFiles/mingw-w64-x86_64-8.1.0-posix-seh-rt_v6-rev0/mingw64/bin/../lib/gcc/x86_64-w64-mingw32/8.1.0/../../../../x86_64-w64-mingw32/lib/../lib/libmsvcrt.a(duags01214.o)
 .bss           0x0000000000425340        0x0 c:/ProgramFiles/mingw-w64-x86_64-8.1.0-posix-seh-rt_v6-rev0/mingw64/bin/../lib/gcc/x86_64-w64-mingw32/8.1.0/../../../../x86_64-w64-mingw32/lib/../lib/libmsvcrt.a(duags01212.o)
 .bss           0x0000000000425340        0x0 c:/ProgramFiles/mingw-w64-x86_64-8.1.0-posix-seh-rt_v6-rev0/mingw64/bin/../lib/gcc/x86_64-w64-mingw32/8.1.0/../../../../x86_64-w64-mingw32/lib/../lib/libmsvcrt.a(duags01211.o)
 .bss           0x0000000000425340        0x0 c:/ProgramFiles/mingw-w64-x86_64-8.1.0-posix-seh-rt_v6-rev0/mingw64/bin/../lib/gcc/x86_64-w64-mingw32/8.1.0/../../../../x86_64-w64-mingw32/lib/../lib/libmsvcrt.a(duags01209.o)
 .bss           0x0000000000425340        0x0 c:/ProgramFiles/mingw-w64-x86_64-8.1.0-posix-seh-rt_v6-rev0/mingw64/bin/../lib/gcc/x86_64-w64-mingw32/8.1.0/../../../../x86_64-w64-mingw32/lib/../lib/libmsvcrt.a(duags01208.o)
 .bss           0x0000000000425340        0x0 c:/ProgramFiles/mingw-w64-x86_64-8.1.0-posix-seh-rt_v6-rev0/mingw64/bin/../lib/gcc/x86_64-w64-mingw32/8.1.0/../../../../x86_64-w64-mingw32/lib/../lib/libmsvcrt.a(duags01203.o)
 .bss           0x0000000000425340        0x0 c:/ProgramFiles/mingw-w64-x86_64-8.1.0-posix-seh-rt_v6-rev0/mingw64/bin/../lib/gcc/x86_64-w64-mingw32/8.1.0/../../../../x86_64-w64-mingw32/lib/../lib/libmsvcrt.a(duags01201.o)
 .bss           0x0000000000425340        0x0 c:/ProgramFiles/mingw-w64-x86_64-8.1.0-posix-seh-rt_v6-rev0/mingw64/bin/../lib/gcc/x86_64-w64-mingw32/8.1.0/../../../../x86_64-w64-mingw32/lib/../lib/libmsvcrt.a(duags01200.o)
 .bss           0x0000000000425340        0x0 c:/ProgramFiles/mingw-w64-x86_64-8.1.0-posix-seh-rt_v6-rev0/mingw64/bin/../lib/gcc/x86_64-w64-mingw32/8.1.0/../../../../x86_64-w64-mingw32/lib/../lib/libmsvcrt.a(duags01187.o)
 .bss           0x0000000000425340        0x0 c:/ProgramFiles/mingw-w64-x86_64-8.1.0-posix-seh-rt_v6-rev0/mingw64/bin/../lib/gcc/x86_64-w64-mingw32/8.1.0/../../../../x86_64-w64-mingw32/lib/../lib/libmsvcrt.a(duags01176.o)
 .bss           0x0000000000425340        0x0 c:/ProgramFiles/mingw-w64-x86_64-8.1.0-posix-seh-rt_v6-rev0/mingw64/bin/../lib/gcc/x86_64-w64-mingw32/8.1.0/../../../../x86_64-w64-mingw32/lib/../lib/libmsvcrt.a(duags01175.o)
 .bss           0x0000000000425340        0x0 c:/ProgramFiles/mingw-w64-x86_64-8.1.0-posix-seh-rt_v6-rev0/mingw64/bin/../lib/gcc/x86_64-w64-mingw32/8.1.0/../../../../x86_64-w64-mingw32/lib/../lib/libmsvcrt.a(duags01170.o)
 .bss           0x0000000000425340        0x0 c:/ProgramFiles/mingw-w64-x86_64-8.1.0-posix-seh-rt_v6-rev0/mingw64/bin/../lib/gcc/x86_64-w64-mingw32/8.1.0/../../../../x86_64-w64-mingw32/lib/../lib/libmsvcrt.a(duags01159.o)
 .bss           0x0000000000425340        0x0 c:/ProgramFiles/mingw-w64-x86_64-8.1.0-posix-seh-rt_v6-rev0/mingw64/bin/../lib/gcc/x86_64-w64-mingw32/8.1.0/../../../../x86_64-w64-mingw32/lib/../lib/libmsvcrt.a(duags01157.o)
 .bss           0x0000000000425340        0x0 c:/ProgramFiles/mingw-w64-x86_64-8.1.0-posix-seh-rt_v6-rev0/mingw64/bin/../lib/gcc/x86_64-w64-mingw32/8.1.0/../../../../x86_64-w64-mingw32/lib/../lib/libmsvcrt.a(duags01156.o)
 .bss           0x0000000000425340        0x0 c:/ProgramFiles/mingw-w64-x86_64-8.1.0-posix-seh-rt_v6-rev0/mingw64/bin/../lib/gcc/x86_64-w64-mingw32/8.1.0/../../../../x86_64-w64-mingw32/lib/../lib/libmsvcrt.a(duags01149.o)
 .bss           0x0000000000425340        0x0 c:/ProgramFiles/mingw-w64-x86_64-8.1.0-posix-seh-rt_v6-rev0/mingw64/bin/../lib/gcc/x86_64-w64-mingw32/8.1.0/../../../../x86_64-w64-mingw32/lib/../lib/libmsvcrt.a(duags01142.o)
 .bss           0x0000000000425340        0x0 c:/ProgramFiles/mingw-w64-x86_64-8.1.0-posix-seh-rt_v6-rev0/mingw64/bin/../lib/gcc/x86_64-w64-mingw32/8.1.0/../../../../x86_64-w64-mingw32/lib/../lib/libmsvcrt.a(duags01120.o)
 .bss           0x0000000000425340        0x0 c:/ProgramFiles/mingw-w64-x86_64-8.1.0-posix-seh-rt_v6-rev0/mingw64/bin/../lib/gcc/x86_64-w64-mingw32/8.1.0/../../../../x86_64-w64-mingw32/lib/../lib/libmsvcrt.a(duags01106.o)
 .bss           0x0000000000425340        0x0 c:/ProgramFiles/mingw-w64-x86_64-8.1.0-posix-seh-rt_v6-rev0/mingw64/bin/../lib/gcc/x86_64-w64-mingw32/8.1.0/../../../../x86_64-w64-mingw32/lib/../lib/libmsvcrt.a(duags01101.o)
 .bss           0x0000000000425340        0x0 c:/ProgramFiles/mingw-w64-x86_64-8.1.0-posix-seh-rt_v6-rev0/mingw64/bin/../lib/gcc/x86_64-w64-mingw32/8.1.0/../../../../x86_64-w64-mingw32/lib/../lib/libmsvcrt.a(duags01099.o)
 .bss           0x0000000000425340        0x0 c:/ProgramFiles/mingw-w64-x86_64-8.1.0-posix-seh-rt_v6-rev0/mingw64/bin/../lib/gcc/x86_64-w64-mingw32/8.1.0/../../../../x86_64-w64-mingw32/lib/../lib/libmsvcrt.a(duags01089.o)
 .bss           0x0000000000425340        0x0 c:/ProgramFiles/mingw-w64-x86_64-8.1.0-posix-seh-rt_v6-rev0/mingw64/bin/../lib/gcc/x86_64-w64-mingw32/8.1.0/../../../../x86_64-w64-mingw32/lib/../lib/libmsvcrt.a(duags01085.o)
 .bss           0x0000000000425340        0x0 c:/ProgramFiles/mingw-w64-x86_64-8.1.0-posix-seh-rt_v6-rev0/mingw64/bin/../lib/gcc/x86_64-w64-mingw32/8.1.0/../../../../x86_64-w64-mingw32/lib/../lib/libmsvcrt.a(duags01084.o)
 .bss           0x0000000000425340        0x0 c:/ProgramFiles/mingw-w64-x86_64-8.1.0-posix-seh-rt_v6-rev0/mingw64/bin/../lib/gcc/x86_64-w64-mingw32/8.1.0/../../../../x86_64-w64-mingw32/lib/../lib/libmsvcrt.a(duags01082.o)
 .bss           0x0000000000425340        0x0 c:/ProgramFiles/mingw-w64-x86_64-8.1.0-posix-seh-rt_v6-rev0/mingw64/bin/../lib/gcc/x86_64-w64-mingw32/8.1.0/../../../../x86_64-w64-mingw32/lib/../lib/libmsvcrt.a(duags01080.o)
 .bss           0x0000000000425340        0x0 c:/ProgramFiles/mingw-w64-x86_64-8.1.0-posix-seh-rt_v6-rev0/mingw64/bin/../lib/gcc/x86_64-w64-mingw32/8.1.0/../../../../x86_64-w64-mingw32/lib/../lib/libmsvcrt.a(duags01071.o)
 .bss           0x0000000000425340        0x0 c:/ProgramFiles/mingw-w64-x86_64-8.1.0-posix-seh-rt_v6-rev0/mingw64/bin/../lib/gcc/x86_64-w64-mingw32/8.1.0/../../../../x86_64-w64-mingw32/lib/../lib/libmsvcrt.a(duags01070.o)
 .bss           0x0000000000425340        0x0 c:/ProgramFiles/mingw-w64-x86_64-8.1.0-posix-seh-rt_v6-rev0/mingw64/bin/../lib/gcc/x86_64-w64-mingw32/8.1.0/../../../../x86_64-w64-mingw32/lib/../lib/libmsvcrt.a(duags01069.o)
 .bss           0x0000000000425340        0x0 c:/ProgramFiles/mingw-w64-x86_64-8.1.0-posix-seh-rt_v6-rev0/mingw64/bin/../lib/gcc/x86_64-w64-mingw32/8.1.0/../../../../x86_64-w64-mingw32/lib/../lib/libmsvcrt.a(duags01067.o)
 .bss           0x0000000000425340        0x0 c:/ProgramFiles/mingw-w64-x86_64-8.1.0-posix-seh-rt_v6-rev0/mingw64/bin/../lib/gcc/x86_64-w64-mingw32/8.1.0/../../../../x86_64-w64-mingw32/lib/../lib/libmsvcrt.a(duags01063.o)
 .bss           0x0000000000425340        0x0 c:/ProgramFiles/mingw-w64-x86_64-8.1.0-posix-seh-rt_v6-rev0/mingw64/bin/../lib/gcc/x86_64-w64-mingw32/8.1.0/../../../../x86_64-w64-mingw32/lib/../lib/libmsvcrt.a(duags01060.o)
 .bss           0x0000000000425340        0x0 c:/ProgramFiles/mingw-w64-x86_64-8.1.0-posix-seh-rt_v6-rev0/mingw64/bin/../lib/gcc/x86_64-w64-mingw32/8.1.0/../../../../x86_64-w64-mingw32/lib/../lib/libmsvcrt.a(duags01055.o)
 .bss           0x0000000000425340        0x0 c:/ProgramFiles/mingw-w64-x86_64-8.1.0-posix-seh-rt_v6-rev0/mingw64/bin/../lib/gcc/x86_64-w64-mingw32/8.1.0/../../../../x86_64-w64-mingw32/lib/../lib/libmsvcrt.a(duags01050.o)
 .bss           0x0000000000425340        0x0 c:/ProgramFiles/mingw-w64-x86_64-8.1.0-posix-seh-rt_v6-rev0/mingw64/bin/../lib/gcc/x86_64-w64-mingw32/8.1.0/../../../../x86_64-w64-mingw32/lib/../lib/libmsvcrt.a(duags01048.o)
 .bss           0x0000000000425340        0x0 c:/ProgramFiles/mingw-w64-x86_64-8.1.0-posix-seh-rt_v6-rev0/mingw64/bin/../lib/gcc/x86_64-w64-mingw32/8.1.0/../../../../x86_64-w64-mingw32/lib/../lib/libmsvcrt.a(duags01032.o)
 .bss           0x0000000000425340        0x0 c:/ProgramFiles/mingw-w64-x86_64-8.1.0-posix-seh-rt_v6-rev0/mingw64/bin/../lib/gcc/x86_64-w64-mingw32/8.1.0/../../../../x86_64-w64-mingw32/lib/../lib/libmsvcrt.a(duags00973.o)
 .bss           0x0000000000425340        0x0 c:/ProgramFiles/mingw-w64-x86_64-8.1.0-posix-seh-rt_v6-rev0/mingw64/bin/../lib/gcc/x86_64-w64-mingw32/8.1.0/../../../../x86_64-w64-mingw32/lib/../lib/libmsvcrt.a(duags00852.o)
 .bss           0x0000000000425340        0x0 c:/ProgramFiles/mingw-w64-x86_64-8.1.0-posix-seh-rt_v6-rev0/mingw64/bin/../lib/gcc/x86_64-w64-mingw32/8.1.0/../../../../x86_64-w64-mingw32/lib/../lib/libmsvcrt.a(duags00735.o)
 .bss           0x0000000000425340        0x0 c:/ProgramFiles/mingw-w64-x86_64-8.1.0-posix-seh-rt_v6-rev0/mingw64/bin/../lib/gcc/x86_64-w64-mingw32/8.1.0/../../../../x86_64-w64-mingw32/lib/../lib/libmsvcrt.a(duags00689.o)
 .bss           0x0000000000425340        0x0 c:/ProgramFiles/mingw-w64-x86_64-8.1.0-posix-seh-rt_v6-rev0/mingw64/bin/../lib/gcc/x86_64-w64-mingw32/8.1.0/../../../../x86_64-w64-mingw32/lib/../lib/libmsvcrt.a(duags00614.o)
 .bss           0x0000000000425340        0x0 c:/ProgramFiles/mingw-w64-x86_64-8.1.0-posix-seh-rt_v6-rev0/mingw64/bin/../lib/gcc/x86_64-w64-mingw32/8.1.0/../../../../x86_64-w64-mingw32/lib/../lib/libmsvcrt.a(duags00603.o)
 .bss           0x0000000000425340        0x0 c:/ProgramFiles/mingw-w64-x86_64-8.1.0-posix-seh-rt_v6-rev0/mingw64/bin/../lib/gcc/x86_64-w64-mingw32/8.1.0/../../../../x86_64-w64-mingw32/lib/../lib/libmsvcrt.a(duags00332.o)
 .bss           0x0000000000425340        0x0 c:/ProgramFiles/mingw-w64-x86_64-8.1.0-posix-seh-rt_v6-rev0/mingw64/bin/../lib/gcc/x86_64-w64-mingw32/8.1.0/../../../../x86_64-w64-mingw32/lib/../lib/libmsvcrt.a(duags00278.o)
 .bss           0x0000000000425340        0x0 c:/ProgramFiles/mingw-w64-x86_64-8.1.0-posix-seh-rt_v6-rev0/mingw64/bin/../lib/gcc/x86_64-w64-mingw32/8.1.0/../../../../x86_64-w64-mingw32/lib/../lib/libmsvcrt.a(duags00245.o)
 .bss           0x0000000000425340        0x0 c:/ProgramFiles/mingw-w64-x86_64-8.1.0-posix-seh-rt_v6-rev0/mingw64/bin/../lib/gcc/x86_64-w64-mingw32/8.1.0/../../../../x86_64-w64-mingw32/lib/../lib/libmsvcrt.a(duags00240.o)
 .bss           0x0000000000425340        0x0 c:/ProgramFiles/mingw-w64-x86_64-8.1.0-posix-seh-rt_v6-rev0/mingw64/bin/../lib/gcc/x86_64-w64-mingw32/8.1.0/../../../../x86_64-w64-mingw32/lib/../lib/libmsvcrt.a(duags00237.o)
 .bss           0x0000000000425340        0x0 c:/ProgramFiles/mingw-w64-x86_64-8.1.0-posix-seh-rt_v6-rev0/mingw64/bin/../lib/gcc/x86_64-w64-mingw32/8.1.0/../../../../x86_64-w64-mingw32/lib/../lib/libmsvcrt.a(duags00218.o)
 .bss           0x0000000000425340        0x0 c:/ProgramFiles/mingw-w64-x86_64-8.1.0-posix-seh-rt_v6-rev0/mingw64/bin/../lib/gcc/x86_64-w64-mingw32/8.1.0/../../../../x86_64-w64-mingw32/lib/../lib/libmsvcrt.a(duags00203.o)
 .bss           0x0000000000425340        0x0 c:/ProgramFiles/mingw-w64-x86_64-8.1.0-posix-seh-rt_v6-rev0/mingw64/bin/../lib/gcc/x86_64-w64-mingw32/8.1.0/../../../../x86_64-w64-mingw32/lib/../lib/libmsvcrt.a(duags00141.o)
 .bss           0x0000000000425340        0x0 c:/ProgramFiles/mingw-w64-x86_64-8.1.0-posix-seh-rt_v6-rev0/mingw64/bin/../lib/gcc/x86_64-w64-mingw32/8.1.0/../../../../x86_64-w64-mingw32/lib/../lib/libmsvcrt.a(duags00122.o)
 .bss           0x0000000000425340        0x0 c:/ProgramFiles/mingw-w64-x86_64-8.1.0-posix-seh-rt_v6-rev0/mingw64/bin/../lib/gcc/x86_64-w64-mingw32/8.1.0/../../../../x86_64-w64-mingw32/lib/../lib/libmsvcrt.a(duags00098.o)
 .bss           0x0000000000425340        0x0 c:/ProgramFiles/mingw-w64-x86_64-8.1.0-posix-seh-rt_v6-rev0/mingw64/bin/../lib/gcc/x86_64-w64-mingw32/8.1.0/../../../../x86_64-w64-mingw32/lib/../lib/libmsvcrt.a(duags00096.o)
 .bss           0x0000000000425340        0x0 c:/ProgramFiles/mingw-w64-x86_64-8.1.0-posix-seh-rt_v6-rev0/mingw64/bin/../lib/gcc/x86_64-w64-mingw32/8.1.0/../../../../x86_64-w64-mingw32/lib/../lib/libmsvcrt.a(duags00090.o)
 .bss           0x0000000000425340        0x0 c:/ProgramFiles/mingw-w64-x86_64-8.1.0-posix-seh-rt_v6-rev0/mingw64/bin/../lib/gcc/x86_64-w64-mingw32/8.1.0/../../../../x86_64-w64-mingw32/lib/../lib/libmsvcrt.a(duags00082.o)
 .bss           0x0000000000425340        0x0 c:/ProgramFiles/mingw-w64-x86_64-8.1.0-posix-seh-rt_v6-rev0/mingw64/bin/../lib/gcc/x86_64-w64-mingw32/8.1.0/../../../../x86_64-w64-mingw32/lib/../lib/libmsvcrt.a(duags00081.o)
 .bss           0x0000000000425340        0x0 c:/ProgramFiles/mingw-w64-x86_64-8.1.0-posix-seh-rt_v6-rev0/mingw64/bin/../lib/gcc/x86_64-w64-mingw32/8.1.0/../../../../x86_64-w64-mingw32/lib/../lib/libmsvcrt.a(duags00055.o)
 .bss           0x0000000000425340        0x0 c:/ProgramFiles/mingw-w64-x86_64-8.1.0-posix-seh-rt_v6-rev0/mingw64/bin/../lib/gcc/x86_64-w64-mingw32/8.1.0/../../../../x86_64-w64-mingw32/lib/../lib/libmsvcrt.a(lib64_libmsvcrt_os_a-acrt_iob_func.o)
 .bss           0x0000000000425340       0x10 c:/ProgramFiles/mingw-w64-x86_64-8.1.0-posix-seh-rt_v6-rev0/mingw64/bin/../lib/gcc/x86_64-w64-mingw32/8.1.0/../../../../x86_64-w64-mingw32/lib/../lib/libmsvcrt.a(lib64_libmsvcrt_os_a-invalid_parameter_handler.o)
 .bss           0x0000000000425350        0x0 c:/ProgramFiles/mingw-w64-x86_64-8.1.0-posix-seh-rt_v6-rev0/mingw64/bin/../lib/gcc/x86_64-w64-mingw32/8.1.0/../../../../x86_64-w64-mingw32/lib/../lib/libmsvcrt.a(lib64_libmsvcrt_os_a-__p___argv.o)
 .bss           0x0000000000425350        0x0 c:/ProgramFiles/mingw-w64-x86_64-8.1.0-posix-seh-rt_v6-rev0/mingw64/bin/../lib/gcc/x86_64-w64-mingw32/8.1.0/../../../../x86_64-w64-mingw32/lib/../lib/libmsvcrt.a(lib64_libmsvcrt_os_a-__p__acmdln.o)
 .bss           0x0000000000425350        0x0 c:/ProgramFiles/mingw-w64-x86_64-8.1.0-posix-seh-rt_v6-rev0/mingw64/bin/../lib/gcc/x86_64-w64-mingw32/8.1.0/../../../../x86_64-w64-mingw32/lib/../lib/libmsvcrt.a(lib64_libmsvcrt_os_a-__p__fmode.o)
 .bss           0x0000000000425350        0x0 c:/ProgramFiles/mingw-w64-x86_64-8.1.0-posix-seh-rt_v6-rev0/mingw64/bin/../lib/gcc/x86_64-w64-mingw32/8.1.0/../../../../x86_64-w64-mingw32/lib/../lib/libmsvcrt.a(duagh.o)
 .bss           0x0000000000425350        0x0 c:/ProgramFiles/mingw-w64-x86_64-8.1.0-posix-seh-rt_v6-rev0/mingw64/bin/../lib/gcc/x86_64-w64-mingw32/8.1.0/../../../../x86_64-w64-mingw32/lib/../lib/libmsvcrt.a(duags00115.o)
 .bss           0x0000000000425350        0x0 c:/ProgramFiles/mingw-w64-x86_64-8.1.0-posix-seh-rt_v6-rev0/mingw64/bin/../lib/gcc/x86_64-w64-mingw32/8.1.0/../../../../x86_64-w64-mingw32/lib/../lib/libmsvcrt.a(duags00083.o)
 .bss           0x0000000000425350        0x0 c:/ProgramFiles/mingw-w64-x86_64-8.1.0-posix-seh-rt_v6-rev0/mingw64/bin/../lib/gcc/x86_64-w64-mingw32/8.1.0/../../../../x86_64-w64-mingw32/lib/../lib/libmsvcrt.a(duags00070.o)
 .bss           0x0000000000425350        0x0 c:/ProgramFiles/mingw-w64-x86_64-8.1.0-posix-seh-rt_v6-rev0/mingw64/bin/../lib/gcc/x86_64-w64-mingw32/8.1.0/../../../../x86_64-w64-mingw32/lib/../lib/libmsvcrt.a(duagt.o)
 .bss           0x0000000000425350        0x0 c:/ProgramFiles/mingw-w64-x86_64-8.1.0-posix-seh-rt_v6-rev0/mingw64/bin/../lib/gcc/x86_64-w64-mingw32/8.1.0/../../../../x86_64-w64-mingw32/lib/../lib/libuser32.a(dyqes00619.o)
 .bss           0x0000000000425350        0x0 c:/ProgramFiles/mingw-w64-x86_64-8.1.0-posix-seh-rt_v6-rev0/mingw64/bin/../lib/gcc/x86_64-w64-mingw32/8.1.0/../../../../x86_64-w64-mingw32/lib/../lib/libuser32.a(dyqeh.o)
 .bss           0x0000000000425350        0x0 c:/ProgramFiles/mingw-w64-x86_64-8.1.0-posix-seh-rt_v6-rev0/mingw64/bin/../lib/gcc/x86_64-w64-mingw32/8.1.0/../../../../x86_64-w64-mingw32/lib/../lib/libuser32.a(dyqet.o)
 .bss           0x0000000000425350        0x0 c:/ProgramFiles/mingw-w64-x86_64-8.1.0-posix-seh-rt_v6-rev0/mingw64/bin/../lib/gcc/x86_64-w64-mingw32/8.1.0/../../../../x86_64-w64-mingw32/lib/../lib/libkernel32.a(dqifs01445.o)
 .bss           0x0000000000425350        0x0 c:/ProgramFiles/mingw-w64-x86_64-8.1.0-posix-seh-rt_v6-rev0/mingw64/bin/../lib/gcc/x86_64-w64-mingw32/8.1.0/../../../../x86_64-w64-mingw32/lib/../lib/libkernel32.a(dqifs01443.o)
 .bss           0x0000000000425350        0x0 c:/ProgramFiles/mingw-w64-x86_64-8.1.0-posix-seh-rt_v6-rev0/mingw64/bin/../lib/gcc/x86_64-w64-mingw32/8.1.0/../../../../x86_64-w64-mingw32/lib/../lib/libkernel32.a(dqifs01409.o)
 .bss           0x0000000000425350        0x0 c:/ProgramFiles/mingw-w64-x86_64-8.1.0-posix-seh-rt_v6-rev0/mingw64/bin/../lib/gcc/x86_64-w64-mingw32/8.1.0/../../../../x86_64-w64-mingw32/lib/../lib/libkernel32.a(dqifs01395.o)
 .bss           0x0000000000425350        0x0 c:/ProgramFiles/mingw-w64-x86_64-8.1.0-posix-seh-rt_v6-rev0/mingw64/bin/../lib/gcc/x86_64-w64-mingw32/8.1.0/../../../../x86_64-w64-mingw32/lib/../lib/libkernel32.a(dqifs01375.o)
 .bss           0x0000000000425350        0x0 c:/ProgramFiles/mingw-w64-x86_64-8.1.0-posix-seh-rt_v6-rev0/mingw64/bin/../lib/gcc/x86_64-w64-mingw32/8.1.0/../../../../x86_64-w64-mingw32/lib/../lib/libkernel32.a(dqifs01360.o)
 .bss           0x0000000000425350        0x0 c:/ProgramFiles/mingw-w64-x86_64-8.1.0-posix-seh-rt_v6-rev0/mingw64/bin/../lib/gcc/x86_64-w64-mingw32/8.1.0/../../../../x86_64-w64-mingw32/lib/../lib/libkernel32.a(dqifs01346.o)
 .bss           0x0000000000425350        0x0 c:/ProgramFiles/mingw-w64-x86_64-8.1.0-posix-seh-rt_v6-rev0/mingw64/bin/../lib/gcc/x86_64-w64-mingw32/8.1.0/../../../../x86_64-w64-mingw32/lib/../lib/libkernel32.a(dqifs01194.o)
 .bss           0x0000000000425350        0x0 c:/ProgramFiles/mingw-w64-x86_64-8.1.0-posix-seh-rt_v6-rev0/mingw64/bin/../lib/gcc/x86_64-w64-mingw32/8.1.0/../../../../x86_64-w64-mingw32/lib/../lib/libkernel32.a(dqifs01187.o)
 .bss           0x0000000000425350        0x0 c:/ProgramFiles/mingw-w64-x86_64-8.1.0-posix-seh-rt_v6-rev0/mingw64/bin/../lib/gcc/x86_64-w64-mingw32/8.1.0/../../../../x86_64-w64-mingw32/lib/../lib/libkernel32.a(dqifs01180.o)
 .bss           0x0000000000425350        0x0 c:/ProgramFiles/mingw-w64-x86_64-8.1.0-posix-seh-rt_v6-rev0/mingw64/bin/../lib/gcc/x86_64-w64-mingw32/8.1.0/../../../../x86_64-w64-mingw32/lib/../lib/libkernel32.a(dqifs01179.o)
 .bss           0x0000000000425350        0x0 c:/ProgramFiles/mingw-w64-x86_64-8.1.0-posix-seh-rt_v6-rev0/mingw64/bin/../lib/gcc/x86_64-w64-mingw32/8.1.0/../../../../x86_64-w64-mingw32/lib/../lib/libkernel32.a(dqifs01093.o)
 .bss           0x0000000000425350        0x0 c:/ProgramFiles/mingw-w64-x86_64-8.1.0-posix-seh-rt_v6-rev0/mingw64/bin/../lib/gcc/x86_64-w64-mingw32/8.1.0/../../../../x86_64-w64-mingw32/lib/../lib/libkernel32.a(dqifs00951.o)
 .bss           0x0000000000425350        0x0 c:/ProgramFiles/mingw-w64-x86_64-8.1.0-posix-seh-rt_v6-rev0/mingw64/bin/../lib/gcc/x86_64-w64-mingw32/8.1.0/../../../../x86_64-w64-mingw32/lib/../lib/libkernel32.a(dqifs00863.o)
 .bss           0x0000000000425350        0x0 c:/ProgramFiles/mingw-w64-x86_64-8.1.0-posix-seh-rt_v6-rev0/mingw64/bin/../lib/gcc/x86_64-w64-mingw32/8.1.0/../../../../x86_64-w64-mingw32/lib/../lib/libkernel32.a(dqifs00774.o)
 .bss           0x0000000000425350        0x0 c:/ProgramFiles/mingw-w64-x86_64-8.1.0-posix-seh-rt_v6-rev0/mingw64/bin/../lib/gcc/x86_64-w64-mingw32/8.1.0/../../../../x86_64-w64-mingw32/lib/../lib/libkernel32.a(dqifs00746.o)
 .bss           0x0000000000425350        0x0 c:/ProgramFiles/mingw-w64-x86_64-8.1.0-posix-seh-rt_v6-rev0/mingw64/bin/../lib/gcc/x86_64-w64-mingw32/8.1.0/../../../../x86_64-w64-mingw32/lib/../lib/libkernel32.a(dqifs00721.o)
 .bss           0x0000000000425350        0x0 c:/ProgramFiles/mingw-w64-x86_64-8.1.0-posix-seh-rt_v6-rev0/mingw64/bin/../lib/gcc/x86_64-w64-mingw32/8.1.0/../../../../x86_64-w64-mingw32/lib/../lib/libkernel32.a(dqifs00629.o)
 .bss           0x0000000000425350        0x0 c:/ProgramFiles/mingw-w64-x86_64-8.1.0-posix-seh-rt_v6-rev0/mingw64/bin/../lib/gcc/x86_64-w64-mingw32/8.1.0/../../../../x86_64-w64-mingw32/lib/../lib/libkernel32.a(dqifs00609.o)
 .bss           0x0000000000425350        0x0 c:/ProgramFiles/mingw-w64-x86_64-8.1.0-posix-seh-rt_v6-rev0/mingw64/bin/../lib/gcc/x86_64-w64-mingw32/8.1.0/../../../../x86_64-w64-mingw32/lib/../lib/libkernel32.a(dqifs00578.o)
 .bss           0x0000000000425350        0x0 c:/ProgramFiles/mingw-w64-x86_64-8.1.0-posix-seh-rt_v6-rev0/mingw64/bin/../lib/gcc/x86_64-w64-mingw32/8.1.0/../../../../x86_64-w64-mingw32/lib/../lib/libkernel32.a(dqifs00540.o)
 .bss           0x0000000000425350        0x0 c:/ProgramFiles/mingw-w64-x86_64-8.1.0-posix-seh-rt_v6-rev0/mingw64/bin/../lib/gcc/x86_64-w64-mingw32/8.1.0/../../../../x86_64-w64-mingw32/lib/../lib/libkernel32.a(dqifs00536.o)
 .bss           0x0000000000425350        0x0 c:/ProgramFiles/mingw-w64-x86_64-8.1.0-posix-seh-rt_v6-rev0/mingw64/bin/../lib/gcc/x86_64-w64-mingw32/8.1.0/../../../../x86_64-w64-mingw32/lib/../lib/libkernel32.a(dqifs00535.o)
 .bss           0x0000000000425350        0x0 c:/ProgramFiles/mingw-w64-x86_64-8.1.0-posix-seh-rt_v6-rev0/mingw64/bin/../lib/gcc/x86_64-w64-mingw32/8.1.0/../../../../x86_64-w64-mingw32/lib/../lib/libkernel32.a(dqifs00304.o)
 .bss           0x0000000000425350        0x0 c:/ProgramFiles/mingw-w64-x86_64-8.1.0-posix-seh-rt_v6-rev0/mingw64/bin/../lib/gcc/x86_64-w64-mingw32/8.1.0/../../../../x86_64-w64-mingw32/lib/../lib/libkernel32.a(dqifs00268.o)
 .bss           0x0000000000425350        0x0 c:/ProgramFiles/mingw-w64-x86_64-8.1.0-posix-seh-rt_v6-rev0/mingw64/bin/../lib/gcc/x86_64-w64-mingw32/8.1.0/../../../../x86_64-w64-mingw32/lib/../lib/libkernel32.a(dqifh.o)
 .bss           0x0000000000425350        0x0 c:/ProgramFiles/mingw-w64-x86_64-8.1.0-posix-seh-rt_v6-rev0/mingw64/bin/../lib/gcc/x86_64-w64-mingw32/8.1.0/../../../../x86_64-w64-mingw32/lib/../lib/libkernel32.a(dqift.o)
 .bss           0x0000000000425350        0x0 c:/ProgramFiles/mingw-w64-x86_64-8.1.0-posix-seh-rt_v6-rev0/mingw64/bin/../lib/gcc/x86_64-w64-mingw32/8.1.0/../../../../x86_64-w64-mingw32/lib/../lib/libmsvcrt.a(duags00253.o)
 .bss           0x0000000000425350        0x0 c:/ProgramFiles/mingw-w64-x86_64-8.1.0-posix-seh-rt_v6-rev0/mingw64/bin/../lib/gcc/x86_64-w64-mingw32/8.1.0/crtend.o
 *(COMMON)
 COMMON         0x0000000000425350       0x10 c:/ProgramFiles/mingw-w64-x86_64-8.1.0-posix-seh-rt_v6-rev0/mingw64/bin/../lib/gcc/x86_64-w64-mingw32/8.1.0/../../../../x86_64-w64-mingw32/lib/../lib/crt2.o
                0x0000000000425350                __mingw_winmain_lpCmdLine
                0x0000000000425358                __mingw_winmain_hInstance
 COMMON         0x0000000000425360       0x10 c:/ProgramFiles/mingw-w64-x86_64-8.1.0-posix-seh-rt_v6-rev0/mingw64/bin/../lib/gcc/x86_64-w64-mingw32/8.1.0/../../../../x86_64-w64-mingw32/lib/../lib/libmingw32.a(lib64_libmingw32_a-natstart.o)
                0x0000000000425360                __native_startup_state
                0x0000000000425368                __native_startup_lock
 COMMON         0x0000000000425370        0x0 c:/ProgramFiles/mingw-w64-x86_64-8.1.0-posix-seh-rt_v6-rev0/mingw64/bin/../lib/gcc/x86_64-w64-mingw32/8.1.0/libgcc.a(_ctors.o)
 COMMON         0x0000000000425370        0xc c:/ProgramFiles/mingw-w64-x86_64-8.1.0-posix-seh-rt_v6-rev0/mingw64/bin/../lib/gcc/x86_64-w64-mingw32/8.1.0/../../../../x86_64-w64-mingw32/lib/../lib/libmingwex.a(lib64_libmingwex_a-getopt.o)
                0x0000000000425370                optarg
                0x0000000000425378                __mingw_optreset
 *fill*         0x000000000042537c        0x4 
 COMMON         0x0000000000425380      0x100 c:/ProgramFiles/mingw-w64-x86_64-8.1.0-posix-seh-rt_v6-rev0/mingw64/bin/../lib/gcc/x86_64-w64-mingw32/8.1.0/../../../../x86_64-w64-mingw32/lib/../lib/libmingwex.a(lib64_libmingwex_a-hd_init.o)
                0x0000000000425380                __hexdig_D2A
                0x0000000000425480                __bss_end__ = .

.edata
 *(.edata)

/DISCARD/
 *(.debug$S)
 *(.debug$T)
 *(.debug$F)
 *(.drectve)
 *(.note.GNU-stack)
 *(.gnu.lto_*)

.idata          0x0000000000426000      0xe00
 SORT_BY_NAME(*)(.idata$2)
 .idata$2       0x0000000000426000       0x14 c:/ProgramFiles/mingw-w64-x86_64-8.1.0-posix-seh-rt_v6-rev0/mingw64/bin/../lib/gcc/x86_64-w64-mingw32/8.1.0/../../../../x86_64-w64-mingw32/lib/../lib/libkernel32.a(dqifh.o)
                0x0000000000426000                _head_lib64_libkernel32_a
 .idata$2       0x0000000000426014       0x14 c:/ProgramFiles/mingw-w64-x86_64-8.1.0-posix-seh-rt_v6-rev0/mingw64/bin/../lib/gcc/x86_64-w64-mingw32/8.1.0/../../../../x86_64-w64-mingw32/lib/../lib/libmsvcrt.a(duagh.o)
                0x0000000000426014                _head_lib64_libmsvcrt_os_a
 .idata$2       0x0000000000426028       0x14 c:/ProgramFiles/mingw-w64-x86_64-8.1.0-posix-seh-rt_v6-rev0/mingw64/bin/../lib/gcc/x86_64-w64-mingw32/8.1.0/../../../../x86_64-w64-mingw32/lib/../lib/libuser32.a(dyqeh.o)
                0x0000000000426028                _head_lib64_libuser32_a
 SORT_BY_NAME(*)(.idata$3)
                0x000000000042603c        0x4 LONG 0x0
                0x0000000000426040        0x4 LONG 0x0
                0x0000000000426044        0x4 LONG 0x0
                0x0000000000426048        0x4 LONG 0x0
                0x000000000042604c        0x4 LONG 0x0
 SORT_BY_NAME(*)(.idata$4)
 .idata$4       0x0000000000426050        0x0 c:/ProgramFiles/mingw-w64-x86_64-8.1.0-posix-seh-rt_v6-rev0/mingw64/bin/../lib/gcc/x86_64-w64-mingw32/8.1.0/../../../../x86_64-w64-mingw32/lib/../lib/libkernel32.a(dqifh.o)
 .idata$4       0x0000000000426050        0x8 c:/ProgramFiles/mingw-w64-x86_64-8.1.0-posix-seh-rt_v6-rev0/mingw64/bin/../lib/gcc/x86_64-w64-mingw32/8.1.0/../../../../x86_64-w64-mingw32/lib/../lib/libkernel32.a(dqifs00268.o)
 .idata$4       0x0000000000426058        0x8 c:/ProgramFiles/mingw-w64-x86_64-8.1.0-posix-seh-rt_v6-rev0/mingw64/bin/../lib/gcc/x86_64-w64-mingw32/8.1.0/../../../../x86_64-w64-mingw32/lib/../lib/libkernel32.a(dqifs00304.o)
 .idata$4       0x0000000000426060        0x8 c:/ProgramFiles/mingw-w64-x86_64-8.1.0-posix-seh-rt_v6-rev0/mingw64/bin/../lib/gcc/x86_64-w64-mingw32/8.1.0/../../../../x86_64-w64-mingw32/lib/../lib/libkernel32.a(dqifs00535.o)
 .idata$4       0x0000000000426068        0x8 c:/ProgramFiles/mingw-w64-x86_64-8.1.0-posix-seh-rt_v6-rev0/mingw64/bin/../lib/gcc/x86_64-w64-mingw32/8.1.0/../../../../x86_64-w64-mingw32/lib/../lib/libkernel32.a(dqifs00536.o)
 .idata$4       0x0000000000426070        0x8 c:/ProgramFiles/mingw-w64-x86_64-8.1.0-posix-seh-rt_v6-rev0/mingw64/bin/../lib/gcc/x86_64-w64-mingw32/8.1.0/../../../../x86_64-w64-mingw32/lib/../lib/libkernel32.a(dqifs00540.o)
 .idata$4       0x0000000000426078        0x8 c:/ProgramFiles/mingw-w64-x86_64-8.1.0-posix-seh-rt_v6-rev0/mingw64/bin/../lib/gcc/x86_64-w64-mingw32/8.1.0/../../../../x86_64-w64-mingw32/lib/../lib/libkernel32.a(dqifs00578.o)
 .idata$4       0x0000000000426080        0x8 c:/ProgramFiles/mingw-w64-x86_64-8.1.0-posix-seh-rt_v6-rev0/mingw64/bin/../lib/gcc/x86_64-w64-mingw32/8.1.0/../../../../x86_64-w64-mingw32/lib/../lib/libkernel32.a(dqifs00609.o)
 .idata$4       0x0000000000426088        0x8 c:/ProgramFiles/mingw-w64-x86_64-8.1.0-posix-seh-rt_v6-rev0/mingw64/bin/../lib/gcc/x86_64-w64-mingw32/8.1.0/../../../../x86_64-w64-mingw32/lib/../lib/libkernel32.a(dqifs00629.o)
 .idata$4       0x0000000000426090        0x8 c:/ProgramFiles/mingw-w64-x86_64-8.1.0-posix-seh-rt_v6-rev0/mingw64/bin/../lib/gcc/x86_64-w64-mingw32/8.1.0/../../../../x86_64-w64-mingw32/lib/../lib/libkernel32.a(dqifs00721.o)
 .idata$4       0x0000000000426098        0x8 c:/ProgramFiles/mingw-w64-x86_64-8.1.0-posix-seh-rt_v6-rev0/mingw64/bin/../lib/gcc/x86_64-w64-mingw32/8.1.0/../../../../x86_64-w64-mingw32/lib/../lib/libkernel32.a(dqifs00746.o)
 .idata$4       0x00000000004260a0        0x8 c:/ProgramFiles/mingw-w64-x86_64-8.1.0-posix-seh-rt_v6-rev0/mingw64/bin/../lib/gcc/x86_64-w64-mingw32/8.1.0/../../../../x86_64-w64-mingw32/lib/../lib/libkernel32.a(dqifs00774.o)
 .idata$4       0x00000000004260a8        0x8 c:/ProgramFiles/mingw-w64-x86_64-8.1.0-posix-seh-rt_v6-rev0/mingw64/bin/../lib/gcc/x86_64-w64-mingw32/8.1.0/../../../../x86_64-w64-mingw32/lib/../lib/libkernel32.a(dqifs00863.o)
 .idata$4       0x00000000004260b0        0x8 c:/ProgramFiles/mingw-w64-x86_64-8.1.0-posix-seh-rt_v6-rev0/mingw64/bin/../lib/gcc/x86_64-w64-mingw32/8.1.0/../../../../x86_64-w64-mingw32/lib/../lib/libkernel32.a(dqifs00951.o)
 .idata$4       0x00000000004260b8        0x8 c:/ProgramFiles/mingw-w64-x86_64-8.1.0-posix-seh-rt_v6-rev0/mingw64/bin/../lib/gcc/x86_64-w64-mingw32/8.1.0/../../../../x86_64-w64-mingw32/lib/../lib/libkernel32.a(dqifs01093.o)
 .idata$4       0x00000000004260c0        0x8 c:/ProgramFiles/mingw-w64-x86_64-8.1.0-posix-seh-rt_v6-rev0/mingw64/bin/../lib/gcc/x86_64-w64-mingw32/8.1.0/../../../../x86_64-w64-mingw32/lib/../lib/libkernel32.a(dqifs01179.o)
 .idata$4       0x00000000004260c8        0x8 c:/ProgramFiles/mingw-w64-x86_64-8.1.0-posix-seh-rt_v6-rev0/mingw64/bin/../lib/gcc/x86_64-w64-mingw32/8.1.0/../../../../x86_64-w64-mingw32/lib/../lib/libkernel32.a(dqifs01180.o)
 .idata$4       0x00000000004260d0        0x8 c:/ProgramFiles/mingw-w64-x86_64-8.1.0-posix-seh-rt_v6-rev0/mingw64/bin/../lib/gcc/x86_64-w64-mingw32/8.1.0/../../../../x86_64-w64-mingw32/lib/../lib/libkernel32.a(dqifs01187.o)
 .idata$4       0x00000000004260d8        0x8 c:/ProgramFiles/mingw-w64-x86_64-8.1.0-posix-seh-rt_v6-rev0/mingw64/bin/../lib/gcc/x86_64-w64-mingw32/8.1.0/../../../../x86_64-w64-mingw32/lib/../lib/libkernel32.a(dqifs01194.o)
 .idata$4       0x00000000004260e0        0x8 c:/ProgramFiles/mingw-w64-x86_64-8.1.0-posix-seh-rt_v6-rev0/mingw64/bin/../lib/gcc/x86_64-w64-mingw32/8.1.0/../../../../x86_64-w64-mingw32/lib/../lib/libkernel32.a(dqifs01346.o)
 .idata$4       0x00000000004260e8        0x8 c:/ProgramFiles/mingw-w64-x86_64-8.1.0-posix-seh-rt_v6-rev0/mingw64/bin/../lib/gcc/x86_64-w64-mingw32/8.1.0/../../../../x86_64-w64-mingw32/lib/../lib/libkernel32.a(dqifs01360.o)
 .idata$4       0x00000000004260f0        0x8 c:/ProgramFiles/mingw-w64-x86_64-8.1.0-posix-seh-rt_v6-rev0/mingw64/bin/../lib/gcc/x86_64-w64-mingw32/8.1.0/../../../../x86_64-w64-mingw32/lib/../lib/libkernel32.a(dqifs01375.o)
 .idata$4       0x00000000004260f8        0x8 c:/ProgramFiles/mingw-w64-x86_64-8.1.0-posix-seh-rt_v6-rev0/mingw64/bin/../lib/gcc/x86_64-w64-mingw32/8.1.0/../../../../x86_64-w64-mingw32/lib/../lib/libkernel32.a(dqifs01395.o)
 .idata$4       0x0000000000426100        0x8 c:/ProgramFiles/mingw-w64-x86_64-8.1.0-posix-seh-rt_v6-rev0/mingw64/bin/../lib/gcc/x86_64-w64-mingw32/8.1.0/../../../../x86_64-w64-mingw32/lib/../lib/libkernel32.a(dqifs01409.o)
 .idata$4       0x0000000000426108        0x8 c:/ProgramFiles/mingw-w64-x86_64-8.1.0-posix-seh-rt_v6-rev0/mingw64/bin/../lib/gcc/x86_64-w64-mingw32/8.1.0/../../../../x86_64-w64-mingw32/lib/../lib/libkernel32.a(dqifs01443.o)
 .idata$4       0x0000000000426110        0x8 c:/ProgramFiles/mingw-w64-x86_64-8.1.0-posix-seh-rt_v6-rev0/mingw64/bin/../lib/gcc/x86_64-w64-mingw32/8.1.0/../../../../x86_64-w64-mingw32/lib/../lib/libkernel32.a(dqifs01445.o)
 .idata$4       0x0000000000426118        0x8 c:/ProgramFiles/mingw-w64-x86_64-8.1.0-posix-seh-rt_v6-rev0/mingw64/bin/../lib/gcc/x86_64-w64-mingw32/8.1.0/../../../../x86_64-w64-mingw32/lib/../lib/libkernel32.a(dqift.o)
 .idata$4       0x0000000000426120        0x0 c:/ProgramFiles/mingw-w64-x86_64-8.1.0-posix-seh-rt_v6-rev0/mingw64/bin/../lib/gcc/x86_64-w64-mingw32/8.1.0/../../../../x86_64-w64-mingw32/lib/../lib/libmsvcrt.a(duagh.o)
 .idata$4       0x0000000000426120        0x8 c:/ProgramFiles/mingw-w64-x86_64-8.1.0-posix-seh-rt_v6-rev0/mingw64/bin/../lib/gcc/x86_64-w64-mingw32/8.1.0/../../../../x86_64-w64-mingw32/lib/../lib/libmsvcrt.a(duags00055.o)
 .idata$4       0x0000000000426128        0x8 c:/ProgramFiles/mingw-w64-x86_64-8.1.0-posix-seh-rt_v6-rev0/mingw64/bin/../lib/gcc/x86_64-w64-mingw32/8.1.0/../../../../x86_64-w64-mingw32/lib/../lib/libmsvcrt.a(duags00070.o)
 .idata$4       0x0000000000426130        0x8 c:/ProgramFiles/mingw-w64-x86_64-8.1.0-posix-seh-rt_v6-rev0/mingw64/bin/../lib/gcc/x86_64-w64-mingw32/8.1.0/../../../../x86_64-w64-mingw32/lib/../lib/libmsvcrt.a(duags00081.o)
 .idata$4       0x0000000000426138        0x8 c:/ProgramFiles/mingw-w64-x86_64-8.1.0-posix-seh-rt_v6-rev0/mingw64/bin/../lib/gcc/x86_64-w64-mingw32/8.1.0/../../../../x86_64-w64-mingw32/lib/../lib/libmsvcrt.a(duags00082.o)
 .idata$4       0x0000000000426140        0x8 c:/ProgramFiles/mingw-w64-x86_64-8.1.0-posix-seh-rt_v6-rev0/mingw64/bin/../lib/gcc/x86_64-w64-mingw32/8.1.0/../../../../x86_64-w64-mingw32/lib/../lib/libmsvcrt.a(duags00083.o)
 .idata$4       0x0000000000426148        0x8 c:/ProgramFiles/mingw-w64-x86_64-8.1.0-posix-seh-rt_v6-rev0/mingw64/bin/../lib/gcc/x86_64-w64-mingw32/8.1.0/../../../../x86_64-w64-mingw32/lib/../lib/libmsvcrt.a(duags00090.o)
 .idata$4       0x0000000000426150        0x8 c:/ProgramFiles/mingw-w64-x86_64-8.1.0-posix-seh-rt_v6-rev0/mingw64/bin/../lib/gcc/x86_64-w64-mingw32/8.1.0/../../../../x86_64-w64-mingw32/lib/../lib/libmsvcrt.a(duags00096.o)
 .idata$4       0x0000000000426158        0x8 c:/ProgramFiles/mingw-w64-x86_64-8.1.0-posix-seh-rt_v6-rev0/mingw64/bin/../lib/gcc/x86_64-w64-mingw32/8.1.0/../../../../x86_64-w64-mingw32/lib/../lib/libmsvcrt.a(duags00098.o)
 .idata$4       0x0000000000426160        0x8 c:/ProgramFiles/mingw-w64-x86_64-8.1.0-posix-seh-rt_v6-rev0/mingw64/bin/../lib/gcc/x86_64-w64-mingw32/8.1.0/../../../../x86_64-w64-mingw32/lib/../lib/libmsvcrt.a(duags00115.o)
 .idata$4       0x0000000000426168        0x8 c:/ProgramFiles/mingw-w64-x86_64-8.1.0-posix-seh-rt_v6-rev0/mingw64/bin/../lib/gcc/x86_64-w64-mingw32/8.1.0/../../../../x86_64-w64-mingw32/lib/../lib/libmsvcrt.a(duags00122.o)
 .idata$4       0x0000000000426170        0x8 c:/ProgramFiles/mingw-w64-x86_64-8.1.0-posix-seh-rt_v6-rev0/mingw64/bin/../lib/gcc/x86_64-w64-mingw32/8.1.0/../../../../x86_64-w64-mingw32/lib/../lib/libmsvcrt.a(duags00141.o)
 .idata$4       0x0000000000426178        0x8 c:/ProgramFiles/mingw-w64-x86_64-8.1.0-posix-seh-rt_v6-rev0/mingw64/bin/../lib/gcc/x86_64-w64-mingw32/8.1.0/../../../../x86_64-w64-mingw32/lib/../lib/libmsvcrt.a(duags00203.o)
 .idata$4       0x0000000000426180        0x8 c:/ProgramFiles/mingw-w64-x86_64-8.1.0-posix-seh-rt_v6-rev0/mingw64/bin/../lib/gcc/x86_64-w64-mingw32/8.1.0/../../../../x86_64-w64-mingw32/lib/../lib/libmsvcrt.a(duags00218.o)
 .idata$4       0x0000000000426188        0x8 c:/ProgramFiles/mingw-w64-x86_64-8.1.0-posix-seh-rt_v6-rev0/mingw64/bin/../lib/gcc/x86_64-w64-mingw32/8.1.0/../../../../x86_64-w64-mingw32/lib/../lib/libmsvcrt.a(duags00237.o)
 .idata$4       0x0000000000426190        0x8 c:/ProgramFiles/mingw-w64-x86_64-8.1.0-posix-seh-rt_v6-rev0/mingw64/bin/../lib/gcc/x86_64-w64-mingw32/8.1.0/../../../../x86_64-w64-mingw32/lib/../lib/libmsvcrt.a(duags00240.o)
 .idata$4       0x0000000000426198        0x8 c:/ProgramFiles/mingw-w64-x86_64-8.1.0-posix-seh-rt_v6-rev0/mingw64/bin/../lib/gcc/x86_64-w64-mingw32/8.1.0/../../../../x86_64-w64-mingw32/lib/../lib/libmsvcrt.a(duags00245.o)
 .idata$4       0x00000000004261a0        0x8 c:/ProgramFiles/mingw-w64-x86_64-8.1.0-posix-seh-rt_v6-rev0/mingw64/bin/../lib/gcc/x86_64-w64-mingw32/8.1.0/../../../../x86_64-w64-mingw32/lib/../lib/libmsvcrt.a(duags00253.o)
 .idata$4       0x00000000004261a8        0x8 c:/ProgramFiles/mingw-w64-x86_64-8.1.0-posix-seh-rt_v6-rev0/mingw64/bin/../lib/gcc/x86_64-w64-mingw32/8.1.0/../../../../x86_64-w64-mingw32/lib/../lib/libmsvcrt.a(duags00278.o)
 .idata$4       0x00000000004261b0        0x8 c:/ProgramFiles/mingw-w64-x86_64-8.1.0-posix-seh-rt_v6-rev0/mingw64/bin/../lib/gcc/x86_64-w64-mingw32/8.1.0/../../../../x86_64-w64-mingw32/lib/../lib/libmsvcrt.a(duags00332.o)
 .idata$4       0x00000000004261b8        0x8 c:/ProgramFiles/mingw-w64-x86_64-8.1.0-posix-seh-rt_v6-rev0/mingw64/bin/../lib/gcc/x86_64-w64-mingw32/8.1.0/../../../../x86_64-w64-mingw32/lib/../lib/libmsvcrt.a(duags00603.o)
 .idata$4       0x00000000004261c0        0x8 c:/ProgramFiles/mingw-w64-x86_64-8.1.0-posix-seh-rt_v6-rev0/mingw64/bin/../lib/gcc/x86_64-w64-mingw32/8.1.0/../../../../x86_64-w64-mingw32/lib/../lib/libmsvcrt.a(duags00614.o)
 .idata$4       0x00000000004261c8        0x8 c:/ProgramFiles/mingw-w64-x86_64-8.1.0-posix-seh-rt_v6-rev0/mingw64/bin/../lib/gcc/x86_64-w64-mingw32/8.1.0/../../../../x86_64-w64-mingw32/lib/../lib/libmsvcrt.a(duags00689.o)
 .idata$4       0x00000000004261d0        0x8 c:/ProgramFiles/mingw-w64-x86_64-8.1.0-posix-seh-rt_v6-rev0/mingw64/bin/../lib/gcc/x86_64-w64-mingw32/8.1.0/../../../../x86_64-w64-mingw32/lib/../lib/libmsvcrt.a(duags00735.o)
 .idata$4       0x00000000004261d8        0x8 c:/ProgramFiles/mingw-w64-x86_64-8.1.0-posix-seh-rt_v6-rev0/mingw64/bin/../lib/gcc/x86_64-w64-mingw32/8.1.0/../../../../x86_64-w64-mingw32/lib/../lib/libmsvcrt.a(duags00852.o)
 .idata$4       0x00000000004261e0        0x8 c:/ProgramFiles/mingw-w64-x86_64-8.1.0-posix-seh-rt_v6-rev0/mingw64/bin/../lib/gcc/x86_64-w64-mingw32/8.1.0/../../../../x86_64-w64-mingw32/lib/../lib/libmsvcrt.a(duags00973.o)
 .idata$4       0x00000000004261e8        0x8 c:/ProgramFiles/mingw-w64-x86_64-8.1.0-posix-seh-rt_v6-rev0/mingw64/bin/../lib/gcc/x86_64-w64-mingw32/8.1.0/../../../../x86_64-w64-mingw32/lib/../lib/libmsvcrt.a(duags01032.o)
 .idata$4       0x00000000004261f0        0x8 c:/ProgramFiles/mingw-w64-x86_64-8.1.0-posix-seh-rt_v6-rev0/mingw64/bin/../lib/gcc/x86_64-w64-mingw32/8.1.0/../../../../x86_64-w64-mingw32/lib/../lib/libmsvcrt.a(duags01048.o)
 .idata$4       0x00000000004261f8        0x8 c:/ProgramFiles/mingw-w64-x86_64-8.1.0-posix-seh-rt_v6-rev0/mingw64/bin/../lib/gcc/x86_64-w64-mingw32/8.1.0/../../../../x86_64-w64-mingw32/lib/../lib/libmsvcrt.a(duags01050.o)
 .idata$4       0x0000000000426200        0x8 c:/ProgramFiles/mingw-w64-x86_64-8.1.0-posix-seh-rt_v6-rev0/mingw64/bin/../lib/gcc/x86_64-w64-mingw32/8.1.0/../../../../x86_64-w64-mingw32/lib/../lib/libmsvcrt.a(duags01055.o)
 .idata$4       0x0000000000426208        0x8 c:/ProgramFiles/mingw-w64-x86_64-8.1.0-posix-seh-rt_v6-rev0/mingw64/bin/../lib/gcc/x86_64-w64-mingw32/8.1.0/../../../../x86_64-w64-mingw32/lib/../lib/libmsvcrt.a(duags01060.o)
 .idata$4       0x0000000000426210        0x8 c:/ProgramFiles/mingw-w64-x86_64-8.1.0-posix-seh-rt_v6-rev0/mingw64/bin/../lib/gcc/x86_64-w64-mingw32/8.1.0/../../../../x86_64-w64-mingw32/lib/../lib/libmsvcrt.a(duags01063.o)
 .idata$4       0x0000000000426218        0x8 c:/ProgramFiles/mingw-w64-x86_64-8.1.0-posix-seh-rt_v6-rev0/mingw64/bin/../lib/gcc/x86_64-w64-mingw32/8.1.0/../../../../x86_64-w64-mingw32/lib/../lib/libmsvcrt.a(duags01067.o)
 .idata$4       0x0000000000426220        0x8 c:/ProgramFiles/mingw-w64-x86_64-8.1.0-posix-seh-rt_v6-rev0/mingw64/bin/../lib/gcc/x86_64-w64-mingw32/8.1.0/../../../../x86_64-w64-mingw32/lib/../lib/libmsvcrt.a(duags01069.o)
 .idata$4       0x0000000000426228        0x8 c:/ProgramFiles/mingw-w64-x86_64-8.1.0-posix-seh-rt_v6-rev0/mingw64/bin/../lib/gcc/x86_64-w64-mingw32/8.1.0/../../../../x86_64-w64-mingw32/lib/../lib/libmsvcrt.a(duags01070.o)
 .idata$4       0x0000000000426230        0x8 c:/ProgramFiles/mingw-w64-x86_64-8.1.0-posix-seh-rt_v6-rev0/mingw64/bin/../lib/gcc/x86_64-w64-mingw32/8.1.0/../../../../x86_64-w64-mingw32/lib/../lib/libmsvcrt.a(duags01071.o)
 .idata$4       0x0000000000426238        0x8 c:/ProgramFiles/mingw-w64-x86_64-8.1.0-posix-seh-rt_v6-rev0/mingw64/bin/../lib/gcc/x86_64-w64-mingw32/8.1.0/../../../../x86_64-w64-mingw32/lib/../lib/libmsvcrt.a(duags01080.o)
 .idata$4       0x0000000000426240        0x8 c:/ProgramFiles/mingw-w64-x86_64-8.1.0-posix-seh-rt_v6-rev0/mingw64/bin/../lib/gcc/x86_64-w64-mingw32/8.1.0/../../../../x86_64-w64-mingw32/lib/../lib/libmsvcrt.a(duags01082.o)
 .idata$4       0x0000000000426248        0x8 c:/ProgramFiles/mingw-w64-x86_64-8.1.0-posix-seh-rt_v6-rev0/mingw64/bin/../lib/gcc/x86_64-w64-mingw32/8.1.0/../../../../x86_64-w64-mingw32/lib/../lib/libmsvcrt.a(duags01084.o)
 .idata$4       0x0000000000426250        0x8 c:/ProgramFiles/mingw-w64-x86_64-8.1.0-posix-seh-rt_v6-rev0/mingw64/bin/../lib/gcc/x86_64-w64-mingw32/8.1.0/../../../../x86_64-w64-mingw32/lib/../lib/libmsvcrt.a(duags01085.o)
 .idata$4       0x0000000000426258        0x8 c:/ProgramFiles/mingw-w64-x86_64-8.1.0-posix-seh-rt_v6-rev0/mingw64/bin/../lib/gcc/x86_64-w64-mingw32/8.1.0/../../../../x86_64-w64-mingw32/lib/../lib/libmsvcrt.a(duags01089.o)
 .idata$4       0x0000000000426260        0x8 c:/ProgramFiles/mingw-w64-x86_64-8.1.0-posix-seh-rt_v6-rev0/mingw64/bin/../lib/gcc/x86_64-w64-mingw32/8.1.0/../../../../x86_64-w64-mingw32/lib/../lib/libmsvcrt.a(duags01099.o)
 .idata$4       0x0000000000426268        0x8 c:/ProgramFiles/mingw-w64-x86_64-8.1.0-posix-seh-rt_v6-rev0/mingw64/bin/../lib/gcc/x86_64-w64-mingw32/8.1.0/../../../../x86_64-w64-mingw32/lib/../lib/libmsvcrt.a(duags01101.o)
 .idata$4       0x0000000000426270        0x8 c:/ProgramFiles/mingw-w64-x86_64-8.1.0-posix-seh-rt_v6-rev0/mingw64/bin/../lib/gcc/x86_64-w64-mingw32/8.1.0/../../../../x86_64-w64-mingw32/lib/../lib/libmsvcrt.a(duags01106.o)
 .idata$4       0x0000000000426278        0x8 c:/ProgramFiles/mingw-w64-x86_64-8.1.0-posix-seh-rt_v6-rev0/mingw64/bin/../lib/gcc/x86_64-w64-mingw32/8.1.0/../../../../x86_64-w64-mingw32/lib/../lib/libmsvcrt.a(duags01120.o)
 .idata$4       0x0000000000426280        0x8 c:/ProgramFiles/mingw-w64-x86_64-8.1.0-posix-seh-rt_v6-rev0/mingw64/bin/../lib/gcc/x86_64-w64-mingw32/8.1.0/../../../../x86_64-w64-mingw32/lib/../lib/libmsvcrt.a(duags01142.o)
 .idata$4       0x0000000000426288        0x8 c:/ProgramFiles/mingw-w64-x86_64-8.1.0-posix-seh-rt_v6-rev0/mingw64/bin/../lib/gcc/x86_64-w64-mingw32/8.1.0/../../../../x86_64-w64-mingw32/lib/../lib/libmsvcrt.a(duags01149.o)
 .idata$4       0x0000000000426290        0x8 c:/ProgramFiles/mingw-w64-x86_64-8.1.0-posix-seh-rt_v6-rev0/mingw64/bin/../lib/gcc/x86_64-w64-mingw32/8.1.0/../../../../x86_64-w64-mingw32/lib/../lib/libmsvcrt.a(duags01156.o)
 .idata$4       0x0000000000426298        0x8 c:/ProgramFiles/mingw-w64-x86_64-8.1.0-posix-seh-rt_v6-rev0/mingw64/bin/../lib/gcc/x86_64-w64-mingw32/8.1.0/../../../../x86_64-w64-mingw32/lib/../lib/libmsvcrt.a(duags01157.o)
 .idata$4       0x00000000004262a0        0x8 c:/ProgramFiles/mingw-w64-x86_64-8.1.0-posix-seh-rt_v6-rev0/mingw64/bin/../lib/gcc/x86_64-w64-mingw32/8.1.0/../../../../x86_64-w64-mingw32/lib/../lib/libmsvcrt.a(duags01159.o)
 .idata$4       0x00000000004262a8        0x8 c:/ProgramFiles/mingw-w64-x86_64-8.1.0-posix-seh-rt_v6-rev0/mingw64/bin/../lib/gcc/x86_64-w64-mingw32/8.1.0/../../../../x86_64-w64-mingw32/lib/../lib/libmsvcrt.a(duags01170.o)
 .idata$4       0x00000000004262b0        0x8 c:/ProgramFiles/mingw-w64-x86_64-8.1.0-posix-seh-rt_v6-rev0/mingw64/bin/../lib/gcc/x86_64-w64-mingw32/8.1.0/../../../../x86_64-w64-mingw32/lib/../lib/libmsvcrt.a(duags01175.o)
 .idata$4       0x00000000004262b8        0x8 c:/ProgramFiles/mingw-w64-x86_64-8.1.0-posix-seh-rt_v6-rev0/mingw64/bin/../lib/gcc/x86_64-w64-mingw32/8.1.0/../../../../x86_64-w64-mingw32/lib/../lib/libmsvcrt.a(duags01176.o)
 .idata$4       0x00000000004262c0        0x8 c:/ProgramFiles/mingw-w64-x86_64-8.1.0-posix-seh-rt_v6-rev0/mingw64/bin/../lib/gcc/x86_64-w64-mingw32/8.1.0/../../../../x86_64-w64-mingw32/lib/../lib/libmsvcrt.a(duags01187.o)
 .idata$4       0x00000000004262c8        0x8 c:/ProgramFiles/mingw-w64-x86_64-8.1.0-posix-seh-rt_v6-rev0/mingw64/bin/../lib/gcc/x86_64-w64-mingw32/8.1.0/../../../../x86_64-w64-mingw32/lib/../lib/libmsvcrt.a(duags01200.o)
 .idata$4       0x00000000004262d0        0x8 c:/ProgramFiles/mingw-w64-x86_64-8.1.0-posix-seh-rt_v6-rev0/mingw64/bin/../lib/gcc/x86_64-w64-mingw32/8.1.0/../../../../x86_64-w64-mingw32/lib/../lib/libmsvcrt.a(duags01201.o)
 .idata$4       0x00000000004262d8        0x8 c:/ProgramFiles/mingw-w64-x86_64-8.1.0-posix-seh-rt_v6-rev0/mingw64/bin/../lib/gcc/x86_64-w64-mingw32/8.1.0/../../../../x86_64-w64-mingw32/lib/../lib/libmsvcrt.a(duags01203.o)
 .idata$4       0x00000000004262e0        0x8 c:/ProgramFiles/mingw-w64-x86_64-8.1.0-posix-seh-rt_v6-rev0/mingw64/bin/../lib/gcc/x86_64-w64-mingw32/8.1.0/../../../../x86_64-w64-mingw32/lib/../lib/libmsvcrt.a(duags01208.o)
 .idata$4       0x00000000004262e8        0x8 c:/ProgramFiles/mingw-w64-x86_64-8.1.0-posix-seh-rt_v6-rev0/mingw64/bin/../lib/gcc/x86_64-w64-mingw32/8.1.0/../../../../x86_64-w64-mingw32/lib/../lib/libmsvcrt.a(duags01209.o)
 .idata$4       0x00000000004262f0        0x8 c:/ProgramFiles/mingw-w64-x86_64-8.1.0-posix-seh-rt_v6-rev0/mingw64/bin/../lib/gcc/x86_64-w64-mingw32/8.1.0/../../../../x86_64-w64-mingw32/lib/../lib/libmsvcrt.a(duags01211.o)
 .idata$4       0x00000000004262f8        0x8 c:/ProgramFiles/mingw-w64-x86_64-8.1.0-posix-seh-rt_v6-rev0/mingw64/bin/../lib/gcc/x86_64-w64-mingw32/8.1.0/../../../../x86_64-w64-mingw32/lib/../lib/libmsvcrt.a(duags01212.o)
 .idata$4       0x0000000000426300        0x8 c:/ProgramFiles/mingw-w64-x86_64-8.1.0-posix-seh-rt_v6-rev0/mingw64/bin/../lib/gcc/x86_64-w64-mingw32/8.1.0/../../../../x86_64-w64-mingw32/lib/../lib/libmsvcrt.a(duags01214.o)
 .idata$4       0x0000000000426308        0x8 c:/ProgramFiles/mingw-w64-x86_64-8.1.0-posix-seh-rt_v6-rev0/mingw64/bin/../lib/gcc/x86_64-w64-mingw32/8.1.0/../../../../x86_64-w64-mingw32/lib/../lib/libmsvcrt.a(duags01243.o)
 .idata$4       0x0000000000426310        0x8 c:/ProgramFiles/mingw-w64-x86_64-8.1.0-posix-seh-rt_v6-rev0/mingw64/bin/../lib/gcc/x86_64-w64-mingw32/8.1.0/../../../../x86_64-w64-mingw32/lib/../lib/libmsvcrt.a(duags01260.o)
 .idata$4       0x0000000000426318        0x8 c:/ProgramFiles/mingw-w64-x86_64-8.1.0-posix-seh-rt_v6-rev0/mingw64/bin/../lib/gcc/x86_64-w64-mingw32/8.1.0/../../../../x86_64-w64-mingw32/lib/../lib/libmsvcrt.a(duagt.o)
 .idata$4       0x0000000000426320        0x0 c:/ProgramFiles/mingw-w64-x86_64-8.1.0-posix-seh-rt_v6-rev0/mingw64/bin/../lib/gcc/x86_64-w64-mingw32/8.1.0/../../../../x86_64-w64-mingw32/lib/../lib/libuser32.a(dyqeh.o)
 .idata$4       0x0000000000426320        0x8 c:/ProgramFiles/mingw-w64-x86_64-8.1.0-posix-seh-rt_v6-rev0/mingw64/bin/../lib/gcc/x86_64-w64-mingw32/8.1.0/../../../../x86_64-w64-mingw32/lib/../lib/libuser32.a(dyqes00619.o)
 .idata$4       0x0000000000426328        0x8 c:/ProgramFiles/mingw-w64-x86_64-8.1.0-posix-seh-rt_v6-rev0/mingw64/bin/../lib/gcc/x86_64-w64-mingw32/8.1.0/../../../../x86_64-w64-mingw32/lib/../lib/libuser32.a(dyqet.o)
                0x0000000000426330                __IAT_start__ = .
 SORT_BY_NAME(*)(.idata$5)
 .idata$5       0x0000000000426330        0x0 c:/ProgramFiles/mingw-w64-x86_64-8.1.0-posix-seh-rt_v6-rev0/mingw64/bin/../lib/gcc/x86_64-w64-mingw32/8.1.0/../../../../x86_64-w64-mingw32/lib/../lib/libkernel32.a(dqifh.o)
 .idata$5       0x0000000000426330        0x8 c:/ProgramFiles/mingw-w64-x86_64-8.1.0-posix-seh-rt_v6-rev0/mingw64/bin/../lib/gcc/x86_64-w64-mingw32/8.1.0/../../../../x86_64-w64-mingw32/lib/../lib/libkernel32.a(dqifs00268.o)
                0x0000000000426330                __imp_DeleteCriticalSection
 .idata$5       0x0000000000426338        0x8 c:/ProgramFiles/mingw-w64-x86_64-8.1.0-posix-seh-rt_v6-rev0/mingw64/bin/../lib/gcc/x86_64-w64-mingw32/8.1.0/../../../../x86_64-w64-mingw32/lib/../lib/libkernel32.a(dqifs00304.o)
                0x0000000000426338                __imp_EnterCriticalSection
 .idata$5       0x0000000000426340        0x8 c:/ProgramFiles/mingw-w64-x86_64-8.1.0-posix-seh-rt_v6-rev0/mingw64/bin/../lib/gcc/x86_64-w64-mingw32/8.1.0/../../../../x86_64-w64-mingw32/lib/../lib/libkernel32.a(dqifs00535.o)
                0x0000000000426340                __imp_GetCurrentProcess
 .idata$5       0x0000000000426348        0x8 c:/ProgramFiles/mingw-w64-x86_64-8.1.0-posix-seh-rt_v6-rev0/mingw64/bin/../lib/gcc/x86_64-w64-mingw32/8.1.0/../../../../x86_64-w64-mingw32/lib/../lib/libkernel32.a(dqifs00536.o)
                0x0000000000426348                __imp_GetCurrentProcessId
 .idata$5       0x0000000000426350        0x8 c:/ProgramFiles/mingw-w64-x86_64-8.1.0-posix-seh-rt_v6-rev0/mingw64/bin/../lib/gcc/x86_64-w64-mingw32/8.1.0/../../../../x86_64-w64-mingw32/lib/../lib/libkernel32.a(dqifs00540.o)
                0x0000000000426350                __imp_GetCurrentThreadId
 .idata$5       0x0000000000426358        0x8 c:/ProgramFiles/mingw-w64-x86_64-8.1.0-posix-seh-rt_v6-rev0/mingw64/bin/../lib/gcc/x86_64-w64-mingw32/8.1.0/../../../../x86_64-w64-mingw32/lib/../lib/libkernel32.a(dqifs00578.o)
                0x0000000000426358                __imp_GetFileAttributesA
 .idata$5       0x0000000000426360        0x8 c:/ProgramFiles/mingw-w64-x86_64-8.1.0-posix-seh-rt_v6-rev0/mingw64/bin/../lib/gcc/x86_64-w64-mingw32/8.1.0/../../../../x86_64-w64-mingw32/lib/../lib/libkernel32.a(dqifs00609.o)
                0x0000000000426360                __imp_GetLastError
 .idata$5       0x0000000000426368        0x8 c:/ProgramFiles/mingw-w64-x86_64-8.1.0-posix-seh-rt_v6-rev0/mingw64/bin/../lib/gcc/x86_64-w64-mingw32/8.1.0/../../../../x86_64-w64-mingw32/lib/../lib/libkernel32.a(dqifs00629.o)
                0x0000000000426368                __imp_GetModuleFileNameW
 .idata$5       0x0000000000426370        0x8 c:/ProgramFiles/mingw-w64-x86_64-8.1.0-posix-seh-rt_v6-rev0/mingw64/bin/../lib/gcc/x86_64-w64-mingw32/8.1.0/../../../../x86_64-w64-mingw32/lib/../lib/libkernel32.a(dqifs00721.o)
                0x0000000000426370                __imp_GetStartupInfoA
 .idata$5       0x0000000000426378        0x8 c:/ProgramFiles/mingw-w64-x86_64-8.1.0-posix-seh-rt_v6-rev0/mingw64/bin/../lib/gcc/x86_64-w64-mingw32/8.1.0/../../../../x86_64-w64-mingw32/lib/../lib/libkernel32.a(dqifs00746.o)
                0x0000000000426378                __imp_GetSystemTimeAsFileTime
 .idata$5       0x0000000000426380        0x8 c:/ProgramFiles/mingw-w64-x86_64-8.1.0-posix-seh-rt_v6-rev0/mingw64/bin/../lib/gcc/x86_64-w64-mingw32/8.1.0/../../../../x86_64-w64-mingw32/lib/../lib/libkernel32.a(dqifs00774.o)
                0x0000000000426380                __imp_GetTickCount
 .idata$5       0x0000000000426388        0x8 c:/ProgramFiles/mingw-w64-x86_64-8.1.0-posix-seh-rt_v6-rev0/mingw64/bin/../lib/gcc/x86_64-w64-mingw32/8.1.0/../../../../x86_64-w64-mingw32/lib/../lib/libkernel32.a(dqifs00863.o)
                0x0000000000426388                __imp_InitializeCriticalSection
 .idata$5       0x0000000000426390        0x8 c:/ProgramFiles/mingw-w64-x86_64-8.1.0-posix-seh-rt_v6-rev0/mingw64/bin/../lib/gcc/x86_64-w64-mingw32/8.1.0/../../../../x86_64-w64-mingw32/lib/../lib/libkernel32.a(dqifs00951.o)
                0x0000000000426390                __imp_LeaveCriticalSection
 .idata$5       0x0000000000426398        0x8 c:/ProgramFiles/mingw-w64-x86_64-8.1.0-posix-seh-rt_v6-rev0/mingw64/bin/../lib/gcc/x86_64-w64-mingw32/8.1.0/../../../../x86_64-w64-mingw32/lib/../lib/libkernel32.a(dqifs01093.o)
                0x0000000000426398                __imp_QueryPerformanceCounter
 .idata$5       0x00000000004263a0        0x8 c:/ProgramFiles/mingw-w64-x86_64-8.1.0-posix-seh-rt_v6-rev0/mingw64/bin/../lib/gcc/x86_64-w64-mingw32/8.1.0/../../../../x86_64-w64-mingw32/lib/../lib/libkernel32.a(dqifs01179.o)
                0x00000000004263a0                __imp_RtlAddFunctionTable
 .idata$5       0x00000000004263a8        0x8 c:/ProgramFiles/mingw-w64-x86_64-8.1.0-posix-seh-rt_v6-rev0/mingw64/bin/../lib/gcc/x86_64-w64-mingw32/8.1.0/../../../../x86_64-w64-mingw32/lib/../lib/libkernel32.a(dqifs01180.o)
                0x00000000004263a8                __imp_RtlCaptureContext
 .idata$5       0x00000000004263b0        0x8 c:/ProgramFiles/mingw-w64-x86_64-8.1.0-posix-seh-rt_v6-rev0/mingw64/bin/../lib/gcc/x86_64-w64-mingw32/8.1.0/../../../../x86_64-w64-mingw32/lib/../lib/libkernel32.a(dqifs01187.o)
                0x00000000004263b0                __imp_RtlLookupFunctionEntry
 .idata$5       0x00000000004263b8        0x8 c:/ProgramFiles/mingw-w64-x86_64-8.1.0-posix-seh-rt_v6-rev0/mingw64/bin/../lib/gcc/x86_64-w64-mingw32/8.1.0/../../../../x86_64-w64-mingw32/lib/../lib/libkernel32.a(dqifs01194.o)
                0x00000000004263b8                __imp_RtlVirtualUnwind
 .idata$5       0x00000000004263c0        0x8 c:/ProgramFiles/mingw-w64-x86_64-8.1.0-posix-seh-rt_v6-rev0/mingw64/bin/../lib/gcc/x86_64-w64-mingw32/8.1.0/../../../../x86_64-w64-mingw32/lib/../lib/libkernel32.a(dqifs01346.o)
                0x00000000004263c0                __imp_SetUnhandledExceptionFilter
 .idata$5       0x00000000004263c8        0x8 c:/ProgramFiles/mingw-w64-x86_64-8.1.0-posix-seh-rt_v6-rev0/mingw64/bin/../lib/gcc/x86_64-w64-mingw32/8.1.0/../../../../x86_64-w64-mingw32/lib/../lib/libkernel32.a(dqifs01360.o)
                0x00000000004263c8                __imp_Sleep
 .idata$5       0x00000000004263d0        0x8 c:/ProgramFiles/mingw-w64-x86_64-8.1.0-posix-seh-rt_v6-rev0/mingw64/bin/../lib/gcc/x86_64-w64-mingw32/8.1.0/../../../../x86_64-w64-mingw32/lib/../lib/libkernel32.a(dqifs01375.o)
                0x00000000004263d0                __imp_TerminateProcess
 .idata$5       0x00000000004263d8        0x8 c:/ProgramFiles/mingw-w64-x86_64-8.1.0-posix-seh-rt_v6-rev0/mingw64/bin/../lib/gcc/x86_64-w64-mingw32/8.1.0/../../../../x86_64-w64-mingw32/lib/../lib/libkernel32.a(dqifs01395.o)
                0x00000000004263d8                __imp_TlsGetValue
 .idata$5       0x00000000004263e0        0x8 c:/ProgramFiles/mingw-w64-x86_64-8.1.0-posix-seh-rt_v6-rev0/mingw64/bin/../lib/gcc/x86_64-w64-mingw32/8.1.0/../../../../x86_64-w64-mingw32/lib/../lib/libkernel32.a(dqifs01409.o)
                0x00000000004263e0                __imp_UnhandledExceptionFilter
 .idata$5       0x00000000004263e8        0x8 c:/ProgramFiles/mingw-w64-x86_64-8.1.0-posix-seh-rt_v6-rev0/mingw64/bin/../lib/gcc/x86_64-w64-mingw32/8.1.0/../../../../x86_64-w64-mingw32/lib/../lib/libkernel32.a(dqifs01443.o)
                0x00000000004263e8                __imp_VirtualProtect
 .idata$5       0x00000000004263f0        0x8 c:/ProgramFiles/mingw-w64-x86_64-8.1.0-posix-seh-rt_v6-rev0/mingw64/bin/../lib/gcc/x86_64-w64-mingw32/8.1.0/../../../../x86_64-w64-mingw32/lib/../lib/libkernel32.a(dqifs01445.o)
                0x00000000004263f0                __imp_VirtualQuery
 .idata$5       0x00000000004263f8        0x8 c:/ProgramFiles/mingw-w64-x86_64-8.1.0-posix-seh-rt_v6-rev0/mingw64/bin/../lib/gcc/x86_64-w64-mingw32/8.1.0/../../../../x86_64-w64-mingw32/lib/../lib/libkernel32.a(dqift.o)
 .idata$5       0x0000000000426400        0x0 c:/ProgramFiles/mingw-w64-x86_64-8.1.0-posix-seh-rt_v6-rev0/mingw64/bin/../lib/gcc/x86_64-w64-mingw32/8.1.0/../../../../x86_64-w64-mingw32/lib/../lib/libmsvcrt.a(duagh.o)
 .idata$5       0x0000000000426400        0x8 c:/ProgramFiles/mingw-w64-x86_64-8.1.0-posix-seh-rt_v6-rev0/mingw64/bin/../lib/gcc/x86_64-w64-mingw32/8.1.0/../../../../x86_64-w64-mingw32/lib/../lib/libmsvcrt.a(duags00055.o)
                0x0000000000426400                __imp___C_specific_handler
 .idata$5       0x0000000000426408        0x8 c:/ProgramFiles/mingw-w64-x86_64-8.1.0-posix-seh-rt_v6-rev0/mingw64/bin/../lib/gcc/x86_64-w64-mingw32/8.1.0/../../../../x86_64-w64-mingw32/lib/../lib/libmsvcrt.a(duags00070.o)
                0x0000000000426408                __imp___argv
 .idata$5       0x0000000000426410        0x8 c:/ProgramFiles/mingw-w64-x86_64-8.1.0-posix-seh-rt_v6-rev0/mingw64/bin/../lib/gcc/x86_64-w64-mingw32/8.1.0/../../../../x86_64-w64-mingw32/lib/../lib/libmsvcrt.a(duags00081.o)
                0x0000000000426410                __imp___getmainargs
 .idata$5       0x0000000000426418        0x8 c:/ProgramFiles/mingw-w64-x86_64-8.1.0-posix-seh-rt_v6-rev0/mingw64/bin/../lib/gcc/x86_64-w64-mingw32/8.1.0/../../../../x86_64-w64-mingw32/lib/../lib/libmsvcrt.a(duags00082.o)
                0x0000000000426418                __imp___initenv
 .idata$5       0x0000000000426420        0x8 c:/ProgramFiles/mingw-w64-x86_64-8.1.0-posix-seh-rt_v6-rev0/mingw64/bin/../lib/gcc/x86_64-w64-mingw32/8.1.0/../../../../x86_64-w64-mingw32/lib/../lib/libmsvcrt.a(duags00083.o)
                0x0000000000426420                __imp___iob_func
 .idata$5       0x0000000000426428        0x8 c:/ProgramFiles/mingw-w64-x86_64-8.1.0-posix-seh-rt_v6-rev0/mingw64/bin/../lib/gcc/x86_64-w64-mingw32/8.1.0/../../../../x86_64-w64-mingw32/lib/../lib/libmsvcrt.a(duags00090.o)
                0x0000000000426428                __imp___lconv_init
 .idata$5       0x0000000000426430        0x8 c:/ProgramFiles/mingw-w64-x86_64-8.1.0-posix-seh-rt_v6-rev0/mingw64/bin/../lib/gcc/x86_64-w64-mingw32/8.1.0/../../../../x86_64-w64-mingw32/lib/../lib/libmsvcrt.a(duags00096.o)
                0x0000000000426430                __imp___set_app_type
 .idata$5       0x0000000000426438        0x8 c:/ProgramFiles/mingw-w64-x86_64-8.1.0-posix-seh-rt_v6-rev0/mingw64/bin/../lib/gcc/x86_64-w64-mingw32/8.1.0/../../../../x86_64-w64-mingw32/lib/../lib/libmsvcrt.a(duags00098.o)
                0x0000000000426438                __imp___setusermatherr
 .idata$5       0x0000000000426440        0x8 c:/ProgramFiles/mingw-w64-x86_64-8.1.0-posix-seh-rt_v6-rev0/mingw64/bin/../lib/gcc/x86_64-w64-mingw32/8.1.0/../../../../x86_64-w64-mingw32/lib/../lib/libmsvcrt.a(duags00115.o)
                0x0000000000426440                __imp__acmdln
 .idata$5       0x0000000000426448        0x8 c:/ProgramFiles/mingw-w64-x86_64-8.1.0-posix-seh-rt_v6-rev0/mingw64/bin/../lib/gcc/x86_64-w64-mingw32/8.1.0/../../../../x86_64-w64-mingw32/lib/../lib/libmsvcrt.a(duags00122.o)
                0x0000000000426448                __imp__amsg_exit
 .idata$5       0x0000000000426450        0x8 c:/ProgramFiles/mingw-w64-x86_64-8.1.0-posix-seh-rt_v6-rev0/mingw64/bin/../lib/gcc/x86_64-w64-mingw32/8.1.0/../../../../x86_64-w64-mingw32/lib/../lib/libmsvcrt.a(duags00141.o)
                0x0000000000426450                __imp__cexit
 .idata$5       0x0000000000426458        0x8 c:/ProgramFiles/mingw-w64-x86_64-8.1.0-posix-seh-rt_v6-rev0/mingw64/bin/../lib/gcc/x86_64-w64-mingw32/8.1.0/../../../../x86_64-w64-mingw32/lib/../lib/libmsvcrt.a(duags00203.o)
                0x0000000000426458                __imp__errno
 .idata$5       0x0000000000426460        0x8 c:/ProgramFiles/mingw-w64-x86_64-8.1.0-posix-seh-rt_v6-rev0/mingw64/bin/../lib/gcc/x86_64-w64-mingw32/8.1.0/../../../../x86_64-w64-mingw32/lib/../lib/libmsvcrt.a(duags00218.o)
                0x0000000000426460                __imp__exit
 .idata$5       0x0000000000426468        0x8 c:/ProgramFiles/mingw-w64-x86_64-8.1.0-posix-seh-rt_v6-rev0/mingw64/bin/../lib/gcc/x86_64-w64-mingw32/8.1.0/../../../../x86_64-w64-mingw32/lib/../lib/libmsvcrt.a(duags00237.o)
                0x0000000000426468                __imp__findclose
 .idata$5       0x0000000000426470        0x8 c:/ProgramFiles/mingw-w64-x86_64-8.1.0-posix-seh-rt_v6-rev0/mingw64/bin/../lib/gcc/x86_64-w64-mingw32/8.1.0/../../../../x86_64-w64-mingw32/lib/../lib/libmsvcrt.a(duags00240.o)
                0x0000000000426470                __imp__findfirst64
 .idata$5       0x0000000000426478        0x8 c:/ProgramFiles/mingw-w64-x86_64-8.1.0-posix-seh-rt_v6-rev0/mingw64/bin/../lib/gcc/x86_64-w64-mingw32/8.1.0/../../../../x86_64-w64-mingw32/lib/../lib/libmsvcrt.a(duags00245.o)
                0x0000000000426478                __imp__findnext64
 .idata$5       0x0000000000426480        0x8 c:/ProgramFiles/mingw-w64-x86_64-8.1.0-posix-seh-rt_v6-rev0/mingw64/bin/../lib/gcc/x86_64-w64-mingw32/8.1.0/../../../../x86_64-w64-mingw32/lib/../lib/libmsvcrt.a(duags00253.o)
                0x0000000000426480                __imp__fmode
 .idata$5       0x0000000000426488        0x8 c:/ProgramFiles/mingw-w64-x86_64-8.1.0-posix-seh-rt_v6-rev0/mingw64/bin/../lib/gcc/x86_64-w64-mingw32/8.1.0/../../../../x86_64-w64-mingw32/lib/../lib/libmsvcrt.a(duags00278.o)
                0x0000000000426488                __imp__fullpath
 .idata$5       0x0000000000426490        0x8 c:/ProgramFiles/mingw-w64-x86_64-8.1.0-posix-seh-rt_v6-rev0/mingw64/bin/../lib/gcc/x86_64-w64-mingw32/8.1.0/../../../../x86_64-w64-mingw32/lib/../lib/libmsvcrt.a(duags00332.o)
                0x0000000000426490                __imp__initterm
 .idata$5       0x0000000000426498        0x8 c:/ProgramFiles/mingw-w64-x86_64-8.1.0-posix-seh-rt_v6-rev0/mingw64/bin/../lib/gcc/x86_64-w64-mingw32/8.1.0/../../../../x86_64-w64-mingw32/lib/../lib/libmsvcrt.a(duags00603.o)
                0x0000000000426498                __imp_mkdir
 .idata$5       0x00000000004264a0        0x8 c:/ProgramFiles/mingw-w64-x86_64-8.1.0-posix-seh-rt_v6-rev0/mingw64/bin/../lib/gcc/x86_64-w64-mingw32/8.1.0/../../../../x86_64-w64-mingw32/lib/../lib/libmsvcrt.a(duags00614.o)
                0x00000000004264a0                __imp__onexit
 .idata$5       0x00000000004264a8        0x8 c:/ProgramFiles/mingw-w64-x86_64-8.1.0-posix-seh-rt_v6-rev0/mingw64/bin/../lib/gcc/x86_64-w64-mingw32/8.1.0/../../../../x86_64-w64-mingw32/lib/../lib/libmsvcrt.a(duags00689.o)
                0x00000000004264a8                __imp__snwprintf
 .idata$5       0x00000000004264b0        0x8 c:/ProgramFiles/mingw-w64-x86_64-8.1.0-posix-seh-rt_v6-rev0/mingw64/bin/../lib/gcc/x86_64-w64-mingw32/8.1.0/../../../../x86_64-w64-mingw32/lib/../lib/libmsvcrt.a(duags00735.o)
                0x00000000004264b0                __imp_stricmp
 .idata$5       0x00000000004264b8        0x8 c:/ProgramFiles/mingw-w64-x86_64-8.1.0-posix-seh-rt_v6-rev0/mingw64/bin/../lib/gcc/x86_64-w64-mingw32/8.1.0/../../../../x86_64-w64-mingw32/lib/../lib/libmsvcrt.a(duags00852.o)
                0x00000000004264b8                __imp__vsnprintf
 .idata$5       0x00000000004264c0        0x8 c:/ProgramFiles/mingw-w64-x86_64-8.1.0-posix-seh-rt_v6-rev0/mingw64/bin/../lib/gcc/x86_64-w64-mingw32/8.1.0/../../../../x86_64-w64-mingw32/lib/../lib/libmsvcrt.a(duags00973.o)
                0x00000000004264c0                __imp_time
 .idata$5       0x00000000004264c8        0x8 c:/ProgramFiles/mingw-w64-x86_64-8.1.0-posix-seh-rt_v6-rev0/mingw64/bin/../lib/gcc/x86_64-w64-mingw32/8.1.0/../../../../x86_64-w64-mingw32/lib/../lib/libmsvcrt.a(duags01032.o)
                0x00000000004264c8                __imp_abort
 .idata$5       0x00000000004264d0        0x8 c:/ProgramFiles/mingw-w64-x86_64-8.1.0-posix-seh-rt_v6-rev0/mingw64/bin/../lib/gcc/x86_64-w64-mingw32/8.1.0/../../../../x86_64-w64-mingw32/lib/../lib/libmsvcrt.a(duags01048.o)
                0x00000000004264d0                __imp_bsearch
 .idata$5       0x00000000004264d8        0x8 c:/ProgramFiles/mingw-w64-x86_64-8.1.0-posix-seh-rt_v6-rev0/mingw64/bin/../lib/gcc/x86_64-w64-mingw32/8.1.0/../../../../x86_64-w64-mingw32/lib/../lib/libmsvcrt.a(duags01050.o)
                0x00000000004264d8                __imp_calloc
 .idata$5       0x00000000004264e0        0x8 c:/ProgramFiles/mingw-w64-x86_64-8.1.0-posix-seh-rt_v6-rev0/mingw64/bin/../lib/gcc/x86_64-w64-mingw32/8.1.0/../../../../x86_64-w64-mingw32/lib/../lib/libmsvcrt.a(duags01055.o)
                0x00000000004264e0                __imp_clock
 .idata$5       0x00000000004264e8        0x8 c:/ProgramFiles/mingw-w64-x86_64-8.1.0-posix-seh-rt_v6-rev0/mingw64/bin/../lib/gcc/x86_64-w64-mingw32/8.1.0/../../../../x86_64-w64-mingw32/lib/../lib/libmsvcrt.a(duags01060.o)
                0x00000000004264e8                __imp_ctime
 .idata$5       0x00000000004264f0        0x8 c:/ProgramFiles/mingw-w64-x86_64-8.1.0-posix-seh-rt_v6-rev0/mingw64/bin/../lib/gcc/x86_64-w64-mingw32/8.1.0/../../../../x86_64-w64-mingw32/lib/../lib/libmsvcrt.a(duags01063.o)
                0x00000000004264f0                __imp_exit
 .idata$5       0x00000000004264f8        0x8 c:/ProgramFiles/mingw-w64-x86_64-8.1.0-posix-seh-rt_v6-rev0/mingw64/bin/../lib/gcc/x86_64-w64-mingw32/8.1.0/../../../../x86_64-w64-mingw32/lib/../lib/libmsvcrt.a(duags01067.o)
                0x00000000004264f8                __imp_fclose
 .idata$5       0x0000000000426500        0x8 c:/ProgramFiles/mingw-w64-x86_64-8.1.0-posix-seh-rt_v6-rev0/mingw64/bin/../lib/gcc/x86_64-w64-mingw32/8.1.0/../../../../x86_64-w64-mingw32/lib/../lib/libmsvcrt.a(duags01069.o)
                0x0000000000426500                __imp_ferror
 .idata$5       0x0000000000426508        0x8 c:/ProgramFiles/mingw-w64-x86_64-8.1.0-posix-seh-rt_v6-rev0/mingw64/bin/../lib/gcc/x86_64-w64-mingw32/8.1.0/../../../../x86_64-w64-mingw32/lib/../lib/libmsvcrt.a(duags01070.o)
                0x0000000000426508                __imp_fflush
 .idata$5       0x0000000000426510        0x8 c:/ProgramFiles/mingw-w64-x86_64-8.1.0-posix-seh-rt_v6-rev0/mingw64/bin/../lib/gcc/x86_64-w64-mingw32/8.1.0/../../../../x86_64-w64-mingw32/lib/../lib/libmsvcrt.a(duags01071.o)
                0x0000000000426510                __imp_fgetc
 .idata$5       0x0000000000426518        0x8 c:/ProgramFiles/mingw-w64-x86_64-8.1.0-posix-seh-rt_v6-rev0/mingw64/bin/../lib/gcc/x86_64-w64-mingw32/8.1.0/../../../../x86_64-w64-mingw32/lib/../lib/libmsvcrt.a(duags01080.o)
                0x0000000000426518                __imp_fopen
 .idata$5       0x0000000000426520        0x8 c:/ProgramFiles/mingw-w64-x86_64-8.1.0-posix-seh-rt_v6-rev0/mingw64/bin/../lib/gcc/x86_64-w64-mingw32/8.1.0/../../../../x86_64-w64-mingw32/lib/../lib/libmsvcrt.a(duags01082.o)
                0x0000000000426520                __imp_fprintf
 .idata$5       0x0000000000426528        0x8 c:/ProgramFiles/mingw-w64-x86_64-8.1.0-posix-seh-rt_v6-rev0/mingw64/bin/../lib/gcc/x86_64-w64-mingw32/8.1.0/../../../../x86_64-w64-mingw32/lib/../lib/libmsvcrt.a(duags01084.o)
                0x0000000000426528                __imp_fputc
 .idata$5       0x0000000000426530        0x8 c:/ProgramFiles/mingw-w64-x86_64-8.1.0-posix-seh-rt_v6-rev0/mingw64/bin/../lib/gcc/x86_64-w64-mingw32/8.1.0/../../../../x86_64-w64-mingw32/lib/../lib/libmsvcrt.a(duags01085.o)
                0x0000000000426530                __imp_fputs
 .idata$5       0x0000000000426538        0x8 c:/ProgramFiles/mingw-w64-x86_64-8.1.0-posix-seh-rt_v6-rev0/mingw64/bin/../lib/gcc/x86_64-w64-mingw32/8.1.0/../../../../x86_64-w64-mingw32/lib/../lib/libmsvcrt.a(duags01089.o)
                0x0000000000426538                __imp_free
 .idata$5       0x0000000000426540        0x8 c:/ProgramFiles/mingw-w64-x86_64-8.1.0-posix-seh-rt_v6-rev0/mingw64/bin/../lib/gcc/x86_64-w64-mingw32/8.1.0/../../../../x86_64-w64-mingw32/lib/../lib/libmsvcrt.a(duags01099.o)
                0x0000000000426540                __imp_fwprintf
 .idata$5       0x0000000000426548        0x8 c:/ProgramFiles/mingw-w64-x86_64-8.1.0-posix-seh-rt_v6-rev0/mingw64/bin/../lib/gcc/x86_64-w64-mingw32/8.1.0/../../../../x86_64-w64-mingw32/lib/../lib/libmsvcrt.a(duags01101.o)
                0x0000000000426548                __imp_fwrite
 .idata$5       0x0000000000426550        0x8 c:/ProgramFiles/mingw-w64-x86_64-8.1.0-posix-seh-rt_v6-rev0/mingw64/bin/../lib/gcc/x86_64-w64-mingw32/8.1.0/../../../../x86_64-w64-mingw32/lib/../lib/libmsvcrt.a(duags01106.o)
                0x0000000000426550                __imp_getenv
 .idata$5       0x0000000000426558        0x8 c:/ProgramFiles/mingw-w64-x86_64-8.1.0-posix-seh-rt_v6-rev0/mingw64/bin/../lib/gcc/x86_64-w64-mingw32/8.1.0/../../../../x86_64-w64-mingw32/lib/../lib/libmsvcrt.a(duags01120.o)
                0x0000000000426558                __imp_isprint
 .idata$5       0x0000000000426560        0x8 c:/ProgramFiles/mingw-w64-x86_64-8.1.0-posix-seh-rt_v6-rev0/mingw64/bin/../lib/gcc/x86_64-w64-mingw32/8.1.0/../../../../x86_64-w64-mingw32/lib/../lib/libmsvcrt.a(duags01142.o)
                0x0000000000426560                __imp_localeconv
 .idata$5       0x0000000000426568        0x8 c:/ProgramFiles/mingw-w64-x86_64-8.1.0-posix-seh-rt_v6-rev0/mingw64/bin/../lib/gcc/x86_64-w64-mingw32/8.1.0/../../../../x86_64-w64-mingw32/lib/../lib/libmsvcrt.a(duags01149.o)
                0x0000000000426568                __imp_malloc
 .idata$5       0x0000000000426570        0x8 c:/ProgramFiles/mingw-w64-x86_64-8.1.0-posix-seh-rt_v6-rev0/mingw64/bin/../lib/gcc/x86_64-w64-mingw32/8.1.0/../../../../x86_64-w64-mingw32/lib/../lib/libmsvcrt.a(duags01156.o)
                0x0000000000426570                __imp_memcmp
 .idata$5       0x0000000000426578        0x8 c:/ProgramFiles/mingw-w64-x86_64-8.1.0-posix-seh-rt_v6-rev0/mingw64/bin/../lib/gcc/x86_64-w64-mingw32/8.1.0/../../../../x86_64-w64-mingw32/lib/../lib/libmsvcrt.a(duags01157.o)
                0x0000000000426578                __imp_memcpy
 .idata$5       0x0000000000426580        0x8 c:/ProgramFiles/mingw-w64-x86_64-8.1.0-posix-seh-rt_v6-rev0/mingw64/bin/../lib/gcc/x86_64-w64-mingw32/8.1.0/../../../../x86_64-w64-mingw32/lib/../lib/libmsvcrt.a(duags01159.o)
                0x0000000000426580                __imp_memset
 .idata$5       0x0000000000426588        0x8 c:/ProgramFiles/mingw-w64-x86_64-8.1.0-posix-seh-rt_v6-rev0/mingw64/bin/../lib/gcc/x86_64-w64-mingw32/8.1.0/../../../../x86_64-w64-mingw32/lib/../lib/libmsvcrt.a(duags01170.o)
                0x0000000000426588                __imp_puts
 .idata$5       0x0000000000426590        0x8 c:/ProgramFiles/mingw-w64-x86_64-8.1.0-posix-seh-rt_v6-rev0/mingw64/bin/../lib/gcc/x86_64-w64-mingw32/8.1.0/../../../../x86_64-w64-mingw32/lib/../lib/libmsvcrt.a(duags01175.o)
                0x0000000000426590                __imp_raise
 .idata$5       0x0000000000426598        0x8 c:/ProgramFiles/mingw-w64-x86_64-8.1.0-posix-seh-rt_v6-rev0/mingw64/bin/../lib/gcc/x86_64-w64-mingw32/8.1.0/../../../../x86_64-w64-mingw32/lib/../lib/libmsvcrt.a(duags01176.o)
                0x0000000000426598                __imp_rand
 .idata$5       0x00000000004265a0        0x8 c:/ProgramFiles/mingw-w64-x86_64-8.1.0-posix-seh-rt_v6-rev0/mingw64/bin/../lib/gcc/x86_64-w64-mingw32/8.1.0/../../../../x86_64-w64-mingw32/lib/../lib/libmsvcrt.a(duags01187.o)
                0x00000000004265a0                __imp_signal
 .idata$5       0x00000000004265a8        0x8 c:/ProgramFiles/mingw-w64-x86_64-8.1.0-posix-seh-rt_v6-rev0/mingw64/bin/../lib/gcc/x86_64-w64-mingw32/8.1.0/../../../../x86_64-w64-mingw32/lib/../lib/libmsvcrt.a(duags01200.o)
                0x00000000004265a8                __imp_strchr
 .idata$5       0x00000000004265b0        0x8 c:/ProgramFiles/mingw-w64-x86_64-8.1.0-posix-seh-rt_v6-rev0/mingw64/bin/../lib/gcc/x86_64-w64-mingw32/8.1.0/../../../../x86_64-w64-mingw32/lib/../lib/libmsvcrt.a(duags01201.o)
                0x00000000004265b0                __imp_strcmp
 .idata$5       0x00000000004265b8        0x8 c:/ProgramFiles/mingw-w64-x86_64-8.1.0-posix-seh-rt_v6-rev0/mingw64/bin/../lib/gcc/x86_64-w64-mingw32/8.1.0/../../../../x86_64-w64-mingw32/lib/../lib/libmsvcrt.a(duags01203.o)
                0x00000000004265b8                __imp_strcpy
 .idata$5       0x00000000004265c0        0x8 c:/ProgramFiles/mingw-w64-x86_64-8.1.0-posix-seh-rt_v6-rev0/mingw64/bin/../lib/gcc/x86_64-w64-mingw32/8.1.0/../../../../x86_64-w64-mingw32/lib/../lib/libmsvcrt.a(duags01208.o)
                0x00000000004265c0                __imp_strlen
 .idata$5       0x00000000004265c8        0x8 c:/ProgramFiles/mingw-w64-x86_64-8.1.0-posix-seh-rt_v6-rev0/mingw64/bin/../lib/gcc/x86_64-w64-mingw32/8.1.0/../../../../x86_64-w64-mingw32/lib/../lib/libmsvcrt.a(duags01209.o)
                0x00000000004265c8                __imp_strncat
 .idata$5       0x00000000004265d0        0x8 c:/ProgramFiles/mingw-w64-x86_64-8.1.0-posix-seh-rt_v6-rev0/mingw64/bin/../lib/gcc/x86_64-w64-mingw32/8.1.0/../../../../x86_64-w64-mingw32/lib/../lib/libmsvcrt.a(duags01211.o)
                0x00000000004265d0                __imp_strncmp
 .idata$5       0x00000000004265d8        0x8 c:/ProgramFiles/mingw-w64-x86_64-8.1.0-posix-seh-rt_v6-rev0/mingw64/bin/../lib/gcc/x86_64-w64-mingw32/8.1.0/../../../../x86_64-w64-mingw32/lib/../lib/libmsvcrt.a(duags01212.o)
                0x00000000004265d8                __imp_strncpy
 .idata$5       0x00000000004265e0        0x8 c:/ProgramFiles/mingw-w64-x86_64-8.1.0-posix-seh-rt_v6-rev0/mingw64/bin/../lib/gcc/x86_64-w64-mingw32/8.1.0/../../../../x86_64-w64-mingw32/lib/../lib/libmsvcrt.a(duags01214.o)
                0x00000000004265e0                __imp_strpbrk
 .idata$5       0x00000000004265e8        0x8 c:/ProgramFiles/mingw-w64-x86_64-8.1.0-posix-seh-rt_v6-rev0/mingw64/bin/../lib/gcc/x86_64-w64-mingw32/8.1.0/../../../../x86_64-w64-mingw32/lib/../lib/libmsvcrt.a(duags01243.o)
                0x00000000004265e8                __imp_vfprintf
 .idata$5       0x00000000004265f0        0x8 c:/ProgramFiles/mingw-w64-x86_64-8.1.0-posix-seh-rt_v6-rev0/mingw64/bin/../lib/gcc/x86_64-w64-mingw32/8.1.0/../../../../x86_64-w64-mingw32/lib/../lib/libmsvcrt.a(duags01260.o)
                0x00000000004265f0                __imp_wcscpy
 .idata$5       0x00000000004265f8        0x8 c:/ProgramFiles/mingw-w64-x86_64-8.1.0-posix-seh-rt_v6-rev0/mingw64/bin/../lib/gcc/x86_64-w64-mingw32/8.1.0/../../../../x86_64-w64-mingw32/lib/../lib/libmsvcrt.a(duagt.o)
 .idata$5       0x0000000000426600        0x0 c:/ProgramFiles/mingw-w64-x86_64-8.1.0-posix-seh-rt_v6-rev0/mingw64/bin/../lib/gcc/x86_64-w64-mingw32/8.1.0/../../../../x86_64-w64-mingw32/lib/../lib/libuser32.a(dyqeh.o)
 .idata$5       0x0000000000426600        0x8 c:/ProgramFiles/mingw-w64-x86_64-8.1.0-posix-seh-rt_v6-rev0/mingw64/bin/../lib/gcc/x86_64-w64-mingw32/8.1.0/../../../../x86_64-w64-mingw32/lib/../lib/libuser32.a(dyqes00619.o)
                0x0000000000426600                __imp_MessageBoxW
 .idata$5       0x0000000000426608        0x8 c:/ProgramFiles/mingw-w64-x86_64-8.1.0-posix-seh-rt_v6-rev0/mingw64/bin/../lib/gcc/x86_64-w64-mingw32/8.1.0/../../../../x86_64-w64-mingw32/lib/../lib/libuser32.a(dyqet.o)
                0x0000000000426610                __IAT_end__ = .
 SORT_BY_NAME(*)(.idata$6)
 .idata$6       0x0000000000426610       0x18 c:/ProgramFiles/mingw-w64-x86_64-8.1.0-posix-seh-rt_v6-rev0/mingw64/bin/../lib/gcc/x86_64-w64-mingw32/8.1.0/../../../../x86_64-w64-mingw32/lib/../lib/libkernel32.a(dqifs00268.o)
 .idata$6       0x0000000000426628       0x18 c:/ProgramFiles/mingw-w64-x86_64-8.1.0-posix-seh-rt_v6-rev0/mingw64/bin/../lib/gcc/x86_64-w64-mingw32/8.1.0/../../../../x86_64-w64-mingw32/lib/../lib/libkernel32.a(dqifs00304.o)
 .idata$6       0x0000000000426640       0x14 c:/ProgramFiles/mingw-w64-x86_64-8.1.0-posix-seh-rt_v6-rev0/mingw64/bin/../lib/gcc/x86_64-w64-mingw32/8.1.0/../../../../x86_64-w64-mingw32/lib/../lib/libkernel32.a(dqifs00535.o)
 .idata$6       0x0000000000426654       0x16 c:/ProgramFiles/mingw-w64-x86_64-8.1.0-posix-seh-rt_v6-rev0/mingw64/bin/../lib/gcc/x86_64-w64-mingw32/8.1.0/../../../../x86_64-w64-mingw32/lib/../lib/libkernel32.a(dqifs00536.o)
 .idata$6       0x000000000042666a       0x16 c:/ProgramFiles/mingw-w64-x86_64-8.1.0-posix-seh-rt_v6-rev0/mingw64/bin/../lib/gcc/x86_64-w64-mingw32/8.1.0/../../../../x86_64-w64-mingw32/lib/../lib/libkernel32.a(dqifs00540.o)
 .idata$6       0x0000000000426680       0x16 c:/ProgramFiles/mingw-w64-x86_64-8.1.0-posix-seh-rt_v6-rev0/mingw64/bin/../lib/gcc/x86_64-w64-mingw32/8.1.0/../../../../x86_64-w64-mingw32/lib/../lib/libkernel32.a(dqifs00578.o)
 .idata$6       0x0000000000426696       0x10 c:/ProgramFiles/mingw-w64-x86_64-8.1.0-posix-seh-rt_v6-rev0/mingw64/bin/../lib/gcc/x86_64-w64-mingw32/8.1.0/../../../../x86_64-w64-mingw32/lib/../lib/libkernel32.a(dqifs00609.o)
 .idata$6       0x00000000004266a6       0x16 c:/ProgramFiles/mingw-w64-x86_64-8.1.0-posix-seh-rt_v6-rev0/mingw64/bin/../lib/gcc/x86_64-w64-mingw32/8.1.0/../../../../x86_64-w64-mingw32/lib/../lib/libkernel32.a(dqifs00629.o)
 .idata$6       0x00000000004266bc       0x12 c:/ProgramFiles/mingw-w64-x86_64-8.1.0-posix-seh-rt_v6-rev0/mingw64/bin/../lib/gcc/x86_64-w64-mingw32/8.1.0/../../../../x86_64-w64-mingw32/lib/../lib/libkernel32.a(dqifs00721.o)
 .idata$6       0x00000000004266ce       0x1a c:/ProgramFiles/mingw-w64-x86_64-8.1.0-posix-seh-rt_v6-rev0/mingw64/bin/../lib/gcc/x86_64-w64-mingw32/8.1.0/../../../../x86_64-w64-mingw32/lib/../lib/libkernel32.a(dqifs00746.o)
 .idata$6       0x00000000004266e8       0x10 c:/ProgramFiles/mingw-w64-x86_64-8.1.0-posix-seh-rt_v6-rev0/mingw64/bin/../lib/gcc/x86_64-w64-mingw32/8.1.0/../../../../x86_64-w64-mingw32/lib/../lib/libkernel32.a(dqifs00774.o)
 .idata$6       0x00000000004266f8       0x1c c:/ProgramFiles/mingw-w64-x86_64-8.1.0-posix-seh-rt_v6-rev0/mingw64/bin/../lib/gcc/x86_64-w64-mingw32/8.1.0/../../../../x86_64-w64-mingw32/lib/../lib/libkernel32.a(dqifs00863.o)
 .idata$6       0x0000000000426714       0x18 c:/ProgramFiles/mingw-w64-x86_64-8.1.0-posix-seh-rt_v6-rev0/mingw64/bin/../lib/gcc/x86_64-w64-mingw32/8.1.0/../../../../x86_64-w64-mingw32/lib/../lib/libkernel32.a(dqifs00951.o)
 .idata$6       0x000000000042672c       0x1a c:/ProgramFiles/mingw-w64-x86_64-8.1.0-posix-seh-rt_v6-rev0/mingw64/bin/../lib/gcc/x86_64-w64-mingw32/8.1.0/../../../../x86_64-w64-mingw32/lib/../lib/libkernel32.a(dqifs01093.o)
 .idata$6       0x0000000000426746       0x16 c:/ProgramFiles/mingw-w64-x86_64-8.1.0-posix-seh-rt_v6-rev0/mingw64/bin/../lib/gcc/x86_64-w64-mingw32/8.1.0/../../../../x86_64-w64-mingw32/lib/../lib/libkernel32.a(dqifs01179.o)
 .idata$6       0x000000000042675c       0x14 c:/ProgramFiles/mingw-w64-x86_64-8.1.0-posix-seh-rt_v6-rev0/mingw64/bin/../lib/gcc/x86_64-w64-mingw32/8.1.0/../../../../x86_64-w64-mingw32/lib/../lib/libkernel32.a(dqifs01180.o)
 .idata$6       0x0000000000426770       0x1a c:/ProgramFiles/mingw-w64-x86_64-8.1.0-posix-seh-rt_v6-rev0/mingw64/bin/../lib/gcc/x86_64-w64-mingw32/8.1.0/../../../../x86_64-w64-mingw32/lib/../lib/libkernel32.a(dqifs01187.o)
 .idata$6       0x000000000042678a       0x14 c:/ProgramFiles/mingw-w64-x86_64-8.1.0-posix-seh-rt_v6-rev0/mingw64/bin/../lib/gcc/x86_64-w64-mingw32/8.1.0/../../../../x86_64-w64-mingw32/lib/../lib/libkernel32.a(dqifs01194.o)
 .idata$6       0x000000000042679e       0x1e c:/ProgramFiles/mingw-w64-x86_64-8.1.0-posix-seh-rt_v6-rev0/mingw64/bin/../lib/gcc/x86_64-w64-mingw32/8.1.0/../../../../x86_64-w64-mingw32/lib/../lib/libkernel32.a(dqifs01346.o)
 .idata$6       0x00000000004267bc        0x8 c:/ProgramFiles/mingw-w64-x86_64-8.1.0-posix-seh-rt_v6-rev0/mingw64/bin/../lib/gcc/x86_64-w64-mingw32/8.1.0/../../../../x86_64-w64-mingw32/lib/../lib/libkernel32.a(dqifs01360.o)
 .idata$6       0x00000000004267c4       0x14 c:/ProgramFiles/mingw-w64-x86_64-8.1.0-posix-seh-rt_v6-rev0/mingw64/bin/../lib/gcc/x86_64-w64-mingw32/8.1.0/../../../../x86_64-w64-mingw32/lib/../lib/libkernel32.a(dqifs01375.o)
 .idata$6       0x00000000004267d8        0xe c:/ProgramFiles/mingw-w64-x86_64-8.1.0-posix-seh-rt_v6-rev0/mingw64/bin/../lib/gcc/x86_64-w64-mingw32/8.1.0/../../../../x86_64-w64-mingw32/lib/../lib/libkernel32.a(dqifs01395.o)
 .idata$6       0x00000000004267e6       0x1c c:/ProgramFiles/mingw-w64-x86_64-8.1.0-posix-seh-rt_v6-rev0/mingw64/bin/../lib/gcc/x86_64-w64-mingw32/8.1.0/../../../../x86_64-w64-mingw32/lib/../lib/libkernel32.a(dqifs01409.o)
 .idata$6       0x0000000000426802       0x12 c:/ProgramFiles/mingw-w64-x86_64-8.1.0-posix-seh-rt_v6-rev0/mingw64/bin/../lib/gcc/x86_64-w64-mingw32/8.1.0/../../../../x86_64-w64-mingw32/lib/../lib/libkernel32.a(dqifs01443.o)
 .idata$6       0x0000000000426814       0x10 c:/ProgramFiles/mingw-w64-x86_64-8.1.0-posix-seh-rt_v6-rev0/mingw64/bin/../lib/gcc/x86_64-w64-mingw32/8.1.0/../../../../x86_64-w64-mingw32/lib/../lib/libkernel32.a(dqifs01445.o)
 .idata$6       0x0000000000426824       0x18 c:/ProgramFiles/mingw-w64-x86_64-8.1.0-posix-seh-rt_v6-rev0/mingw64/bin/../lib/gcc/x86_64-w64-mingw32/8.1.0/../../../../x86_64-w64-mingw32/lib/../lib/libmsvcrt.a(duags00055.o)
 .idata$6       0x000000000042683c        0xa c:/ProgramFiles/mingw-w64-x86_64-8.1.0-posix-seh-rt_v6-rev0/mingw64/bin/../lib/gcc/x86_64-w64-mingw32/8.1.0/../../../../x86_64-w64-mingw32/lib/../lib/libmsvcrt.a(duags00070.o)
 .idata$6       0x0000000000426846       0x10 c:/ProgramFiles/mingw-w64-x86_64-8.1.0-posix-seh-rt_v6-rev0/mingw64/bin/../lib/gcc/x86_64-w64-mingw32/8.1.0/../../../../x86_64-w64-mingw32/lib/../lib/libmsvcrt.a(duags00081.o)
 .idata$6       0x0000000000426856        0xc c:/ProgramFiles/mingw-w64-x86_64-8.1.0-posix-seh-rt_v6-rev0/mingw64/bin/../lib/gcc/x86_64-w64-mingw32/8.1.0/../../../../x86_64-w64-mingw32/lib/../lib/libmsvcrt.a(duags00082.o)
 .idata$6       0x0000000000426862        0xe c:/ProgramFiles/mingw-w64-x86_64-8.1.0-posix-seh-rt_v6-rev0/mingw64/bin/../lib/gcc/x86_64-w64-mingw32/8.1.0/../../../../x86_64-w64-mingw32/lib/../lib/libmsvcrt.a(duags00083.o)
 .idata$6       0x0000000000426870       0x10 c:/ProgramFiles/mingw-w64-x86_64-8.1.0-posix-seh-rt_v6-rev0/mingw64/bin/../lib/gcc/x86_64-w64-mingw32/8.1.0/../../../../x86_64-w64-mingw32/lib/../lib/libmsvcrt.a(duags00090.o)
 .idata$6       0x0000000000426880       0x12 c:/ProgramFiles/mingw-w64-x86_64-8.1.0-posix-seh-rt_v6-rev0/mingw64/bin/../lib/gcc/x86_64-w64-mingw32/8.1.0/../../../../x86_64-w64-mingw32/lib/../lib/libmsvcrt.a(duags00096.o)
 .idata$6       0x0000000000426892       0x14 c:/ProgramFiles/mingw-w64-x86_64-8.1.0-posix-seh-rt_v6-rev0/mingw64/bin/../lib/gcc/x86_64-w64-mingw32/8.1.0/../../../../x86_64-w64-mingw32/lib/../lib/libmsvcrt.a(duags00098.o)
 .idata$6       0x00000000004268a6        0xa c:/ProgramFiles/mingw-w64-x86_64-8.1.0-posix-seh-rt_v6-rev0/mingw64/bin/../lib/gcc/x86_64-w64-mingw32/8.1.0/../../../../x86_64-w64-mingw32/lib/../lib/libmsvcrt.a(duags00115.o)
 .idata$6       0x00000000004268b0        0xe c:/ProgramFiles/mingw-w64-x86_64-8.1.0-posix-seh-rt_v6-rev0/mingw64/bin/../lib/gcc/x86_64-w64-mingw32/8.1.0/../../../../x86_64-w64-mingw32/lib/../lib/libmsvcrt.a(duags00122.o)
 .idata$6       0x00000000004268be        0xa c:/ProgramFiles/mingw-w64-x86_64-8.1.0-posix-seh-rt_v6-rev0/mingw64/bin/../lib/gcc/x86_64-w64-mingw32/8.1.0/../../../../x86_64-w64-mingw32/lib/../lib/libmsvcrt.a(duags00141.o)
 .idata$6       0x00000000004268c8        0xa c:/ProgramFiles/mingw-w64-x86_64-8.1.0-posix-seh-rt_v6-rev0/mingw64/bin/../lib/gcc/x86_64-w64-mingw32/8.1.0/../../../../x86_64-w64-mingw32/lib/../lib/libmsvcrt.a(duags00203.o)
 .idata$6       0x00000000004268d2        0x8 c:/ProgramFiles/mingw-w64-x86_64-8.1.0-posix-seh-rt_v6-rev0/mingw64/bin/../lib/gcc/x86_64-w64-mingw32/8.1.0/../../../../x86_64-w64-mingw32/lib/../lib/libmsvcrt.a(duags00218.o)
 .idata$6       0x00000000004268da        0xe c:/ProgramFiles/mingw-w64-x86_64-8.1.0-posix-seh-rt_v6-rev0/mingw64/bin/../lib/gcc/x86_64-w64-mingw32/8.1.0/../../../../x86_64-w64-mingw32/lib/../lib/libmsvcrt.a(duags00237.o)
 .idata$6       0x00000000004268e8       0x10 c:/ProgramFiles/mingw-w64-x86_64-8.1.0-posix-seh-rt_v6-rev0/mingw64/bin/../lib/gcc/x86_64-w64-mingw32/8.1.0/../../../../x86_64-w64-mingw32/lib/../lib/libmsvcrt.a(duags00240.o)
 .idata$6       0x00000000004268f8        0xe c:/ProgramFiles/mingw-w64-x86_64-8.1.0-posix-seh-rt_v6-rev0/mingw64/bin/../lib/gcc/x86_64-w64-mingw32/8.1.0/../../../../x86_64-w64-mingw32/lib/../lib/libmsvcrt.a(duags00245.o)
 .idata$6       0x0000000000426906        0xa c:/ProgramFiles/mingw-w64-x86_64-8.1.0-posix-seh-rt_v6-rev0/mingw64/bin/../lib/gcc/x86_64-w64-mingw32/8.1.0/../../../../x86_64-w64-mingw32/lib/../lib/libmsvcrt.a(duags00253.o)
 .idata$6       0x0000000000426910        0xc c:/ProgramFiles/mingw-w64-x86_64-8.1.0-posix-seh-rt_v6-rev0/mingw64/bin/../lib/gcc/x86_64-w64-mingw32/8.1.0/../../../../x86_64-w64-mingw32/lib/../lib/libmsvcrt.a(duags00278.o)
 .idata$6       0x000000000042691c        0xc c:/ProgramFiles/mingw-w64-x86_64-8.1.0-posix-seh-rt_v6-rev0/mingw64/bin/../lib/gcc/x86_64-w64-mingw32/8.1.0/../../../../x86_64-w64-mingw32/lib/../lib/libmsvcrt.a(duags00332.o)
 .idata$6       0x0000000000426928        0xa c:/ProgramFiles/mingw-w64-x86_64-8.1.0-posix-seh-rt_v6-rev0/mingw64/bin/../lib/gcc/x86_64-w64-mingw32/8.1.0/../../../../x86_64-w64-mingw32/lib/../lib/libmsvcrt.a(duags00603.o)
 .idata$6       0x0000000000426932        0xa c:/ProgramFiles/mingw-w64-x86_64-8.1.0-posix-seh-rt_v6-rev0/mingw64/bin/../lib/gcc/x86_64-w64-mingw32/8.1.0/../../../../x86_64-w64-mingw32/lib/../lib/libmsvcrt.a(duags00614.o)
 .idata$6       0x000000000042693c        0xe c:/ProgramFiles/mingw-w64-x86_64-8.1.0-posix-seh-rt_v6-rev0/mingw64/bin/../lib/gcc/x86_64-w64-mingw32/8.1.0/../../../../x86_64-w64-mingw32/lib/../lib/libmsvcrt.a(duags00689.o)
 .idata$6       0x000000000042694a        0xc c:/ProgramFiles/mingw-w64-x86_64-8.1.0-posix-seh-rt_v6-rev0/mingw64/bin/../lib/gcc/x86_64-w64-mingw32/8.1.0/../../../../x86_64-w64-mingw32/lib/../lib/libmsvcrt.a(duags00735.o)
 .idata$6       0x0000000000426956        0xe c:/ProgramFiles/mingw-w64-x86_64-8.1.0-posix-seh-rt_v6-rev0/mingw64/bin/../lib/gcc/x86_64-w64-mingw32/8.1.0/../../../../x86_64-w64-mingw32/lib/../lib/libmsvcrt.a(duags00852.o)
 .idata$6       0x0000000000426964        0xa c:/ProgramFiles/mingw-w64-x86_64-8.1.0-posix-seh-rt_v6-rev0/mingw64/bin/../lib/gcc/x86_64-w64-mingw32/8.1.0/../../../../x86_64-w64-mingw32/lib/../lib/libmsvcrt.a(duags00973.o)
 .idata$6       0x000000000042696e        0x8 c:/ProgramFiles/mingw-w64-x86_64-8.1.0-posix-seh-rt_v6-rev0/mingw64/bin/../lib/gcc/x86_64-w64-mingw32/8.1.0/../../../../x86_64-w64-mingw32/lib/../lib/libmsvcrt.a(duags01032.o)
 .idata$6       0x0000000000426976        0xa c:/ProgramFiles/mingw-w64-x86_64-8.1.0-posix-seh-rt_v6-rev0/mingw64/bin/../lib/gcc/x86_64-w64-mingw32/8.1.0/../../../../x86_64-w64-mingw32/lib/../lib/libmsvcrt.a(duags01048.o)
 .idata$6       0x0000000000426980        0xa c:/ProgramFiles/mingw-w64-x86_64-8.1.0-posix-seh-rt_v6-rev0/mingw64/bin/../lib/gcc/x86_64-w64-mingw32/8.1.0/../../../../x86_64-w64-mingw32/lib/../lib/libmsvcrt.a(duags01050.o)
 .idata$6       0x000000000042698a        0x8 c:/ProgramFiles/mingw-w64-x86_64-8.1.0-posix-seh-rt_v6-rev0/mingw64/bin/../lib/gcc/x86_64-w64-mingw32/8.1.0/../../../../x86_64-w64-mingw32/lib/../lib/libmsvcrt.a(duags01055.o)
 .idata$6       0x0000000000426992        0x8 c:/ProgramFiles/mingw-w64-x86_64-8.1.0-posix-seh-rt_v6-rev0/mingw64/bin/../lib/gcc/x86_64-w64-mingw32/8.1.0/../../../../x86_64-w64-mingw32/lib/../lib/libmsvcrt.a(duags01060.o)
 .idata$6       0x000000000042699a        0x8 c:/ProgramFiles/mingw-w64-x86_64-8.1.0-posix-seh-rt_v6-rev0/mingw64/bin/../lib/gcc/x86_64-w64-mingw32/8.1.0/../../../../x86_64-w64-mingw32/lib/../lib/libmsvcrt.a(duags01063.o)
 .idata$6       0x00000000004269a2        0xa c:/ProgramFiles/mingw-w64-x86_64-8.1.0-posix-seh-rt_v6-rev0/mingw64/bin/../lib/gcc/x86_64-w64-mingw32/8.1.0/../../../../x86_64-w64-mingw32/lib/../lib/libmsvcrt.a(duags01067.o)
 .idata$6       0x00000000004269ac        0xa c:/ProgramFiles/mingw-w64-x86_64-8.1.0-posix-seh-rt_v6-rev0/mingw64/bin/../lib/gcc/x86_64-w64-mingw32/8.1.0/../../../../x86_64-w64-mingw32/lib/../lib/libmsvcrt.a(duags01069.o)
 .idata$6       0x00000000004269b6        0xa c:/ProgramFiles/mingw-w64-x86_64-8.1.0-posix-seh-rt_v6-rev0/mingw64/bin/../lib/gcc/x86_64-w64-mingw32/8.1.0/../../../../x86_64-w64-mingw32/lib/../lib/libmsvcrt.a(duags01070.o)
 .idata$6       0x00000000004269c0        0x8 c:/ProgramFiles/mingw-w64-x86_64-8.1.0-posix-seh-rt_v6-rev0/mingw64/bin/../lib/gcc/x86_64-w64-mingw32/8.1.0/../../../../x86_64-w64-mingw32/lib/../lib/libmsvcrt.a(duags01071.o)
 .idata$6       0x00000000004269c8        0x8 c:/ProgramFiles/mingw-w64-x86_64-8.1.0-posix-seh-rt_v6-rev0/mingw64/bin/../lib/gcc/x86_64-w64-mingw32/8.1.0/../../../../x86_64-w64-mingw32/lib/../lib/libmsvcrt.a(duags01080.o)
 .idata$6       0x00000000004269d0        0xa c:/ProgramFiles/mingw-w64-x86_64-8.1.0-posix-seh-rt_v6-rev0/mingw64/bin/../lib/gcc/x86_64-w64-mingw32/8.1.0/../../../../x86_64-w64-mingw32/lib/../lib/libmsvcrt.a(duags01082.o)
 .idata$6       0x00000000004269da        0x8 c:/ProgramFiles/mingw-w64-x86_64-8.1.0-posix-seh-rt_v6-rev0/mingw64/bin/../lib/gcc/x86_64-w64-mingw32/8.1.0/../../../../x86_64-w64-mingw32/lib/../lib/libmsvcrt.a(duags01084.o)
 .idata$6       0x00000000004269e2        0x8 c:/ProgramFiles/mingw-w64-x86_64-8.1.0-posix-seh-rt_v6-rev0/mingw64/bin/../lib/gcc/x86_64-w64-mingw32/8.1.0/../../../../x86_64-w64-mingw32/lib/../lib/libmsvcrt.a(duags01085.o)
 .idata$6       0x00000000004269ea        0x8 c:/ProgramFiles/mingw-w64-x86_64-8.1.0-posix-seh-rt_v6-rev0/mingw64/bin/../lib/gcc/x86_64-w64-mingw32/8.1.0/../../../../x86_64-w64-mingw32/lib/../lib/libmsvcrt.a(duags01089.o)
 .idata$6       0x00000000004269f2        0xc c:/ProgramFiles/mingw-w64-x86_64-8.1.0-posix-seh-rt_v6-rev0/mingw64/bin/../lib/gcc/x86_64-w64-mingw32/8.1.0/../../../../x86_64-w64-mingw32/lib/../lib/libmsvcrt.a(duags01099.o)
 .idata$6       0x00000000004269fe        0xa c:/ProgramFiles/mingw-w64-x86_64-8.1.0-posix-seh-rt_v6-rev0/mingw64/bin/../lib/gcc/x86_64-w64-mingw32/8.1.0/../../../../x86_64-w64-mingw32/lib/../lib/libmsvcrt.a(duags01101.o)
 .idata$6       0x0000000000426a08        0xa c:/ProgramFiles/mingw-w64-x86_64-8.1.0-posix-seh-rt_v6-rev0/mingw64/bin/../lib/gcc/x86_64-w64-mingw32/8.1.0/../../../../x86_64-w64-mingw32/lib/../lib/libmsvcrt.a(duags01106.o)
 .idata$6       0x0000000000426a12        0xa c:/ProgramFiles/mingw-w64-x86_64-8.1.0-posix-seh-rt_v6-rev0/mingw64/bin/../lib/gcc/x86_64-w64-mingw32/8.1.0/../../../../x86_64-w64-mingw32/lib/../lib/libmsvcrt.a(duags01120.o)
 .idata$6       0x0000000000426a1c        0xe c:/ProgramFiles/mingw-w64-x86_64-8.1.0-posix-seh-rt_v6-rev0/mingw64/bin/../lib/gcc/x86_64-w64-mingw32/8.1.0/../../../../x86_64-w64-mingw32/lib/../lib/libmsvcrt.a(duags01142.o)
 .idata$6       0x0000000000426a2a        0xa c:/ProgramFiles/mingw-w64-x86_64-8.1.0-posix-seh-rt_v6-rev0/mingw64/bin/../lib/gcc/x86_64-w64-mingw32/8.1.0/../../../../x86_64-w64-mingw32/lib/../lib/libmsvcrt.a(duags01149.o)
 .idata$6       0x0000000000426a34        0xa c:/ProgramFiles/mingw-w64-x86_64-8.1.0-posix-seh-rt_v6-rev0/mingw64/bin/../lib/gcc/x86_64-w64-mingw32/8.1.0/../../../../x86_64-w64-mingw32/lib/../lib/libmsvcrt.a(duags01156.o)
 .idata$6       0x0000000000426a3e        0xa c:/ProgramFiles/mingw-w64-x86_64-8.1.0-posix-seh-rt_v6-rev0/mingw64/bin/../lib/gcc/x86_64-w64-mingw32/8.1.0/../../../../x86_64-w64-mingw32/lib/../lib/libmsvcrt.a(duags01157.o)
 .idata$6       0x0000000000426a48        0xa c:/ProgramFiles/mingw-w64-x86_64-8.1.0-posix-seh-rt_v6-rev0/mingw64/bin/../lib/gcc/x86_64-w64-mingw32/8.1.0/../../../../x86_64-w64-mingw32/lib/../lib/libmsvcrt.a(duags01159.o)
 .idata$6       0x0000000000426a52        0x8 c:/ProgramFiles/mingw-w64-x86_64-8.1.0-posix-seh-rt_v6-rev0/mingw64/bin/../lib/gcc/x86_64-w64-mingw32/8.1.0/../../../../x86_64-w64-mingw32/lib/../lib/libmsvcrt.a(duags01170.o)
 .idata$6       0x0000000000426a5a        0x8 c:/ProgramFiles/mingw-w64-x86_64-8.1.0-posix-seh-rt_v6-rev0/mingw64/bin/../lib/gcc/x86_64-w64-mingw32/8.1.0/../../../../x86_64-w64-mingw32/lib/../lib/libmsvcrt.a(duags01175.o)
 .idata$6       0x0000000000426a62        0x8 c:/ProgramFiles/mingw-w64-x86_64-8.1.0-posix-seh-rt_v6-rev0/mingw64/bin/../lib/gcc/x86_64-w64-mingw32/8.1.0/../../../../x86_64-w64-mingw32/lib/../lib/libmsvcrt.a(duags01176.o)
 .idata$6       0x0000000000426a6a        0xa c:/ProgramFiles/mingw-w64-x86_64-8.1.0-posix-seh-rt_v6-rev0/mingw64/bin/../lib/gcc/x86_64-w64-mingw32/8.1.0/../../../../x86_64-w64-mingw32/lib/../lib/libmsvcrt.a(duags01187.o)
 .idata$6       0x0000000000426a74        0xa c:/ProgramFiles/mingw-w64-x86_64-8.1.0-posix-seh-rt_v6-rev0/mingw64/bin/../lib/gcc/x86_64-w64-mingw32/8.1.0/../../../../x86_64-w64-mingw32/lib/../lib/libmsvcrt.a(duags01200.o)
 .idata$6       0x0000000000426a7e        0xa c:/ProgramFiles/mingw-w64-x86_64-8.1.0-posix-seh-rt_v6-rev0/mingw64/bin/../lib/gcc/x86_64-w64-mingw32/8.1.0/../../../../x86_64-w64-mingw32/lib/../lib/libmsvcrt.a(duags01201.o)
 .idata$6       0x0000000000426a88        0xa c:/ProgramFiles/mingw-w64-x86_64-8.1.0-posix-seh-rt_v6-rev0/mingw64/bin/../lib/gcc/x86_64-w64-mingw32/8.1.0/../../../../x86_64-w64-mingw32/lib/../lib/libmsvcrt.a(duags01203.o)
 .idata$6       0x0000000000426a92        0xa c:/ProgramFiles/mingw-w64-x86_64-8.1.0-posix-seh-rt_v6-rev0/mingw64/bin/../lib/gcc/x86_64-w64-mingw32/8.1.0/../../../../x86_64-w64-mingw32/lib/../lib/libmsvcrt.a(duags01208.o)
 .idata$6       0x0000000000426a9c        0xa c:/ProgramFiles/mingw-w64-x86_64-8.1.0-posix-seh-rt_v6-rev0/mingw64/bin/../lib/gcc/x86_64-w64-mingw32/8.1.0/../../../../x86_64-w64-mingw32/lib/../lib/libmsvcrt.a(duags01209.o)
 .idata$6       0x0000000000426aa6        0xa c:/ProgramFiles/mingw-w64-x86_64-8.1.0-posix-seh-rt_v6-rev0/mingw64/bin/../lib/gcc/x86_64-w64-mingw32/8.1.0/../../../../x86_64-w64-mingw32/lib/../lib/libmsvcrt.a(duags01211.o)
 .idata$6       0x0000000000426ab0        0xa c:/ProgramFiles/mingw-w64-x86_64-8.1.0-posix-seh-rt_v6-rev0/mingw64/bin/../lib/gcc/x86_64-w64-mingw32/8.1.0/../../../../x86_64-w64-mingw32/lib/../lib/libmsvcrt.a(duags01212.o)
 .idata$6       0x0000000000426aba        0xa c:/ProgramFiles/mingw-w64-x86_64-8.1.0-posix-seh-rt_v6-rev0/mingw64/bin/../lib/gcc/x86_64-w64-mingw32/8.1.0/../../../../x86_64-w64-mingw32/lib/../lib/libmsvcrt.a(duags01214.o)
 .idata$6       0x0000000000426ac4        0xc c:/ProgramFiles/mingw-w64-x86_64-8.1.0-posix-seh-rt_v6-rev0/mingw64/bin/../lib/gcc/x86_64-w64-mingw32/8.1.0/../../../../x86_64-w64-mingw32/lib/../lib/libmsvcrt.a(duags01243.o)
 .idata$6       0x0000000000426ad0        0xa c:/ProgramFiles/mingw-w64-x86_64-8.1.0-posix-seh-rt_v6-rev0/mingw64/bin/../lib/gcc/x86_64-w64-mingw32/8.1.0/../../../../x86_64-w64-mingw32/lib/../lib/libmsvcrt.a(duags01260.o)
 .idata$6       0x0000000000426ada        0xe c:/ProgramFiles/mingw-w64-x86_64-8.1.0-posix-seh-rt_v6-rev0/mingw64/bin/../lib/gcc/x86_64-w64-mingw32/8.1.0/../../../../x86_64-w64-mingw32/lib/../lib/libuser32.a(dyqes00619.o)
 SORT_BY_NAME(*)(.idata$7)
 .idata$7       0x0000000000426ae8        0x4 c:/ProgramFiles/mingw-w64-x86_64-8.1.0-posix-seh-rt_v6-rev0/mingw64/bin/../lib/gcc/x86_64-w64-mingw32/8.1.0/../../../../x86_64-w64-mingw32/lib/../lib/libkernel32.a(dqifs00268.o)
 .idata$7       0x0000000000426aec        0x4 c:/ProgramFiles/mingw-w64-x86_64-8.1.0-posix-seh-rt_v6-rev0/mingw64/bin/../lib/gcc/x86_64-w64-mingw32/8.1.0/../../../../x86_64-w64-mingw32/lib/../lib/libkernel32.a(dqifs00304.o)
 .idata$7       0x0000000000426af0        0x4 c:/ProgramFiles/mingw-w64-x86_64-8.1.0-posix-seh-rt_v6-rev0/mingw64/bin/../lib/gcc/x86_64-w64-mingw32/8.1.0/../../../../x86_64-w64-mingw32/lib/../lib/libkernel32.a(dqifs00535.o)
 .idata$7       0x0000000000426af4        0x4 c:/ProgramFiles/mingw-w64-x86_64-8.1.0-posix-seh-rt_v6-rev0/mingw64/bin/../lib/gcc/x86_64-w64-mingw32/8.1.0/../../../../x86_64-w64-mingw32/lib/../lib/libkernel32.a(dqifs00536.o)
 .idata$7       0x0000000000426af8        0x4 c:/ProgramFiles/mingw-w64-x86_64-8.1.0-posix-seh-rt_v6-rev0/mingw64/bin/../lib/gcc/x86_64-w64-mingw32/8.1.0/../../../../x86_64-w64-mingw32/lib/../lib/libkernel32.a(dqifs00540.o)
 .idata$7       0x0000000000426afc        0x4 c:/ProgramFiles/mingw-w64-x86_64-8.1.0-posix-seh-rt_v6-rev0/mingw64/bin/../lib/gcc/x86_64-w64-mingw32/8.1.0/../../../../x86_64-w64-mingw32/lib/../lib/libkernel32.a(dqifs00578.o)
 .idata$7       0x0000000000426b00        0x4 c:/ProgramFiles/mingw-w64-x86_64-8.1.0-posix-seh-rt_v6-rev0/mingw64/bin/../lib/gcc/x86_64-w64-mingw32/8.1.0/../../../../x86_64-w64-mingw32/lib/../lib/libkernel32.a(dqifs00609.o)
 .idata$7       0x0000000000426b04        0x4 c:/ProgramFiles/mingw-w64-x86_64-8.1.0-posix-seh-rt_v6-rev0/mingw64/bin/../lib/gcc/x86_64-w64-mingw32/8.1.0/../../../../x86_64-w64-mingw32/lib/../lib/libkernel32.a(dqifs00629.o)
 .idata$7       0x0000000000426b08        0x4 c:/ProgramFiles/mingw-w64-x86_64-8.1.0-posix-seh-rt_v6-rev0/mingw64/bin/../lib/gcc/x86_64-w64-mingw32/8.1.0/../../../../x86_64-w64-mingw32/lib/../lib/libkernel32.a(dqifs00721.o)
 .idata$7       0x0000000000426b0c        0x4 c:/ProgramFiles/mingw-w64-x86_64-8.1.0-posix-seh-rt_v6-rev0/mingw64/bin/../lib/gcc/x86_64-w64-mingw32/8.1.0/../../../../x86_64-w64-mingw32/lib/../lib/libkernel32.a(dqifs00746.o)
 .idata$7       0x0000000000426b10        0x4 c:/ProgramFiles/mingw-w64-x86_64-8.1.0-posix-seh-rt_v6-rev0/mingw64/bin/../lib/gcc/x86_64-w64-mingw32/8.1.0/../../../../x86_64-w64-mingw32/lib/../lib/libkernel32.a(dqifs00774.o)
 .idata$7       0x0000000000426b14        0x4 c:/ProgramFiles/mingw-w64-x86_64-8.1.0-posix-seh-rt_v6-rev0/mingw64/bin/../lib/gcc/x86_64-w64-mingw32/8.1.0/../../../../x86_64-w64-mingw32/lib/../lib/libkernel32.a(dqifs00863.o)
 .idata$7       0x0000000000426b18        0x4 c:/ProgramFiles/mingw-w64-x86_64-8.1.0-posix-seh-rt_v6-rev0/mingw64/bin/../lib/gcc/x86_64-w64-mingw32/8.1.0/../../../../x86_64-w64-mingw32/lib/../lib/libkernel32.a(dqifs00951.o)
 .idata$7       0x0000000000426b1c        0x4 c:/ProgramFiles/mingw-w64-x86_64-8.1.0-posix-seh-rt_v6-rev0/mingw64/bin/../lib/gcc/x86_64-w64-mingw32/8.1.0/../../../../x86_64-w64-mingw32/lib/../lib/libkernel32.a(dqifs01093.o)
 .idata$7       0x0000000000426b20        0x4 c:/ProgramFiles/mingw-w64-x86_64-8.1.0-posix-seh-rt_v6-rev0/mingw64/bin/../lib/gcc/x86_64-w64-mingw32/8.1.0/../../../../x86_64-w64-mingw32/lib/../lib/libkernel32.a(dqifs01179.o)
 .idata$7       0x0000000000426b24        0x4 c:/ProgramFiles/mingw-w64-x86_64-8.1.0-posix-seh-rt_v6-rev0/mingw64/bin/../lib/gcc/x86_64-w64-mingw32/8.1.0/../../../../x86_64-w64-mingw32/lib/../lib/libkernel32.a(dqifs01180.o)
 .idata$7       0x0000000000426b28        0x4 c:/ProgramFiles/mingw-w64-x86_64-8.1.0-posix-seh-rt_v6-rev0/mingw64/bin/../lib/gcc/x86_64-w64-mingw32/8.1.0/../../../../x86_64-w64-mingw32/lib/../lib/libkernel32.a(dqifs01187.o)
 .idata$7       0x0000000000426b2c        0x4 c:/ProgramFiles/mingw-w64-x86_64-8.1.0-posix-seh-rt_v6-rev0/mingw64/bin/../lib/gcc/x86_64-w64-mingw32/8.1.0/../../../../x86_64-w64-mingw32/lib/../lib/libkernel32.a(dqifs01194.o)
 .idata$7       0x0000000000426b30        0x4 c:/ProgramFiles/mingw-w64-x86_64-8.1.0-posix-seh-rt_v6-rev0/mingw64/bin/../lib/gcc/x86_64-w64-mingw32/8.1.0/../../../../x86_64-w64-mingw32/lib/../lib/libkernel32.a(dqifs01346.o)
 .idata$7       0x0000000000426b34        0x4 c:/ProgramFiles/mingw-w64-x86_64-8.1.0-posix-seh-rt_v6-rev0/mingw64/bin/../lib/gcc/x86_64-w64-mingw32/8.1.0/../../../../x86_64-w64-mingw32/lib/../lib/libkernel32.a(dqifs01360.o)
 .idata$7       0x0000000000426b38        0x4 c:/ProgramFiles/mingw-w64-x86_64-8.1.0-posix-seh-rt_v6-rev0/mingw64/bin/../lib/gcc/x86_64-w64-mingw32/8.1.0/../../../../x86_64-w64-mingw32/lib/../lib/libkernel32.a(dqifs01375.o)
 .idata$7       0x0000000000426b3c        0x4 c:/ProgramFiles/mingw-w64-x86_64-8.1.0-posix-seh-rt_v6-rev0/mingw64/bin/../lib/gcc/x86_64-w64-mingw32/8.1.0/../../../../x86_64-w64-mingw32/lib/../lib/libkernel32.a(dqifs01395.o)
 .idata$7       0x0000000000426b40        0x4 c:/ProgramFiles/mingw-w64-x86_64-8.1.0-posix-seh-rt_v6-rev0/mingw64/bin/../lib/gcc/x86_64-w64-mingw32/8.1.0/../../../../x86_64-w64-mingw32/lib/../lib/libkernel32.a(dqifs01409.o)
 .idata$7       0x0000000000426b44        0x4 c:/ProgramFiles/mingw-w64-x86_64-8.1.0-posix-seh-rt_v6-rev0/mingw64/bin/../lib/gcc/x86_64-w64-mingw32/8.1.0/../../../../x86_64-w64-mingw32/lib/../lib/libkernel32.a(dqifs01443.o)
 .idata$7       0x0000000000426b48        0x4 c:/ProgramFiles/mingw-w64-x86_64-8.1.0-posix-seh-rt_v6-rev0/mingw64/bin/../lib/gcc/x86_64-w64-mingw32/8.1.0/../../../../x86_64-w64-mingw32/lib/../lib/libkernel32.a(dqifs01445.o)
 .idata$7       0x0000000000426b4c       0x10 c:/ProgramFiles/mingw-w64-x86_64-8.1.0-posix-seh-rt_v6-rev0/mingw64/bin/../lib/gcc/x86_64-w64-mingw32/8.1.0/../../../../x86_64-w64-mingw32/lib/../lib/libkernel32.a(dqift.o)
                0x0000000000426b4c                __lib64_libkernel32_a_iname
 .idata$7       0x0000000000426b5c        0x4 c:/ProgramFiles/mingw-w64-x86_64-8.1.0-posix-seh-rt_v6-rev0/mingw64/bin/../lib/gcc/x86_64-w64-mingw32/8.1.0/../../../../x86_64-w64-mingw32/lib/../lib/libmsvcrt.a(duags00055.o)
 .idata$7       0x0000000000426b60        0x4 c:/ProgramFiles/mingw-w64-x86_64-8.1.0-posix-seh-rt_v6-rev0/mingw64/bin/../lib/gcc/x86_64-w64-mingw32/8.1.0/../../../../x86_64-w64-mingw32/lib/../lib/libmsvcrt.a(duags00070.o)
 .idata$7       0x0000000000426b64        0x4 c:/ProgramFiles/mingw-w64-x86_64-8.1.0-posix-seh-rt_v6-rev0/mingw64/bin/../lib/gcc/x86_64-w64-mingw32/8.1.0/../../../../x86_64-w64-mingw32/lib/../lib/libmsvcrt.a(duags00081.o)
 .idata$7       0x0000000000426b68        0x4 c:/ProgramFiles/mingw-w64-x86_64-8.1.0-posix-seh-rt_v6-rev0/mingw64/bin/../lib/gcc/x86_64-w64-mingw32/8.1.0/../../../../x86_64-w64-mingw32/lib/../lib/libmsvcrt.a(duags00082.o)
 .idata$7       0x0000000000426b6c        0x4 c:/ProgramFiles/mingw-w64-x86_64-8.1.0-posix-seh-rt_v6-rev0/mingw64/bin/../lib/gcc/x86_64-w64-mingw32/8.1.0/../../../../x86_64-w64-mingw32/lib/../lib/libmsvcrt.a(duags00083.o)
 .idata$7       0x0000000000426b70        0x4 c:/ProgramFiles/mingw-w64-x86_64-8.1.0-posix-seh-rt_v6-rev0/mingw64/bin/../lib/gcc/x86_64-w64-mingw32/8.1.0/../../../../x86_64-w64-mingw32/lib/../lib/libmsvcrt.a(duags00090.o)
 .idata$7       0x0000000000426b74        0x4 c:/ProgramFiles/mingw-w64-x86_64-8.1.0-posix-seh-rt_v6-rev0/mingw64/bin/../lib/gcc/x86_64-w64-mingw32/8.1.0/../../../../x86_64-w64-mingw32/lib/../lib/libmsvcrt.a(duags00096.o)
 .idata$7       0x0000000000426b78        0x4 c:/ProgramFiles/mingw-w64-x86_64-8.1.0-posix-seh-rt_v6-rev0/mingw64/bin/../lib/gcc/x86_64-w64-mingw32/8.1.0/../../../../x86_64-w64-mingw32/lib/../lib/libmsvcrt.a(duags00098.o)
 .idata$7       0x0000000000426b7c        0x4 c:/ProgramFiles/mingw-w64-x86_64-8.1.0-posix-seh-rt_v6-rev0/mingw64/bin/../lib/gcc/x86_64-w64-mingw32/8.1.0/../../../../x86_64-w64-mingw32/lib/../lib/libmsvcrt.a(duags00115.o)
 .idata$7       0x0000000000426b80        0x4 c:/ProgramFiles/mingw-w64-x86_64-8.1.0-posix-seh-rt_v6-rev0/mingw64/bin/../lib/gcc/x86_64-w64-mingw32/8.1.0/../../../../x86_64-w64-mingw32/lib/../lib/libmsvcrt.a(duags00122.o)
 .idata$7       0x0000000000426b84        0x4 c:/ProgramFiles/mingw-w64-x86_64-8.1.0-posix-seh-rt_v6-rev0/mingw64/bin/../lib/gcc/x86_64-w64-mingw32/8.1.0/../../../../x86_64-w64-mingw32/lib/../lib/libmsvcrt.a(duags00141.o)
 .idata$7       0x0000000000426b88        0x4 c:/ProgramFiles/mingw-w64-x86_64-8.1.0-posix-seh-rt_v6-rev0/mingw64/bin/../lib/gcc/x86_64-w64-mingw32/8.1.0/../../../../x86_64-w64-mingw32/lib/../lib/libmsvcrt.a(duags00203.o)
 .idata$7       0x0000000000426b8c        0x4 c:/ProgramFiles/mingw-w64-x86_64-8.1.0-posix-seh-rt_v6-rev0/mingw64/bin/../lib/gcc/x86_64-w64-mingw32/8.1.0/../../../../x86_64-w64-mingw32/lib/../lib/libmsvcrt.a(duags00218.o)
 .idata$7       0x0000000000426b90        0x4 c:/ProgramFiles/mingw-w64-x86_64-8.1.0-posix-seh-rt_v6-rev0/mingw64/bin/../lib/gcc/x86_64-w64-mingw32/8.1.0/../../../../x86_64-w64-mingw32/lib/../lib/libmsvcrt.a(duags00237.o)
 .idata$7       0x0000000000426b94        0x4 c:/ProgramFiles/mingw-w64-x86_64-8.1.0-posix-seh-rt_v6-rev0/mingw64/bin/../lib/gcc/x86_64-w64-mingw32/8.1.0/../../../../x86_64-w64-mingw32/lib/../lib/libmsvcrt.a(duags00240.o)
 .idata$7       0x0000000000426b98        0x4 c:/ProgramFiles/mingw-w64-x86_64-8.1.0-posix-seh-rt_v6-rev0/mingw64/bin/../lib/gcc/x86_64-w64-mingw32/8.1.0/../../../../x86_64-w64-mingw32/lib/../lib/libmsvcrt.a(duags00245.o)
 .idata$7       0x0000000000426b9c        0x4 c:/ProgramFiles/mingw-w64-x86_64-8.1.0-posix-seh-rt_v6-rev0/mingw64/bin/../lib/gcc/x86_64-w64-mingw32/8.1.0/../../../../x86_64-w64-mingw32/lib/../lib/libmsvcrt.a(duags00253.o)
 .idata$7       0x0000000000426ba0        0x4 c:/ProgramFiles/mingw-w64-x86_64-8.1.0-posix-seh-rt_v6-rev0/mingw64/bin/../lib/gcc/x86_64-w64-mingw32/8.1.0/../../../../x86_64-w64-mingw32/lib/../lib/libmsvcrt.a(duags00278.o)
 .idata$7       0x0000000000426ba4        0x4 c:/ProgramFiles/mingw-w64-x86_64-8.1.0-posix-seh-rt_v6-rev0/mingw64/bin/../lib/gcc/x86_64-w64-mingw32/8.1.0/../../../../x86_64-w64-mingw32/lib/../lib/libmsvcrt.a(duags00332.o)
 .idata$7       0x0000000000426ba8        0x4 c:/ProgramFiles/mingw-w64-x86_64-8.1.0-posix-seh-rt_v6-rev0/mingw64/bin/../lib/gcc/x86_64-w64-mingw32/8.1.0/../../../../x86_64-w64-mingw32/lib/../lib/libmsvcrt.a(duags00603.o)
 .idata$7       0x0000000000426bac        0x4 c:/ProgramFiles/mingw-w64-x86_64-8.1.0-posix-seh-rt_v6-rev0/mingw64/bin/../lib/gcc/x86_64-w64-mingw32/8.1.0/../../../../x86_64-w64-mingw32/lib/../lib/libmsvcrt.a(duags00614.o)
 .idata$7       0x0000000000426bb0        0x4 c:/ProgramFiles/mingw-w64-x86_64-8.1.0-posix-seh-rt_v6-rev0/mingw64/bin/../lib/gcc/x86_64-w64-mingw32/8.1.0/../../../../x86_64-w64-mingw32/lib/../lib/libmsvcrt.a(duags00689.o)
 .idata$7       0x0000000000426bb4        0x4 c:/ProgramFiles/mingw-w64-x86_64-8.1.0-posix-seh-rt_v6-rev0/mingw64/bin/../lib/gcc/x86_64-w64-mingw32/8.1.0/../../../../x86_64-w64-mingw32/lib/../lib/libmsvcrt.a(duags00735.o)
 .idata$7       0x0000000000426bb8        0x4 c:/ProgramFiles/mingw-w64-x86_64-8.1.0-posix-seh-rt_v6-rev0/mingw64/bin/../lib/gcc/x86_64-w64-mingw32/8.1.0/../../../../x86_64-w64-mingw32/lib/../lib/libmsvcrt.a(duags00852.o)
 .idata$7       0x0000000000426bbc        0x4 c:/ProgramFiles/mingw-w64-x86_64-8.1.0-posix-seh-rt_v6-rev0/mingw64/bin/../lib/gcc/x86_64-w64-mingw32/8.1.0/../../../../x86_64-w64-mingw32/lib/../lib/libmsvcrt.a(duags00973.o)
 .idata$7       0x0000000000426bc0        0x4 c:/ProgramFiles/mingw-w64-x86_64-8.1.0-posix-seh-rt_v6-rev0/mingw64/bin/../lib/gcc/x86_64-w64-mingw32/8.1.0/../../../../x86_64-w64-mingw32/lib/../lib/libmsvcrt.a(duags01032.o)
 .idata$7       0x0000000000426bc4        0x4 c:/ProgramFiles/mingw-w64-x86_64-8.1.0-posix-seh-rt_v6-rev0/mingw64/bin/../lib/gcc/x86_64-w64-mingw32/8.1.0/../../../../x86_64-w64-mingw32/lib/../lib/libmsvcrt.a(duags01048.o)
 .idata$7       0x0000000000426bc8        0x4 c:/ProgramFiles/mingw-w64-x86_64-8.1.0-posix-seh-rt_v6-rev0/mingw64/bin/../lib/gcc/x86_64-w64-mingw32/8.1.0/../../../../x86_64-w64-mingw32/lib/../lib/libmsvcrt.a(duags01050.o)
 .idata$7       0x0000000000426bcc        0x4 c:/ProgramFiles/mingw-w64-x86_64-8.1.0-posix-seh-rt_v6-rev0/mingw64/bin/../lib/gcc/x86_64-w64-mingw32/8.1.0/../../../../x86_64-w64-mingw32/lib/../lib/libmsvcrt.a(duags01055.o)
 .idata$7       0x0000000000426bd0        0x4 c:/ProgramFiles/mingw-w64-x86_64-8.1.0-posix-seh-rt_v6-rev0/mingw64/bin/../lib/gcc/x86_64-w64-mingw32/8.1.0/../../../../x86_64-w64-mingw32/lib/../lib/libmsvcrt.a(duags01060.o)
 .idata$7       0x0000000000426bd4        0x4 c:/ProgramFiles/mingw-w64-x86_64-8.1.0-posix-seh-rt_v6-rev0/mingw64/bin/../lib/gcc/x86_64-w64-mingw32/8.1.0/../../../../x86_64-w64-mingw32/lib/../lib/libmsvcrt.a(duags01063.o)
 .idata$7       0x0000000000426bd8        0x4 c:/ProgramFiles/mingw-w64-x86_64-8.1.0-posix-seh-rt_v6-rev0/mingw64/bin/../lib/gcc/x86_64-w64-mingw32/8.1.0/../../../../x86_64-w64-mingw32/lib/../lib/libmsvcrt.a(duags01067.o)
 .idata$7       0x0000000000426bdc        0x4 c:/ProgramFiles/mingw-w64-x86_64-8.1.0-posix-seh-rt_v6-rev0/mingw64/bin/../lib/gcc/x86_64-w64-mingw32/8.1.0/../../../../x86_64-w64-mingw32/lib/../lib/libmsvcrt.a(duags01069.o)
 .idata$7       0x0000000000426be0        0x4 c:/ProgramFiles/mingw-w64-x86_64-8.1.0-posix-seh-rt_v6-rev0/mingw64/bin/../lib/gcc/x86_64-w64-mingw32/8.1.0/../../../../x86_64-w64-mingw32/lib/../lib/libmsvcrt.a(duags01070.o)
 .idata$7       0x0000000000426be4        0x4 c:/ProgramFiles/mingw-w64-x86_64-8.1.0-posix-seh-rt_v6-rev0/mingw64/bin/../lib/gcc/x86_64-w64-mingw32/8.1.0/../../../../x86_64-w64-mingw32/lib/../lib/libmsvcrt.a(duags01071.o)
 .idata$7       0x0000000000426be8        0x4 c:/ProgramFiles/mingw-w64-x86_64-8.1.0-posix-seh-rt_v6-rev0/mingw64/bin/../lib/gcc/x86_64-w64-mingw32/8.1.0/../../../../x86_64-w64-mingw32/lib/../lib/libmsvcrt.a(duags01080.o)
 .idata$7       0x0000000000426bec        0x4 c:/ProgramFiles/mingw-w64-x86_64-8.1.0-posix-seh-rt_v6-rev0/mingw64/bin/../lib/gcc/x86_64-w64-mingw32/8.1.0/../../../../x86_64-w64-mingw32/lib/../lib/libmsvcrt.a(duags01082.o)
 .idata$7       0x0000000000426bf0        0x4 c:/ProgramFiles/mingw-w64-x86_64-8.1.0-posix-seh-rt_v6-rev0/mingw64/bin/../lib/gcc/x86_64-w64-mingw32/8.1.0/../../../../x86_64-w64-mingw32/lib/../lib/libmsvcrt.a(duags01084.o)
 .idata$7       0x0000000000426bf4        0x4 c:/ProgramFiles/mingw-w64-x86_64-8.1.0-posix-seh-rt_v6-rev0/mingw64/bin/../lib/gcc/x86_64-w64-mingw32/8.1.0/../../../../x86_64-w64-mingw32/lib/../lib/libmsvcrt.a(duags01085.o)
 .idata$7       0x0000000000426bf8        0x4 c:/ProgramFiles/mingw-w64-x86_64-8.1.0-posix-seh-rt_v6-rev0/mingw64/bin/../lib/gcc/x86_64-w64-mingw32/8.1.0/../../../../x86_64-w64-mingw32/lib/../lib/libmsvcrt.a(duags01089.o)
 .idata$7       0x0000000000426bfc        0x4 c:/ProgramFiles/mingw-w64-x86_64-8.1.0-posix-seh-rt_v6-rev0/mingw64/bin/../lib/gcc/x86_64-w64-mingw32/8.1.0/../../../../x86_64-w64-mingw32/lib/../lib/libmsvcrt.a(duags01099.o)
 .idata$7       0x0000000000426c00        0x4 c:/ProgramFiles/mingw-w64-x86_64-8.1.0-posix-seh-rt_v6-rev0/mingw64/bin/../lib/gcc/x86_64-w64-mingw32/8.1.0/../../../../x86_64-w64-mingw32/lib/../lib/libmsvcrt.a(duags01101.o)
 .idata$7       0x0000000000426c04        0x4 c:/ProgramFiles/mingw-w64-x86_64-8.1.0-posix-seh-rt_v6-rev0/mingw64/bin/../lib/gcc/x86_64-w64-mingw32/8.1.0/../../../../x86_64-w64-mingw32/lib/../lib/libmsvcrt.a(duags01106.o)
 .idata$7       0x0000000000426c08        0x4 c:/ProgramFiles/mingw-w64-x86_64-8.1.0-posix-seh-rt_v6-rev0/mingw64/bin/../lib/gcc/x86_64-w64-mingw32/8.1.0/../../../../x86_64-w64-mingw32/lib/../lib/libmsvcrt.a(duags01120.o)
 .idata$7       0x0000000000426c0c        0x4 c:/ProgramFiles/mingw-w64-x86_64-8.1.0-posix-seh-rt_v6-rev0/mingw64/bin/../lib/gcc/x86_64-w64-mingw32/8.1.0/../../../../x86_64-w64-mingw32/lib/../lib/libmsvcrt.a(duags01142.o)
 .idata$7       0x0000000000426c10        0x4 c:/ProgramFiles/mingw-w64-x86_64-8.1.0-posix-seh-rt_v6-rev0/mingw64/bin/../lib/gcc/x86_64-w64-mingw32/8.1.0/../../../../x86_64-w64-mingw32/lib/../lib/libmsvcrt.a(duags01149.o)
 .idata$7       0x0000000000426c14        0x4 c:/ProgramFiles/mingw-w64-x86_64-8.1.0-posix-seh-rt_v6-rev0/mingw64/bin/../lib/gcc/x86_64-w64-mingw32/8.1.0/../../../../x86_64-w64-mingw32/lib/../lib/libmsvcrt.a(duags01156.o)
 .idata$7       0x0000000000426c18        0x4 c:/ProgramFiles/mingw-w64-x86_64-8.1.0-posix-seh-rt_v6-rev0/mingw64/bin/../lib/gcc/x86_64-w64-mingw32/8.1.0/../../../../x86_64-w64-mingw32/lib/../lib/libmsvcrt.a(duags01157.o)
 .idata$7       0x0000000000426c1c        0x4 c:/ProgramFiles/mingw-w64-x86_64-8.1.0-posix-seh-rt_v6-rev0/mingw64/bin/../lib/gcc/x86_64-w64-mingw32/8.1.0/../../../../x86_64-w64-mingw32/lib/../lib/libmsvcrt.a(duags01159.o)
 .idata$7       0x0000000000426c20        0x4 c:/ProgramFiles/mingw-w64-x86_64-8.1.0-posix-seh-rt_v6-rev0/mingw64/bin/../lib/gcc/x86_64-w64-mingw32/8.1.0/../../../../x86_64-w64-mingw32/lib/../lib/libmsvcrt.a(duags01170.o)
 .idata$7       0x0000000000426c24        0x4 c:/ProgramFiles/mingw-w64-x86_64-8.1.0-posix-seh-rt_v6-rev0/mingw64/bin/../lib/gcc/x86_64-w64-mingw32/8.1.0/../../../../x86_64-w64-mingw32/lib/../lib/libmsvcrt.a(duags01175.o)
 .idata$7       0x0000000000426c28        0x4 c:/ProgramFiles/mingw-w64-x86_64-8.1.0-posix-seh-rt_v6-rev0/mingw64/bin/../lib/gcc/x86_64-w64-mingw32/8.1.0/../../../../x86_64-w64-mingw32/lib/../lib/libmsvcrt.a(duags01176.o)
 .idata$7       0x0000000000426c2c        0x4 c:/ProgramFiles/mingw-w64-x86_64-8.1.0-posix-seh-rt_v6-rev0/mingw64/bin/../lib/gcc/x86_64-w64-mingw32/8.1.0/../../../../x86_64-w64-mingw32/lib/../lib/libmsvcrt.a(duags01187.o)
 .idata$7       0x0000000000426c30        0x4 c:/ProgramFiles/mingw-w64-x86_64-8.1.0-posix-seh-rt_v6-rev0/mingw64/bin/../lib/gcc/x86_64-w64-mingw32/8.1.0/../../../../x86_64-w64-mingw32/lib/../lib/libmsvcrt.a(duags01200.o)
 .idata$7       0x0000000000426c34        0x4 c:/ProgramFiles/mingw-w64-x86_64-8.1.0-posix-seh-rt_v6-rev0/mingw64/bin/../lib/gcc/x86_64-w64-mingw32/8.1.0/../../../../x86_64-w64-mingw32/lib/../lib/libmsvcrt.a(duags01201.o)
 .idata$7       0x0000000000426c38        0x4 c:/ProgramFiles/mingw-w64-x86_64-8.1.0-posix-seh-rt_v6-rev0/mingw64/bin/../lib/gcc/x86_64-w64-mingw32/8.1.0/../../../../x86_64-w64-mingw32/lib/../lib/libmsvcrt.a(duags01203.o)
 .idata$7       0x0000000000426c3c        0x4 c:/ProgramFiles/mingw-w64-x86_64-8.1.0-posix-seh-rt_v6-rev0/mingw64/bin/../lib/gcc/x86_64-w64-mingw32/8.1.0/../../../../x86_64-w64-mingw32/lib/../lib/libmsvcrt.a(duags01208.o)
 .idata$7       0x0000000000426c40        0x4 c:/ProgramFiles/mingw-w64-x86_64-8.1.0-posix-seh-rt_v6-rev0/mingw64/bin/../lib/gcc/x86_64-w64-mingw32/8.1.0/../../../../x86_64-w64-mingw32/lib/../lib/libmsvcrt.a(duags01209.o)
 .idata$7       0x0000000000426c44        0x4 c:/ProgramFiles/mingw-w64-x86_64-8.1.0-posix-seh-rt_v6-rev0/mingw64/bin/../lib/gcc/x86_64-w64-mingw32/8.1.0/../../../../x86_64-w64-mingw32/lib/../lib/libmsvcrt.a(duags01211.o)
 .idata$7       0x0000000000426c48        0x4 c:/ProgramFiles/mingw-w64-x86_64-8.1.0-posix-seh-rt_v6-rev0/mingw64/bin/../lib/gcc/x86_64-w64-mingw32/8.1.0/../../../../x86_64-w64-mingw32/lib/../lib/libmsvcrt.a(duags01212.o)
 .idata$7       0x0000000000426c4c        0x4 c:/ProgramFiles/mingw-w64-x86_64-8.1.0-posix-seh-rt_v6-rev0/mingw64/bin/../lib/gcc/x86_64-w64-mingw32/8.1.0/../../../../x86_64-w64-mingw32/lib/../lib/libmsvcrt.a(duags01214.o)
 .idata$7       0x0000000000426c50        0x4 c:/ProgramFiles/mingw-w64-x86_64-8.1.0-posix-seh-rt_v6-rev0/mingw64/bin/../lib/gcc/x86_64-w64-mingw32/8.1.0/../../../../x86_64-w64-mingw32/lib/../lib/libmsvcrt.a(duags01243.o)
 .idata$7       0x0000000000426c54        0x4 c:/ProgramFiles/mingw-w64-x86_64-8.1.0-posix-seh-rt_v6-rev0/mingw64/bin/../lib/gcc/x86_64-w64-mingw32/8.1.0/../../../../x86_64-w64-mingw32/lib/../lib/libmsvcrt.a(duags01260.o)
 .idata$7       0x0000000000426c58        0xc c:/ProgramFiles/mingw-w64-x86_64-8.1.0-posix-seh-rt_v6-rev0/mingw64/bin/../lib/gcc/x86_64-w64-mingw32/8.1.0/../../../../x86_64-w64-mingw32/lib/../lib/libmsvcrt.a(duagt.o)
                0x0000000000426c58                __lib64_libmsvcrt_os_a_iname
 .idata$7       0x0000000000426c64        0x4 c:/ProgramFiles/mingw-w64-x86_64-8.1.0-posix-seh-rt_v6-rev0/mingw64/bin/../lib/gcc/x86_64-w64-mingw32/8.1.0/../../../../x86_64-w64-mingw32/lib/../lib/libuser32.a(dyqes00619.o)
 .idata$7       0x0000000000426c68        0xc c:/ProgramFiles/mingw-w64-x86_64-8.1.0-posix-seh-rt_v6-rev0/mingw64/bin/../lib/gcc/x86_64-w64-mingw32/8.1.0/../../../../x86_64-w64-mingw32/lib/../lib/libuser32.a(dyqet.o)
                0x0000000000426c68                __lib64_libuser32_a_iname

.CRT            0x0000000000427000      0x200
                0x0000000000427000                ___crt_xc_start__ = .
 *(SORT_BY_NAME(.CRT$XC*))
 .CRT$XCA       0x0000000000427000        0x8 c:/ProgramFiles/mingw-w64-x86_64-8.1.0-posix-seh-rt_v6-rev0/mingw64/bin/../lib/gcc/x86_64-w64-mingw32/8.1.0/../../../../x86_64-w64-mingw32/lib/../lib/libmingw32.a(lib64_libmingw32_a-cinitexe.o)
                0x0000000000427000                __xc_a
 .CRT$XCAA      0x0000000000427008        0x8 c:/ProgramFiles/mingw-w64-x86_64-8.1.0-posix-seh-rt_v6-rev0/mingw64/bin/../lib/gcc/x86_64-w64-mingw32/8.1.0/../../../../x86_64-w64-mingw32/lib/../lib/crt2.o
                0x0000000000427008                mingw_pcppinit
 .CRT$XCZ       0x0000000000427010        0x8 c:/ProgramFiles/mingw-w64-x86_64-8.1.0-posix-seh-rt_v6-rev0/mingw64/bin/../lib/gcc/x86_64-w64-mingw32/8.1.0/../../../../x86_64-w64-mingw32/lib/../lib/libmingw32.a(lib64_libmingw32_a-cinitexe.o)
                0x0000000000427010                __xc_z
                0x0000000000427018                ___crt_xc_end__ = .
                0x0000000000427018                ___crt_xi_start__ = .
 *(SORT_BY_NAME(.CRT$XI*))
 .CRT$XIA       0x0000000000427018        0x8 c:/ProgramFiles/mingw-w64-x86_64-8.1.0-posix-seh-rt_v6-rev0/mingw64/bin/../lib/gcc/x86_64-w64-mingw32/8.1.0/../../../../x86_64-w64-mingw32/lib/../lib/libmingw32.a(lib64_libmingw32_a-cinitexe.o)
                0x0000000000427018                __xi_a
 .CRT$XIAA      0x0000000000427020        0x8 c:/ProgramFiles/mingw-w64-x86_64-8.1.0-posix-seh-rt_v6-rev0/mingw64/bin/../lib/gcc/x86_64-w64-mingw32/8.1.0/../../../../x86_64-w64-mingw32/lib/../lib/crt2.o
                0x0000000000427020                mingw_pcinit
 .CRT$XIC       0x0000000000427028        0x8 c:/ProgramFiles/mingw-w64-x86_64-8.1.0-posix-seh-rt_v6-rev0/mingw64/bin/../lib/gcc/x86_64-w64-mingw32/8.1.0/../../../../x86_64-w64-mingw32/lib/../lib/libmingw32.a(lib64_libmingw32_a-charmax.o)
                0x0000000000427028                __mingw_pinit
 .CRT$XIZ       0x0000000000427030        0x8 c:/ProgramFiles/mingw-w64-x86_64-8.1.0-posix-seh-rt_v6-rev0/mingw64/bin/../lib/gcc/x86_64-w64-mingw32/8.1.0/../../../../x86_64-w64-mingw32/lib/../lib/libmingw32.a(lib64_libmingw32_a-cinitexe.o)
                0x0000000000427030                __xi_z
                0x0000000000427038                ___crt_xi_end__ = .
                0x0000000000427038                ___crt_xl_start__ = .
 *(SORT_BY_NAME(.CRT$XL*))
 .CRT$XLA       0x0000000000427038        0x8 c:/ProgramFiles/mingw-w64-x86_64-8.1.0-posix-seh-rt_v6-rev0/mingw64/bin/../lib/gcc/x86_64-w64-mingw32/8.1.0/../../../../x86_64-w64-mingw32/lib/../lib/libmingw32.a(lib64_libmingw32_a-tlssup.o)
                0x0000000000427038                __xl_a
 .CRT$XLC       0x0000000000427040        0x8 c:/ProgramFiles/mingw-w64-x86_64-8.1.0-posix-seh-rt_v6-rev0/mingw64/bin/../lib/gcc/x86_64-w64-mingw32/8.1.0/../../../../x86_64-w64-mingw32/lib/../lib/libmingw32.a(lib64_libmingw32_a-tlssup.o)
                0x0000000000427040                __xl_c
 .CRT$XLD       0x0000000000427048        0x8 c:/ProgramFiles/mingw-w64-x86_64-8.1.0-posix-seh-rt_v6-rev0/mingw64/bin/../lib/gcc/x86_64-w64-mingw32/8.1.0/../../../../x86_64-w64-mingw32/lib/../lib/libmingw32.a(lib64_libmingw32_a-tlssup.o)
                0x0000000000427048                __xl_d
 .CRT$XLZ       0x0000000000427050        0x8 c:/ProgramFiles/mingw-w64-x86_64-8.1.0-posix-seh-rt_v6-rev0/mingw64/bin/../lib/gcc/x86_64-w64-mingw32/8.1.0/../../../../x86_64-w64-mingw32/lib/../lib/libmingw32.a(lib64_libmingw32_a-tlssup.o)
                0x0000000000427050                __xl_z
                0x0000000000427058                ___crt_xp_start__ = .
 *(SORT_BY_NAME(.CRT$XP*))
                0x0000000000427058                ___crt_xp_end__ = .
                0x0000000000427058                ___crt_xt_start__ = .
 *(SORT_BY_NAME(.CRT$XT*))
                0x0000000000427058                ___crt_xt_end__ = .
 .CRT$XDA       0x0000000000427058        0x8 c:/ProgramFiles/mingw-w64-x86_64-8.1.0-posix-seh-rt_v6-rev0/mingw64/bin/../lib/gcc/x86_64-w64-mingw32/8.1.0/../../../../x86_64-w64-mingw32/lib/../lib/libmingw32.a(lib64_libmingw32_a-tlssup.o)
 .CRT$XDZ       0x0000000000427060        0x8 c:/ProgramFiles/mingw-w64-x86_64-8.1.0-posix-seh-rt_v6-rev0/mingw64/bin/../lib/gcc/x86_64-w64-mingw32/8.1.0/../../../../x86_64-w64-mingw32/lib/../lib/libmingw32.a(lib64_libmingw32_a-tlssup.o)

.tls            0x0000000000428000      0x200
                0x0000000000428000                ___tls_start__ = .
 *(.tls$AAA)
 *(.tls)
 .tls           0x0000000000428000        0x8 c:/ProgramFiles/mingw-w64-x86_64-8.1.0-posix-seh-rt_v6-rev0/mingw64/bin/../lib/gcc/x86_64-w64-mingw32/8.1.0/../../../../x86_64-w64-mingw32/lib/../lib/libmingw32.a(lib64_libmingw32_a-tlssup.o)
                0x0000000000428000                _tls_start
 *(.tls$)
 *(SORT_BY_NAME(.tls$*))
 .tls$ZZZ       0x0000000000428008        0x8 c:/ProgramFiles/mingw-w64-x86_64-8.1.0-posix-seh-rt_v6-rev0/mingw64/bin/../lib/gcc/x86_64-w64-mingw32/8.1.0/../../../../x86_64-w64-mingw32/lib/../lib/libmingw32.a(lib64_libmingw32_a-tlssup.o)
                0x0000000000428008                _tls_end
 *(.tls$ZZZ)
                0x0000000000428010                ___tls_end__ = .

.endjunk        0x0000000000429000        0x0
                [!provide]                        PROVIDE (end = .)
                [!provide]                        PROVIDE (_end = .)
                0x0000000000429000                __end__ = .

.rsrc
 *(.rsrc)
 *(.rsrc$*)

.reloc
 *(.reloc)

.stab
 *(.stab)

.stabstr
 *(.stabstr)

.debug_aranges  0x0000000000429000     0x1000
 *(.debug_aranges)
 .debug_aranges
                0x0000000000429000       0xb0 bin/win/DEBUG/obj/apt_applicationTask.o
 .debug_aranges
                0x00000000004290b0      0x140 bin/win/DEBUG/obj/cbk_callbacks.o
 .debug_aranges
                0x00000000004291f0       0x60 bin/win/DEBUG/obj/chk_checksum.o
 .debug_aranges
                0x0000000000429250      0x1b0 bin/win/DEBUG/obj/ede_eventDispatcherEngine.o
 .debug_aranges
                0x0000000000429400       0x60 bin/win/DEBUG/obj/ede_eventSender.o
 .debug_aranges
                0x0000000000429460       0xd0 bin/win/DEBUG/obj/fil_file.o
 .debug_aranges
                0x0000000000429530      0x170 bin/win/DEBUG/obj/log_logger.o
 .debug_aranges
                0x00000000004296a0       0x50 bin/win/DEBUG/obj/m16_mapDirectLookupU16.o
 .debug_aranges
                0x00000000004296f0       0xa0 bin/win/DEBUG/obj/main.o
 .debug_aranges
                0x0000000000429790       0x70 bin/win/DEBUG/obj/mci_mapBinarySearchCanId.o
 .debug_aranges
                0x0000000000429800       0x60 bin/win/DEBUG/obj/mem_malloc.o
 .debug_aranges
                0x0000000000429860       0xb0 bin/win/DEBUG/obj/mhn_mapOsFrameHandleToCanIfHandle.o
 .debug_aranges
                0x0000000000429910       0x40 bin/win/DEBUG/obj/mid_mapIdentity.o
 .debug_aranges
                0x0000000000429950       0x50 bin/win/DEBUG/obj/mpo_mapOffsetOnly.o
 .debug_aranges
                0x00000000004299a0       0x50 bin/win/DEBUG/obj/mu8_mapDirectLookupU8.o
 .debug_aranges
                0x00000000004299f0       0x50 bin/win/DEBUG/obj/opt_getOpt.o
 .debug_aranges
                0x0000000000429a40      0x100 bin/win/DEBUG/obj/oss_operatingSystemSimulation.o
 .debug_aranges
                0x0000000000429b40       0x80 bin/win/DEBUG/obj/pck_packCanFrame.o
 .debug_aranges
                0x0000000000429bc0       0x60 bin/win/DEBUG/obj/pwr_computeEnginePower.o
 .debug_aranges
                0x0000000000429c20       0xb0 bin/win/DEBUG/obj/vsq_dispatcherPortInterface.o
 .debug_aranges
                0x0000000000429cd0      0x1a0 bin/win/DEBUG/obj/vsq_threadSafeQueueVariableSize.o
 .debug_aranges
                0x0000000000429e70       0x30 c:/ProgramFiles/mingw-w64-x86_64-8.1.0-posix-seh-rt_v6-rev0/mingw64/bin/../lib/gcc/x86_64-w64-mingw32/8.1.0/libgcc.a(_chkstk_ms.o)
 .debug_aranges
                0x0000000000429ea0       0x20 c:/ProgramFiles/mingw-w64-x86_64-8.1.0-posix-seh-rt_v6-rev0/mingw64/bin/../lib/gcc/x86_64-w64-mingw32/8.1.0/libgcc.a(_ctors.o)

.zdebug_aranges
 *(.zdebug_aranges)

.debug_pubnames
 *(.debug_pubnames)

.zdebug_pubnames
 *(.zdebug_pubnames)

.debug_pubtypes
 *(.debug_pubtypes)

.zdebug_pubtypes
 *(.zdebug_pubtypes)

.debug_info     0x000000000042a000    0x13400
 *(.debug_info .gnu.linkonce.wi.*)
 .debug_info    0x000000000042a000      0xfe5 bin/win/DEBUG/obj/apt_applicationTask.o
 .debug_info    0x000000000042afe5     0x16fb bin/win/DEBUG/obj/cbk_callbacks.o
 .debug_info    0x000000000042c6e0      0x61e bin/win/DEBUG/obj/chk_checksum.o
 .debug_info    0x000000000042ccfe     0x19f4 bin/win/DEBUG/obj/ede_eventDispatcherEngine.o
 .debug_info    0x000000000042e6f2      0x899 bin/win/DEBUG/obj/ede_eventSender.o
 .debug_info    0x000000000042ef8b     0x102b bin/win/DEBUG/obj/fil_file.o
 .debug_info    0x000000000042ffb6     0x1607 bin/win/DEBUG/obj/log_logger.o
 .debug_info    0x00000000004315bd      0x80a bin/win/DEBUG/obj/m16_mapDirectLookupU16.o
 .debug_info    0x0000000000431dc7      0xd7b bin/win/DEBUG/obj/main.o
 .debug_info    0x0000000000432b42      0xbd2 bin/win/DEBUG/obj/mci_mapBinarySearchCanId.o
 .debug_info    0x0000000000433714      0x754 bin/win/DEBUG/obj/mem_malloc.o
 .debug_info    0x0000000000433e68      0xc8a bin/win/DEBUG/obj/mhn_mapOsFrameHandleToCanIfHandle.o
 .debug_info    0x0000000000434af2      0x39b bin/win/DEBUG/obj/mid_mapIdentity.o
 .debug_info    0x0000000000434e8d      0x73d bin/win/DEBUG/obj/mpo_mapOffsetOnly.o
 .debug_info    0x00000000004355ca      0x818 bin/win/DEBUG/obj/mu8_mapDirectLookupU8.o
 .debug_info    0x0000000000435de2      0xef7 bin/win/DEBUG/obj/opt_getOpt.o
 .debug_info    0x0000000000436cd9     0x12a8 bin/win/DEBUG/obj/oss_operatingSystemSimulation.o
 .debug_info    0x0000000000437f81      0xc30 bin/win/DEBUG/obj/pck_packCanFrame.o
 .debug_info    0x0000000000438bb1      0xf08 bin/win/DEBUG/obj/pwr_computeEnginePower.o
 .debug_info    0x0000000000439ab9      0x9b2 bin/win/DEBUG/obj/vsq_dispatcherPortInterface.o
 .debug_info    0x000000000043a46b      0xf6d bin/win/DEBUG/obj/vsq_threadSafeQueueVariableSize.o
 .debug_info    0x000000000043b3d8       0x2e c:/ProgramFiles/mingw-w64-x86_64-8.1.0-posix-seh-rt_v6-rev0/mingw64/bin/../lib/gcc/x86_64-w64-mingw32/8.1.0/libgcc.a(_chkstk_ms.o)
 .debug_info    0x000000000043b406     0x1eda c:/ProgramFiles/mingw-w64-x86_64-8.1.0-posix-seh-rt_v6-rev0/mingw64/bin/../lib/gcc/x86_64-w64-mingw32/8.1.0/libgcc.a(_ctors.o)

.zdebug_info
 *(.zdebug_info .zdebug.gnu.linkonce.wi.*)

.debug_abbrev   0x000000000043e000     0x2e00
 *(.debug_abbrev)
 .debug_abbrev  0x000000000043e000      0x2ae bin/win/DEBUG/obj/apt_applicationTask.o
 .debug_abbrev  0x000000000043e2ae      0x223 bin/win/DEBUG/obj/cbk_callbacks.o
 .debug_abbrev  0x000000000043e4d1      0x12a bin/win/DEBUG/obj/chk_checksum.o
 .debug_abbrev  0x000000000043e5fb      0x290 bin/win/DEBUG/obj/ede_eventDispatcherEngine.o
 .debug_abbrev  0x000000000043e88b      0x208 bin/win/DEBUG/obj/ede_eventSender.o
 .debug_abbrev  0x000000000043ea93      0x255 bin/win/DEBUG/obj/fil_file.o
 .debug_abbrev  0x000000000043ece8      0x314 bin/win/DEBUG/obj/log_logger.o
 .debug_abbrev  0x000000000043effc      0x1d6 bin/win/DEBUG/obj/m16_mapDirectLookupU16.o
 .debug_abbrev  0x000000000043f1d2      0x249 bin/win/DEBUG/obj/main.o
 .debug_abbrev  0x000000000043f41b      0x24b bin/win/DEBUG/obj/mci_mapBinarySearchCanId.o
 .debug_abbrev  0x000000000043f666      0x1b9 bin/win/DEBUG/obj/mem_malloc.o
 .debug_abbrev  0x000000000043f81f      0x22a bin/win/DEBUG/obj/mhn_mapOsFrameHandleToCanIfHandle.o
 .debug_abbrev  0x000000000043fa49       0xed bin/win/DEBUG/obj/mid_mapIdentity.o
 .debug_abbrev  0x000000000043fb36      0x1cd bin/win/DEBUG/obj/mpo_mapOffsetOnly.o
 .debug_abbrev  0x000000000043fd03      0x1d6 bin/win/DEBUG/obj/mu8_mapDirectLookupU8.o
 .debug_abbrev  0x000000000043fed9      0x26e bin/win/DEBUG/obj/opt_getOpt.o
 .debug_abbrev  0x0000000000440147      0x259 bin/win/DEBUG/obj/oss_operatingSystemSimulation.o
 .debug_abbrev  0x00000000004403a0      0x15c bin/win/DEBUG/obj/pck_packCanFrame.o
 .debug_abbrev  0x00000000004404fc      0x1e7 bin/win/DEBUG/obj/pwr_computeEnginePower.o
 .debug_abbrev  0x00000000004406e3      0x273 bin/win/DEBUG/obj/vsq_dispatcherPortInterface.o
 .debug_abbrev  0x0000000000440956      0x309 bin/win/DEBUG/obj/vsq_threadSafeQueueVariableSize.o
 .debug_abbrev  0x0000000000440c5f       0x14 c:/ProgramFiles/mingw-w64-x86_64-8.1.0-posix-seh-rt_v6-rev0/mingw64/bin/../lib/gcc/x86_64-w64-mingw32/8.1.0/libgcc.a(_chkstk_ms.o)
 .debug_abbrev  0x0000000000440c73      0x135 c:/ProgramFiles/mingw-w64-x86_64-8.1.0-posix-seh-rt_v6-rev0/mingw64/bin/../lib/gcc/x86_64-w64-mingw32/8.1.0/libgcc.a(_ctors.o)

.zdebug_abbrev
 *(.zdebug_abbrev)

.debug_line     0x0000000000441000     0xac00
 *(.debug_line)
 .debug_line    0x0000000000441000      0xa17 bin/win/DEBUG/obj/apt_applicationTask.o
 .debug_line    0x0000000000441a17      0xd9b bin/win/DEBUG/obj/cbk_callbacks.o
 .debug_line    0x00000000004427b2      0x5ae bin/win/DEBUG/obj/chk_checksum.o
 .debug_line    0x0000000000442d60      0xd2d bin/win/DEBUG/obj/ede_eventDispatcherEngine.o
 .debug_line    0x0000000000443a8d      0x53f bin/win/DEBUG/obj/ede_eventSender.o
 .debug_line    0x0000000000443fcc      0x8dc bin/win/DEBUG/obj/fil_file.o
 .debug_line    0x00000000004448a8      0xafe bin/win/DEBUG/obj/log_logger.o
 .debug_line    0x00000000004453a6      0x61e bin/win/DEBUG/obj/m16_mapDirectLookupU16.o
 .debug_line    0x00000000004459c4      0x946 bin/win/DEBUG/obj/main.o
 .debug_line    0x000000000044630a      0x691 bin/win/DEBUG/obj/mci_mapBinarySearchCanId.o
 .debug_line    0x000000000044699b      0x58d bin/win/DEBUG/obj/mem_malloc.o
 .debug_line    0x0000000000446f28      0x7df bin/win/DEBUG/obj/mhn_mapOsFrameHandleToCanIfHandle.o
 .debug_line    0x0000000000447707      0x3a2 bin/win/DEBUG/obj/mid_mapIdentity.o
 .debug_line    0x0000000000447aa9      0x54d bin/win/DEBUG/obj/mpo_mapOffsetOnly.o
 .debug_line    0x0000000000447ff6      0x61c bin/win/DEBUG/obj/mu8_mapDirectLookupU8.o
 .debug_line    0x0000000000448612      0x79c bin/win/DEBUG/obj/opt_getOpt.o
 .debug_line    0x0000000000448dae      0xdb7 bin/win/DEBUG/obj/oss_operatingSystemSimulation.o
 .debug_line    0x0000000000449b65      0x6c8 bin/win/DEBUG/obj/pck_packCanFrame.o
 .debug_line    0x000000000044a22d      0x7d9 bin/win/DEBUG/obj/pwr_computeEnginePower.o
 .debug_line    0x000000000044aa06      0x4a4 bin/win/DEBUG/obj/vsq_dispatcherPortInterface.o
 .debug_line    0x000000000044aeaa      0x95b bin/win/DEBUG/obj/vsq_threadSafeQueueVariableSize.o
 .debug_line    0x000000000044b805       0x7b c:/ProgramFiles/mingw-w64-x86_64-8.1.0-posix-seh-rt_v6-rev0/mingw64/bin/../lib/gcc/x86_64-w64-mingw32/8.1.0/libgcc.a(_chkstk_ms.o)
 .debug_line    0x000000000044b880      0x1a7 c:/ProgramFiles/mingw-w64-x86_64-8.1.0-posix-seh-rt_v6-rev0/mingw64/bin/../lib/gcc/x86_64-w64-mingw32/8.1.0/libgcc.a(_ctors.o)

.zdebug_line
 *(.zdebug_line)

.debug_frame    0x000000000044c000     0x2400
 *(.debug_frame)
 .debug_frame   0x000000000044c000      0x1b0 bin/win/DEBUG/obj/apt_applicationTask.o
 .debug_frame   0x000000000044c1b0      0x380 bin/win/DEBUG/obj/cbk_callbacks.o
 .debug_frame   0x000000000044c530       0xc0 bin/win/DEBUG/obj/chk_checksum.o
 .debug_frame   0x000000000044c5f0      0x438 bin/win/DEBUG/obj/ede_eventDispatcherEngine.o
 .debug_frame   0x000000000044ca28       0xc8 bin/win/DEBUG/obj/ede_eventSender.o
 .debug_frame   0x000000000044caf0      0x2b8 bin/win/DEBUG/obj/fil_file.o
 .debug_frame   0x000000000044cda8      0x380 bin/win/DEBUG/obj/log_logger.o
 .debug_frame   0x000000000044d128       0xa8 bin/win/DEBUG/obj/m16_mapDirectLookupU16.o
 .debug_frame   0x000000000044d1d0      0x1a0 bin/win/DEBUG/obj/main.o
 .debug_frame   0x000000000044d370       0xf8 bin/win/DEBUG/obj/mci_mapBinarySearchCanId.o
 .debug_frame   0x000000000044d468       0xc8 bin/win/DEBUG/obj/mem_malloc.o
 .debug_frame   0x000000000044d530      0x190 bin/win/DEBUG/obj/mhn_mapOsFrameHandleToCanIfHandle.o
 .debug_frame   0x000000000044d6c0       0x68 bin/win/DEBUG/obj/mid_mapIdentity.o
 .debug_frame   0x000000000044d728       0xa0 bin/win/DEBUG/obj/mpo_mapOffsetOnly.o
 .debug_frame   0x000000000044d7c8       0xa8 bin/win/DEBUG/obj/mu8_mapDirectLookupU8.o
 .debug_frame   0x000000000044d870       0xd0 bin/win/DEBUG/obj/opt_getOpt.o
 .debug_frame   0x000000000044d940      0x288 bin/win/DEBUG/obj/oss_operatingSystemSimulation.o
 .debug_frame   0x000000000044dbc8      0x120 bin/win/DEBUG/obj/pck_packCanFrame.o
 .debug_frame   0x000000000044dce8       0xd8 bin/win/DEBUG/obj/pwr_computeEnginePower.o
 .debug_frame   0x000000000044ddc0      0x1a8 bin/win/DEBUG/obj/vsq_dispatcherPortInterface.o
 .debug_frame   0x000000000044df68      0x3f8 bin/win/DEBUG/obj/vsq_threadSafeQueueVariableSize.o
 .debug_frame   0x000000000044e360       0x48 c:/ProgramFiles/mingw-w64-x86_64-8.1.0-posix-seh-rt_v6-rev0/mingw64/bin/../lib/gcc/x86_64-w64-mingw32/8.1.0/libgcc.a(_chkstk_ms.o)

.zdebug_frame
 *(.zdebug_frame)

.debug_str      0x000000000044f000     0x1200
 *(.debug_str)
 .debug_str     0x000000000044f000       0x99 bin/win/DEBUG/obj/apt_applicationTask.o
 .debug_str     0x000000000044f099      0x223 bin/win/DEBUG/obj/cbk_callbacks.o
 .debug_str     0x000000000044f2bc       0x26 bin/win/DEBUG/obj/chk_checksum.o
 .debug_str     0x000000000044f2e2      0x1a0 bin/win/DEBUG/obj/ede_eventDispatcherEngine.o
 .debug_str     0x000000000044f482       0xad bin/win/DEBUG/obj/ede_eventSender.o
 .debug_str     0x000000000044f52f       0x37 bin/win/DEBUG/obj/fil_file.o
 .debug_str     0x000000000044f566       0x71 bin/win/DEBUG/obj/log_logger.o
 .debug_str     0x000000000044f5d7       0xa4 bin/win/DEBUG/obj/m16_mapDirectLookupU16.o
 .debug_str     0x000000000044f67b       0x53 bin/win/DEBUG/obj/main.o
 .debug_str     0x000000000044f6ce      0x116 bin/win/DEBUG/obj/mci_mapBinarySearchCanId.o
 .debug_str     0x000000000044f7e4       0xa9 bin/win/DEBUG/obj/mem_malloc.o
 .debug_str     0x000000000044f88d       0x4d bin/win/DEBUG/obj/mhn_mapOsFrameHandleToCanIfHandle.o
 .debug_str     0x000000000044f8da       0x26 bin/win/DEBUG/obj/mid_mapIdentity.o
 .debug_str     0x000000000044f900       0x9a bin/win/DEBUG/obj/mpo_mapOffsetOnly.o
 .debug_str     0x000000000044f99a       0xa4 bin/win/DEBUG/obj/mu8_mapDirectLookupU8.o
 .debug_str     0x000000000044fa3e       0x60 bin/win/DEBUG/obj/opt_getOpt.o
 .debug_str     0x000000000044fa9e       0x54 bin/win/DEBUG/obj/oss_operatingSystemSimulation.o
 .debug_str     0x000000000044faf2      0x1a1 bin/win/DEBUG/obj/pck_packCanFrame.o
 .debug_str     0x000000000044fc93      0x1df bin/win/DEBUG/obj/pwr_computeEnginePower.o
 .debug_str     0x000000000044fe72       0xf4 bin/win/DEBUG/obj/vsq_dispatcherPortInterface.o
 .debug_str     0x000000000044ff66      0x103 bin/win/DEBUG/obj/vsq_threadSafeQueueVariableSize.o
 .debug_str     0x0000000000450069       0x9b c:/ProgramFiles/mingw-w64-x86_64-8.1.0-posix-seh-rt_v6-rev0/mingw64/bin/../lib/gcc/x86_64-w64-mingw32/8.1.0/libgcc.a(_chkstk_ms.o)
 .debug_str     0x0000000000450104        0x0 c:/ProgramFiles/mingw-w64-x86_64-8.1.0-posix-seh-rt_v6-rev0/mingw64/bin/../lib/gcc/x86_64-w64-mingw32/8.1.0/libgcc.a(_ctors.o)

.zdebug_str
 *(.zdebug_str)

.debug_loc
 *(.debug_loc)

.zdebug_loc
 *(.zdebug_loc)

.debug_macinfo
 *(.debug_macinfo)

.zdebug_macinfo
 *(.zdebug_macinfo)

.debug_weaknames
 *(.debug_weaknames)

.zdebug_weaknames
 *(.zdebug_weaknames)

.debug_funcnames
 *(.debug_funcnames)

.zdebug_funcnames
 *(.zdebug_funcnames)

.debug_typenames
 *(.debug_typenames)

.zdebug_typenames
 *(.zdebug_typenames)

.debug_varnames
 *(.debug_varnames)

.zdebug_varnames
 *(.zdebug_varnames)

.debug_macro    0x0000000000451000    0xabc00
 *(.debug_macro)
 .debug_macro   0x0000000000451000     0x8eee bin/win/DEBUG/obj/apt_applicationTask.o
 .debug_macro   0x0000000000459eee     0xa4fe bin/win/DEBUG/obj/cbk_callbacks.o
 .debug_macro   0x00000000004643ec     0x7c35 bin/win/DEBUG/obj/chk_checksum.o
 .debug_macro   0x000000000046c021     0x7b41 bin/win/DEBUG/obj/ede_eventDispatcherEngine.o
 .debug_macro   0x0000000000473b62     0x6f94 bin/win/DEBUG/obj/ede_eventSender.o
 .debug_macro   0x000000000047aaf6     0x8e8d bin/win/DEBUG/obj/fil_file.o
 .debug_macro   0x0000000000483983     0x9291 bin/win/DEBUG/obj/log_logger.o
 .debug_macro   0x000000000048cc14     0x6efe bin/win/DEBUG/obj/m16_mapDirectLookupU16.o
 .debug_macro   0x0000000000493b12     0x8e93 bin/win/DEBUG/obj/main.o
 .debug_macro   0x000000000049c9a5     0x7aa0 bin/win/DEBUG/obj/mci_mapBinarySearchCanId.o
 .debug_macro   0x00000000004a4445     0x82de bin/win/DEBUG/obj/mem_malloc.o
 .debug_macro   0x00000000004ac723     0x8c2d bin/win/DEBUG/obj/mhn_mapOsFrameHandleToCanIfHandle.o
 .debug_macro   0x00000000004b5350     0x6cc6 bin/win/DEBUG/obj/mid_mapIdentity.o
 .debug_macro   0x00000000004bc016     0x7034 bin/win/DEBUG/obj/mpo_mapOffsetOnly.o
 .debug_macro   0x00000000004c304a     0x6efd bin/win/DEBUG/obj/mu8_mapDirectLookupU8.o
 .debug_macro   0x00000000004c9f47     0x95ee bin/win/DEBUG/obj/opt_getOpt.o
 .debug_macro   0x00000000004d3535     0x8cd9 bin/win/DEBUG/obj/oss_operatingSystemSimulation.o
 .debug_macro   0x00000000004dc20e     0x8075 bin/win/DEBUG/obj/pck_packCanFrame.o
 .debug_macro   0x00000000004e4283     0xa1d9 bin/win/DEBUG/obj/pwr_computeEnginePower.o
 .debug_macro   0x00000000004ee45c     0x668b bin/win/DEBUG/obj/vsq_dispatcherPortInterface.o
 .debug_macro   0x00000000004f4ae7     0x8019 bin/win/DEBUG/obj/vsq_threadSafeQueueVariableSize.o

.zdebug_macro
 *(.zdebug_macro)

.debug_ranges   0x00000000004fd000     0x1000
 *(.debug_ranges)
 .debug_ranges  0x00000000004fd000       0xa0 bin/win/DEBUG/obj/apt_applicationTask.o
 .debug_ranges  0x00000000004fd0a0      0x1c0 bin/win/DEBUG/obj/cbk_callbacks.o
 .debug_ranges  0x00000000004fd260       0x50 bin/win/DEBUG/obj/chk_checksum.o
 .debug_ranges  0x00000000004fd2b0      0x200 bin/win/DEBUG/obj/ede_eventDispatcherEngine.o
 .debug_ranges  0x00000000004fd4b0       0x50 bin/win/DEBUG/obj/ede_eventSender.o
 .debug_ranges  0x00000000004fd500       0xc0 bin/win/DEBUG/obj/fil_file.o
 .debug_ranges  0x00000000004fd5c0      0x160 bin/win/DEBUG/obj/log_logger.o
 .debug_ranges  0x00000000004fd720       0x40 bin/win/DEBUG/obj/m16_mapDirectLookupU16.o
 .debug_ranges  0x00000000004fd760       0x90 bin/win/DEBUG/obj/main.o
 .debug_ranges  0x00000000004fd7f0       0x60 bin/win/DEBUG/obj/mci_mapBinarySearchCanId.o
 .debug_ranges  0x00000000004fd850       0x50 bin/win/DEBUG/obj/mem_malloc.o
 .debug_ranges  0x00000000004fd8a0       0xa0 bin/win/DEBUG/obj/mhn_mapOsFrameHandleToCanIfHandle.o
 .debug_ranges  0x00000000004fd940       0x30 bin/win/DEBUG/obj/mid_mapIdentity.o
 .debug_ranges  0x00000000004fd970       0x40 bin/win/DEBUG/obj/mpo_mapOffsetOnly.o
 .debug_ranges  0x00000000004fd9b0       0x40 bin/win/DEBUG/obj/mu8_mapDirectLookupU8.o
 .debug_ranges  0x00000000004fd9f0       0x40 bin/win/DEBUG/obj/opt_getOpt.o
 .debug_ranges  0x00000000004fda30       0xf0 bin/win/DEBUG/obj/oss_operatingSystemSimulation.o
 .debug_ranges  0x00000000004fdb20       0x70 bin/win/DEBUG/obj/pck_packCanFrame.o
 .debug_ranges  0x00000000004fdb90       0x50 bin/win/DEBUG/obj/pwr_computeEnginePower.o
 .debug_ranges  0x00000000004fdbe0       0xa0 bin/win/DEBUG/obj/vsq_dispatcherPortInterface.o
 .debug_ranges  0x00000000004fdc80      0x190 bin/win/DEBUG/obj/vsq_threadSafeQueueVariableSize.o

.zdebug_ranges
 *(.zdebug_ranges)

.debug_types
 *(.debug_types .gnu.linkonce.wt.*)

.zdebug_types
 *(.zdebug_types .zdebug.gnu.linkonce.wt.*)

.debug_gdb_scripts
 *(.debug_gdb_scripts)

.zdebug_gdb_scripts
 *(.zdebug_gdb_scripts)
OUTPUT(bin/win/DEBUG/winSampleIntegration.exe pei-x86-64)

Cross Reference Table

Symbol                                            File
.refptr._CRT_MT                                   c:/ProgramFiles/mingw-w64-x86_64-8.1.0-posix-seh-rt_v6-rev0/mingw64/bin/../lib/gcc/x86_64-w64-mingw32/8.1.0/../../../../x86_64-w64-mingw32/lib/../lib/libmingw32.a(lib64_libmingw32_a-tlssup.o)
.refptr._MINGW_INSTALL_DEBUG_MATHERR              c:/ProgramFiles/mingw-w64-x86_64-8.1.0-posix-seh-rt_v6-rev0/mingw64/bin/../lib/gcc/x86_64-w64-mingw32/8.1.0/../../../../x86_64-w64-mingw32/lib/../lib/crt2.o
.refptr.__CTOR_LIST__                             c:/ProgramFiles/mingw-w64-x86_64-8.1.0-posix-seh-rt_v6-rev0/mingw64/bin/../lib/gcc/x86_64-w64-mingw32/8.1.0/../../../../x86_64-w64-mingw32/lib/../lib/libmingw32.a(lib64_libmingw32_a-gccmain.o)
.refptr.__RUNTIME_PSEUDO_RELOC_LIST_END__         c:/ProgramFiles/mingw-w64-x86_64-8.1.0-posix-seh-rt_v6-rev0/mingw64/bin/../lib/gcc/x86_64-w64-mingw32/8.1.0/../../../../x86_64-w64-mingw32/lib/../lib/libmingw32.a(lib64_libmingw32_a-pseudo-reloc.o)
.refptr.__RUNTIME_PSEUDO_RELOC_LIST__             c:/ProgramFiles/mingw-w64-x86_64-8.1.0-posix-seh-rt_v6-rev0/mingw64/bin/../lib/gcc/x86_64-w64-mingw32/8.1.0/../../../../x86_64-w64-mingw32/lib/../lib/libmingw32.a(lib64_libmingw32_a-pseudo-reloc.o)
.refptr.__bigtens_D2A                             c:/ProgramFiles/mingw-w64-x86_64-8.1.0-posix-seh-rt_v6-rev0/mingw64/bin/../lib/gcc/x86_64-w64-mingw32/8.1.0/../../../../x86_64-w64-mingw32/lib/../lib/libmingwex.a(lib64_libmingwex_a-strtodg.o)
.refptr.__dyn_tls_init_callback                   c:/ProgramFiles/mingw-w64-x86_64-8.1.0-posix-seh-rt_v6-rev0/mingw64/bin/../lib/gcc/x86_64-w64-mingw32/8.1.0/../../../../x86_64-w64-mingw32/lib/../lib/crt2.o
.refptr.__hexdig_D2A                              c:/ProgramFiles/mingw-w64-x86_64-8.1.0-posix-seh-rt_v6-rev0/mingw64/bin/../lib/gcc/x86_64-w64-mingw32/8.1.0/../../../../x86_64-w64-mingw32/lib/../lib/libmingwex.a(lib64_libmingwex_a-hexnan.o)
                                                  c:/ProgramFiles/mingw-w64-x86_64-8.1.0-posix-seh-rt_v6-rev0/mingw64/bin/../lib/gcc/x86_64-w64-mingw32/8.1.0/../../../../x86_64-w64-mingw32/lib/../lib/libmingwex.a(lib64_libmingwex_a-gethex.o)
.refptr.__image_base__                            c:/ProgramFiles/mingw-w64-x86_64-8.1.0-posix-seh-rt_v6-rev0/mingw64/bin/../lib/gcc/x86_64-w64-mingw32/8.1.0/../../../../x86_64-w64-mingw32/lib/../lib/libmingw32.a(lib64_libmingw32_a-pesect.o)
                                                  c:/ProgramFiles/mingw-w64-x86_64-8.1.0-posix-seh-rt_v6-rev0/mingw64/bin/../lib/gcc/x86_64-w64-mingw32/8.1.0/../../../../x86_64-w64-mingw32/lib/../lib/libmingw32.a(lib64_libmingw32_a-pseudo-reloc.o)
                                                  c:/ProgramFiles/mingw-w64-x86_64-8.1.0-posix-seh-rt_v6-rev0/mingw64/bin/../lib/gcc/x86_64-w64-mingw32/8.1.0/../../../../x86_64-w64-mingw32/lib/../lib/crt2.o
.refptr.__imp___argv                              c:/ProgramFiles/mingw-w64-x86_64-8.1.0-posix-seh-rt_v6-rev0/mingw64/bin/../lib/gcc/x86_64-w64-mingw32/8.1.0/../../../../x86_64-w64-mingw32/lib/../lib/libmsvcrt.a(lib64_libmsvcrt_os_a-__p___argv.o)
.refptr.__imp___initenv                           c:/ProgramFiles/mingw-w64-x86_64-8.1.0-posix-seh-rt_v6-rev0/mingw64/bin/../lib/gcc/x86_64-w64-mingw32/8.1.0/../../../../x86_64-w64-mingw32/lib/../lib/crt2.o
.refptr.__imp__acmdln                             c:/ProgramFiles/mingw-w64-x86_64-8.1.0-posix-seh-rt_v6-rev0/mingw64/bin/../lib/gcc/x86_64-w64-mingw32/8.1.0/../../../../x86_64-w64-mingw32/lib/../lib/libmsvcrt.a(lib64_libmsvcrt_os_a-__p__acmdln.o)
.refptr.__imp__fmode                              c:/ProgramFiles/mingw-w64-x86_64-8.1.0-posix-seh-rt_v6-rev0/mingw64/bin/../lib/gcc/x86_64-w64-mingw32/8.1.0/../../../../x86_64-w64-mingw32/lib/../lib/libmsvcrt.a(lib64_libmsvcrt_os_a-__p__fmode.o)
.refptr.__mingw_oldexcpt_handler                  c:/ProgramFiles/mingw-w64-x86_64-8.1.0-posix-seh-rt_v6-rev0/mingw64/bin/../lib/gcc/x86_64-w64-mingw32/8.1.0/../../../../x86_64-w64-mingw32/lib/../lib/crt2.o
.refptr.__native_startup_lock                     c:/ProgramFiles/mingw-w64-x86_64-8.1.0-posix-seh-rt_v6-rev0/mingw64/bin/../lib/gcc/x86_64-w64-mingw32/8.1.0/../../../../x86_64-w64-mingw32/lib/../lib/crt2.o
.refptr.__native_startup_state                    c:/ProgramFiles/mingw-w64-x86_64-8.1.0-posix-seh-rt_v6-rev0/mingw64/bin/../lib/gcc/x86_64-w64-mingw32/8.1.0/../../../../x86_64-w64-mingw32/lib/../lib/crt2.o
.refptr.__tens_D2A                                c:/ProgramFiles/mingw-w64-x86_64-8.1.0-posix-seh-rt_v6-rev0/mingw64/bin/../lib/gcc/x86_64-w64-mingw32/8.1.0/../../../../x86_64-w64-mingw32/lib/../lib/libmingwex.a(lib64_libmingwex_a-strtodg.o)
.refptr.__tinytens_D2A                            c:/ProgramFiles/mingw-w64-x86_64-8.1.0-posix-seh-rt_v6-rev0/mingw64/bin/../lib/gcc/x86_64-w64-mingw32/8.1.0/../../../../x86_64-w64-mingw32/lib/../lib/libmingwex.a(lib64_libmingwex_a-strtodg.o)
.refptr.__xc_a                                    c:/ProgramFiles/mingw-w64-x86_64-8.1.0-posix-seh-rt_v6-rev0/mingw64/bin/../lib/gcc/x86_64-w64-mingw32/8.1.0/../../../../x86_64-w64-mingw32/lib/../lib/crt2.o
.refptr.__xc_z                                    c:/ProgramFiles/mingw-w64-x86_64-8.1.0-posix-seh-rt_v6-rev0/mingw64/bin/../lib/gcc/x86_64-w64-mingw32/8.1.0/../../../../x86_64-w64-mingw32/lib/../lib/crt2.o
.refptr.__xi_a                                    c:/ProgramFiles/mingw-w64-x86_64-8.1.0-posix-seh-rt_v6-rev0/mingw64/bin/../lib/gcc/x86_64-w64-mingw32/8.1.0/../../../../x86_64-w64-mingw32/lib/../lib/crt2.o
.refptr.__xi_z                                    c:/ProgramFiles/mingw-w64-x86_64-8.1.0-posix-seh-rt_v6-rev0/mingw64/bin/../lib/gcc/x86_64-w64-mingw32/8.1.0/../../../../x86_64-w64-mingw32/lib/../lib/crt2.o
.refptr._dowildcard                               c:/ProgramFiles/mingw-w64-x86_64-8.1.0-posix-seh-rt_v6-rev0/mingw64/bin/../lib/gcc/x86_64-w64-mingw32/8.1.0/../../../../x86_64-w64-mingw32/lib/../lib/crt2.o
.refptr._fmode                                    c:/ProgramFiles/mingw-w64-x86_64-8.1.0-posix-seh-rt_v6-rev0/mingw64/bin/../lib/gcc/x86_64-w64-mingw32/8.1.0/../../../../x86_64-w64-mingw32/lib/../lib/crt2.o
.refptr._gnu_exception_handler                    c:/ProgramFiles/mingw-w64-x86_64-8.1.0-posix-seh-rt_v6-rev0/mingw64/bin/../lib/gcc/x86_64-w64-mingw32/8.1.0/../../../../x86_64-w64-mingw32/lib/../lib/crt2.o
.refptr._matherr                                  c:/ProgramFiles/mingw-w64-x86_64-8.1.0-posix-seh-rt_v6-rev0/mingw64/bin/../lib/gcc/x86_64-w64-mingw32/8.1.0/../../../../x86_64-w64-mingw32/lib/../lib/crt2.o
.refptr._newmode                                  c:/ProgramFiles/mingw-w64-x86_64-8.1.0-posix-seh-rt_v6-rev0/mingw64/bin/../lib/gcc/x86_64-w64-mingw32/8.1.0/../../../../x86_64-w64-mingw32/lib/../lib/crt2.o
.refptr.apt_hDispatcherSystemAry                  bin/win/DEBUG/obj/cbk_callbacks.o
.refptr.apt_irqHandlerBusOff                      bin/win/DEBUG/obj/main.o
.refptr.apt_irqHandlerRxCan                       bin/win/DEBUG/obj/main.o
.refptr.apt_task100ms                             bin/win/DEBUG/obj/main.o
.refptr.apt_task10ms                              bin/win/DEBUG/obj/main.o
.refptr.apt_taskInit                              bin/win/DEBUG/obj/main.o
.refptr.apt_taskShutdown                          bin/win/DEBUG/obj/main.o
.refptr.main_hGlobalLogger                        bin/win/DEBUG/obj/pwr_computeEnginePower.o
                                                  bin/win/DEBUG/obj/oss_operatingSystemSimulation.o
                                                  bin/win/DEBUG/obj/mhn_mapOsFrameHandleToCanIfHandle.o
                                                  bin/win/DEBUG/obj/cbk_callbacks.o
                                                  bin/win/DEBUG/obj/apt_applicationTask.o
.refptr.mhn_addMapEntrySenderEvHandleToSenderPortIndex bin/win/DEBUG/obj/apt_applicationTask.o
.refptr.mhn_mapSenderEvHandleToSenderPortIndex    bin/win/DEBUG/obj/apt_applicationTask.o
.refptr.mingw_app_type                            c:/ProgramFiles/mingw-w64-x86_64-8.1.0-posix-seh-rt_v6-rev0/mingw64/bin/../lib/gcc/x86_64-w64-mingw32/8.1.0/../../../../x86_64-w64-mingw32/lib/../lib/libmingwex.a(lib64_libmingwex_a-wassert.o)
                                                  c:/ProgramFiles/mingw-w64-x86_64-8.1.0-posix-seh-rt_v6-rev0/mingw64/bin/../lib/gcc/x86_64-w64-mingw32/8.1.0/../../../../x86_64-w64-mingw32/lib/../lib/crt2.o
.refptr.mingw_initcharmax                         c:/ProgramFiles/mingw-w64-x86_64-8.1.0-posix-seh-rt_v6-rev0/mingw64/bin/../lib/gcc/x86_64-w64-mingw32/8.1.0/../../../../x86_64-w64-mingw32/lib/../lib/crt2.o
.refptr.mingw_initltsdrot_force                   c:/ProgramFiles/mingw-w64-x86_64-8.1.0-posix-seh-rt_v6-rev0/mingw64/bin/../lib/gcc/x86_64-w64-mingw32/8.1.0/../../../../x86_64-w64-mingw32/lib/../lib/crt2.o
.refptr.mingw_initltsdyn_force                    c:/ProgramFiles/mingw-w64-x86_64-8.1.0-posix-seh-rt_v6-rev0/mingw64/bin/../lib/gcc/x86_64-w64-mingw32/8.1.0/../../../../x86_64-w64-mingw32/lib/../lib/crt2.o
.refptr.mingw_initltssuo_force                    c:/ProgramFiles/mingw-w64-x86_64-8.1.0-posix-seh-rt_v6-rev0/mingw64/bin/../lib/gcc/x86_64-w64-mingw32/8.1.0/../../../../x86_64-w64-mingw32/lib/../lib/crt2.o
.refptr.optarg                                    bin/win/DEBUG/obj/opt_getOpt.o
.refptr.opterr                                    bin/win/DEBUG/obj/opt_getOpt.o
.refptr.optind                                    bin/win/DEBUG/obj/opt_getOpt.o
.refptr.optopt                                    bin/win/DEBUG/obj/opt_getOpt.o
.refptr.oss_tiSim                                 bin/win/DEBUG/obj/pwr_computeEnginePower.o
                                                  bin/win/DEBUG/obj/mhn_mapOsFrameHandleToCanIfHandle.o
                                                  bin/win/DEBUG/obj/cbk_callbacks.o
                                                  bin/win/DEBUG/obj/apt_applicationTask.o
.refptr.pck_API_PT_InfoPowerDisplay_1536          bin/win/DEBUG/obj/pwr_computeEnginePower.o
                                                  bin/win/DEBUG/obj/cbk_callbacks.o
.refptr.pck_API_PT_LimitsPowerDisplay_1538        bin/win/DEBUG/obj/pwr_computeEnginePower.o
                                                  bin/win/DEBUG/obj/cbk_callbacks.o
.refptr.pck_API_PT_StateEcu01_1024                bin/win/DEBUG/obj/pwr_computeEnginePower.o
                                                  bin/win/DEBUG/obj/cbk_callbacks.o
.refptr.pck_API_PT_StateEcu02_1040                bin/win/DEBUG/obj/pwr_computeEnginePower.o
                                                  bin/win/DEBUG/obj/cbk_callbacks.o
.refptr.pck_API_PT_StatusPowerDisplay_1537        bin/win/DEBUG/obj/pwr_computeEnginePower.o
                                                  bin/win/DEBUG/obj/cbk_callbacks.o
.refptr.pck_API_PT_UserLimits_2032                bin/win/DEBUG/obj/pwr_computeEnginePower.o
                                                  bin/win/DEBUG/obj/cbk_callbacks.o
DeleteCriticalSection                             c:/ProgramFiles/mingw-w64-x86_64-8.1.0-posix-seh-rt_v6-rev0/mingw64/bin/../lib/gcc/x86_64-w64-mingw32/8.1.0/../../../../x86_64-w64-mingw32/lib/../lib/libkernel32.a(dqifs00268.o)
EnterCriticalSection                              c:/ProgramFiles/mingw-w64-x86_64-8.1.0-posix-seh-rt_v6-rev0/mingw64/bin/../lib/gcc/x86_64-w64-mingw32/8.1.0/../../../../x86_64-w64-mingw32/lib/../lib/libkernel32.a(dqifs00304.o)
GetCurrentProcess                                 c:/ProgramFiles/mingw-w64-x86_64-8.1.0-posix-seh-rt_v6-rev0/mingw64/bin/../lib/gcc/x86_64-w64-mingw32/8.1.0/../../../../x86_64-w64-mingw32/lib/../lib/libkernel32.a(dqifs00535.o)
GetCurrentProcessId                               c:/ProgramFiles/mingw-w64-x86_64-8.1.0-posix-seh-rt_v6-rev0/mingw64/bin/../lib/gcc/x86_64-w64-mingw32/8.1.0/../../../../x86_64-w64-mingw32/lib/../lib/libkernel32.a(dqifs00536.o)
GetCurrentThreadId                                c:/ProgramFiles/mingw-w64-x86_64-8.1.0-posix-seh-rt_v6-rev0/mingw64/bin/../lib/gcc/x86_64-w64-mingw32/8.1.0/../../../../x86_64-w64-mingw32/lib/../lib/libkernel32.a(dqifs00540.o)
GetFileAttributesA                                c:/ProgramFiles/mingw-w64-x86_64-8.1.0-posix-seh-rt_v6-rev0/mingw64/bin/../lib/gcc/x86_64-w64-mingw32/8.1.0/../../../../x86_64-w64-mingw32/lib/../lib/libkernel32.a(dqifs00578.o)
GetLastError                                      c:/ProgramFiles/mingw-w64-x86_64-8.1.0-posix-seh-rt_v6-rev0/mingw64/bin/../lib/gcc/x86_64-w64-mingw32/8.1.0/../../../../x86_64-w64-mingw32/lib/../lib/libkernel32.a(dqifs00609.o)
GetModuleFileNameW                                c:/ProgramFiles/mingw-w64-x86_64-8.1.0-posix-seh-rt_v6-rev0/mingw64/bin/../lib/gcc/x86_64-w64-mingw32/8.1.0/../../../../x86_64-w64-mingw32/lib/../lib/libkernel32.a(dqifs00629.o)
GetStartupInfoA                                   c:/ProgramFiles/mingw-w64-x86_64-8.1.0-posix-seh-rt_v6-rev0/mingw64/bin/../lib/gcc/x86_64-w64-mingw32/8.1.0/../../../../x86_64-w64-mingw32/lib/../lib/libkernel32.a(dqifs00721.o)
GetSystemTimeAsFileTime                           c:/ProgramFiles/mingw-w64-x86_64-8.1.0-posix-seh-rt_v6-rev0/mingw64/bin/../lib/gcc/x86_64-w64-mingw32/8.1.0/../../../../x86_64-w64-mingw32/lib/../lib/libkernel32.a(dqifs00746.o)
GetTickCount                                      c:/ProgramFiles/mingw-w64-x86_64-8.1.0-posix-seh-rt_v6-rev0/mingw64/bin/../lib/gcc/x86_64-w64-mingw32/8.1.0/../../../../x86_64-w64-mingw32/lib/../lib/libkernel32.a(dqifs00774.o)
InitializeCriticalSection                         c:/ProgramFiles/mingw-w64-x86_64-8.1.0-posix-seh-rt_v6-rev0/mingw64/bin/../lib/gcc/x86_64-w64-mingw32/8.1.0/../../../../x86_64-w64-mingw32/lib/../lib/libkernel32.a(dqifs00863.o)
LeaveCriticalSection                              c:/ProgramFiles/mingw-w64-x86_64-8.1.0-posix-seh-rt_v6-rev0/mingw64/bin/../lib/gcc/x86_64-w64-mingw32/8.1.0/../../../../x86_64-w64-mingw32/lib/../lib/libkernel32.a(dqifs00951.o)
MessageBoxW                                       c:/ProgramFiles/mingw-w64-x86_64-8.1.0-posix-seh-rt_v6-rev0/mingw64/bin/../lib/gcc/x86_64-w64-mingw32/8.1.0/../../../../x86_64-w64-mingw32/lib/../lib/libuser32.a(dyqes00619.o)
QueryPerformanceCounter                           c:/ProgramFiles/mingw-w64-x86_64-8.1.0-posix-seh-rt_v6-rev0/mingw64/bin/../lib/gcc/x86_64-w64-mingw32/8.1.0/../../../../x86_64-w64-mingw32/lib/../lib/libkernel32.a(dqifs01093.o)
RtlAddFunctionTable                               c:/ProgramFiles/mingw-w64-x86_64-8.1.0-posix-seh-rt_v6-rev0/mingw64/bin/../lib/gcc/x86_64-w64-mingw32/8.1.0/../../../../x86_64-w64-mingw32/lib/../lib/libkernel32.a(dqifs01179.o)
RtlCaptureContext                                 c:/ProgramFiles/mingw-w64-x86_64-8.1.0-posix-seh-rt_v6-rev0/mingw64/bin/../lib/gcc/x86_64-w64-mingw32/8.1.0/../../../../x86_64-w64-mingw32/lib/../lib/libkernel32.a(dqifs01180.o)
RtlLookupFunctionEntry                            c:/ProgramFiles/mingw-w64-x86_64-8.1.0-posix-seh-rt_v6-rev0/mingw64/bin/../lib/gcc/x86_64-w64-mingw32/8.1.0/../../../../x86_64-w64-mingw32/lib/../lib/libkernel32.a(dqifs01187.o)
RtlVirtualUnwind                                  c:/ProgramFiles/mingw-w64-x86_64-8.1.0-posix-seh-rt_v6-rev0/mingw64/bin/../lib/gcc/x86_64-w64-mingw32/8.1.0/../../../../x86_64-w64-mingw32/lib/../lib/libkernel32.a(dqifs01194.o)
SetUnhandledExceptionFilter                       c:/ProgramFiles/mingw-w64-x86_64-8.1.0-posix-seh-rt_v6-rev0/mingw64/bin/../lib/gcc/x86_64-w64-mingw32/8.1.0/../../../../x86_64-w64-mingw32/lib/../lib/libkernel32.a(dqifs01346.o)
Sleep                                             c:/ProgramFiles/mingw-w64-x86_64-8.1.0-posix-seh-rt_v6-rev0/mingw64/bin/../lib/gcc/x86_64-w64-mingw32/8.1.0/../../../../x86_64-w64-mingw32/lib/../lib/libkernel32.a(dqifs01360.o)
TerminateProcess                                  c:/ProgramFiles/mingw-w64-x86_64-8.1.0-posix-seh-rt_v6-rev0/mingw64/bin/../lib/gcc/x86_64-w64-mingw32/8.1.0/../../../../x86_64-w64-mingw32/lib/../lib/libkernel32.a(dqifs01375.o)
TlsGetValue                                       c:/ProgramFiles/mingw-w64-x86_64-8.1.0-posix-seh-rt_v6-rev0/mingw64/bin/../lib/gcc/x86_64-w64-mingw32/8.1.0/../../../../x86_64-w64-mingw32/lib/../lib/libkernel32.a(dqifs01395.o)
UnhandledExceptionFilter                          c:/ProgramFiles/mingw-w64-x86_64-8.1.0-posix-seh-rt_v6-rev0/mingw64/bin/../lib/gcc/x86_64-w64-mingw32/8.1.0/../../../../x86_64-w64-mingw32/lib/../lib/libkernel32.a(dqifs01409.o)
VirtualProtect                                    c:/ProgramFiles/mingw-w64-x86_64-8.1.0-posix-seh-rt_v6-rev0/mingw64/bin/../lib/gcc/x86_64-w64-mingw32/8.1.0/../../../../x86_64-w64-mingw32/lib/../lib/libkernel32.a(dqifs01443.o)
VirtualQuery                                      c:/ProgramFiles/mingw-w64-x86_64-8.1.0-posix-seh-rt_v6-rev0/mingw64/bin/../lib/gcc/x86_64-w64-mingw32/8.1.0/../../../../x86_64-w64-mingw32/lib/../lib/libkernel32.a(dqifs01445.o)
WinMainCRTStartup                                 c:/ProgramFiles/mingw-w64-x86_64-8.1.0-posix-seh-rt_v6-rev0/mingw64/bin/../lib/gcc/x86_64-w64-mingw32/8.1.0/../../../../x86_64-w64-mingw32/lib/../lib/crt2.o
_CRT_MT                                           c:/ProgramFiles/mingw-w64-x86_64-8.1.0-posix-seh-rt_v6-rev0/mingw64/bin/../lib/gcc/x86_64-w64-mingw32/8.1.0/../../../../x86_64-w64-mingw32/lib/../lib/libmingw32.a(lib64_libmingw32_a-tlsmcrt.o)
                                                  c:/ProgramFiles/mingw-w64-x86_64-8.1.0-posix-seh-rt_v6-rev0/mingw64/bin/../lib/gcc/x86_64-w64-mingw32/8.1.0/../../../../x86_64-w64-mingw32/lib/../lib/libmingw32.a(lib64_libmingw32_a-tlssup.o)
_FindPESection                                    c:/ProgramFiles/mingw-w64-x86_64-8.1.0-posix-seh-rt_v6-rev0/mingw64/bin/../lib/gcc/x86_64-w64-mingw32/8.1.0/../../../../x86_64-w64-mingw32/lib/../lib/libmingw32.a(lib64_libmingw32_a-pesect.o)
_FindPESectionByName                              c:/ProgramFiles/mingw-w64-x86_64-8.1.0-posix-seh-rt_v6-rev0/mingw64/bin/../lib/gcc/x86_64-w64-mingw32/8.1.0/../../../../x86_64-w64-mingw32/lib/../lib/libmingw32.a(lib64_libmingw32_a-pesect.o)
                                                  c:/ProgramFiles/mingw-w64-x86_64-8.1.0-posix-seh-rt_v6-rev0/mingw64/bin/../lib/gcc/x86_64-w64-mingw32/8.1.0/../../../../x86_64-w64-mingw32/lib/../lib/libmingw32.a(lib64_libmingw32_a-crt_handler.o)
_FindPESectionExec                                c:/ProgramFiles/mingw-w64-x86_64-8.1.0-posix-seh-rt_v6-rev0/mingw64/bin/../lib/gcc/x86_64-w64-mingw32/8.1.0/../../../../x86_64-w64-mingw32/lib/../lib/libmingw32.a(lib64_libmingw32_a-pesect.o)
                                                  c:/ProgramFiles/mingw-w64-x86_64-8.1.0-posix-seh-rt_v6-rev0/mingw64/bin/../lib/gcc/x86_64-w64-mingw32/8.1.0/../../../../x86_64-w64-mingw32/lib/../lib/libmingw32.a(lib64_libmingw32_a-crt_handler.o)
_GetPEImageBase                                   c:/ProgramFiles/mingw-w64-x86_64-8.1.0-posix-seh-rt_v6-rev0/mingw64/bin/../lib/gcc/x86_64-w64-mingw32/8.1.0/../../../../x86_64-w64-mingw32/lib/../lib/libmingw32.a(lib64_libmingw32_a-pesect.o)
                                                  c:/ProgramFiles/mingw-w64-x86_64-8.1.0-posix-seh-rt_v6-rev0/mingw64/bin/../lib/gcc/x86_64-w64-mingw32/8.1.0/../../../../x86_64-w64-mingw32/lib/../lib/libmingw32.a(lib64_libmingw32_a-crt_handler.o)
                                                  c:/ProgramFiles/mingw-w64-x86_64-8.1.0-posix-seh-rt_v6-rev0/mingw64/bin/../lib/gcc/x86_64-w64-mingw32/8.1.0/../../../../x86_64-w64-mingw32/lib/../lib/libmingw32.a(lib64_libmingw32_a-pseudo-reloc.o)
_IsNonwritableInCurrentImage                      c:/ProgramFiles/mingw-w64-x86_64-8.1.0-posix-seh-rt_v6-rev0/mingw64/bin/../lib/gcc/x86_64-w64-mingw32/8.1.0/../../../../x86_64-w64-mingw32/lib/../lib/libmingw32.a(lib64_libmingw32_a-pesect.o)
_MINGW_INSTALL_DEBUG_MATHERR                      c:/ProgramFiles/mingw-w64-x86_64-8.1.0-posix-seh-rt_v6-rev0/mingw64/bin/../lib/gcc/x86_64-w64-mingw32/8.1.0/../../../../x86_64-w64-mingw32/lib/../lib/libmingwex.a(lib64_libmingwex_a-mingw_matherr.o)
                                                  c:/ProgramFiles/mingw-w64-x86_64-8.1.0-posix-seh-rt_v6-rev0/mingw64/bin/../lib/gcc/x86_64-w64-mingw32/8.1.0/../../../../x86_64-w64-mingw32/lib/../lib/crt2.o
_ValidateImageBase                                c:/ProgramFiles/mingw-w64-x86_64-8.1.0-posix-seh-rt_v6-rev0/mingw64/bin/../lib/gcc/x86_64-w64-mingw32/8.1.0/../../../../x86_64-w64-mingw32/lib/../lib/libmingw32.a(lib64_libmingw32_a-pesect.o)
__Balloc_D2A                                      c:/ProgramFiles/mingw-w64-x86_64-8.1.0-posix-seh-rt_v6-rev0/mingw64/bin/../lib/gcc/x86_64-w64-mingw32/8.1.0/../../../../x86_64-w64-mingw32/lib/../lib/libmingwex.a(lib64_libmingwex_a-misc.o)
                                                  c:/ProgramFiles/mingw-w64-x86_64-8.1.0-posix-seh-rt_v6-rev0/mingw64/bin/../lib/gcc/x86_64-w64-mingw32/8.1.0/../../../../x86_64-w64-mingw32/lib/../lib/libmingwex.a(lib64_libmingwex_a-smisc.o)
                                                  c:/ProgramFiles/mingw-w64-x86_64-8.1.0-posix-seh-rt_v6-rev0/mingw64/bin/../lib/gcc/x86_64-w64-mingw32/8.1.0/../../../../x86_64-w64-mingw32/lib/../lib/libmingwex.a(lib64_libmingwex_a-gethex.o)
                                                  c:/ProgramFiles/mingw-w64-x86_64-8.1.0-posix-seh-rt_v6-rev0/mingw64/bin/../lib/gcc/x86_64-w64-mingw32/8.1.0/../../../../x86_64-w64-mingw32/lib/../lib/libmingwex.a(lib64_libmingwex_a-sum.o)
                                                  c:/ProgramFiles/mingw-w64-x86_64-8.1.0-posix-seh-rt_v6-rev0/mingw64/bin/../lib/gcc/x86_64-w64-mingw32/8.1.0/../../../../x86_64-w64-mingw32/lib/../lib/libmingwex.a(lib64_libmingwex_a-strtodg.o)
__Bfree_D2A                                       c:/ProgramFiles/mingw-w64-x86_64-8.1.0-posix-seh-rt_v6-rev0/mingw64/bin/../lib/gcc/x86_64-w64-mingw32/8.1.0/../../../../x86_64-w64-mingw32/lib/../lib/libmingwex.a(lib64_libmingwex_a-misc.o)
                                                  c:/ProgramFiles/mingw-w64-x86_64-8.1.0-posix-seh-rt_v6-rev0/mingw64/bin/../lib/gcc/x86_64-w64-mingw32/8.1.0/../../../../x86_64-w64-mingw32/lib/../lib/libmingwex.a(lib64_libmingwex_a-gethex.o)
                                                  c:/ProgramFiles/mingw-w64-x86_64-8.1.0-posix-seh-rt_v6-rev0/mingw64/bin/../lib/gcc/x86_64-w64-mingw32/8.1.0/../../../../x86_64-w64-mingw32/lib/../lib/libmingwex.a(lib64_libmingwex_a-sum.o)
                                                  c:/ProgramFiles/mingw-w64-x86_64-8.1.0-posix-seh-rt_v6-rev0/mingw64/bin/../lib/gcc/x86_64-w64-mingw32/8.1.0/../../../../x86_64-w64-mingw32/lib/../lib/libmingwex.a(lib64_libmingwex_a-strtodg.o)
__CTOR_LIST__                                     c:/ProgramFiles/mingw-w64-x86_64-8.1.0-posix-seh-rt_v6-rev0/mingw64/bin/../lib/gcc/x86_64-w64-mingw32/8.1.0/libgcc.a(_ctors.o)
                                                  c:/ProgramFiles/mingw-w64-x86_64-8.1.0-posix-seh-rt_v6-rev0/mingw64/bin/../lib/gcc/x86_64-w64-mingw32/8.1.0/../../../../x86_64-w64-mingw32/lib/../lib/libmingw32.a(lib64_libmingw32_a-gccmain.o)
__C_specific_handler                              c:/ProgramFiles/mingw-w64-x86_64-8.1.0-posix-seh-rt_v6-rev0/mingw64/bin/../lib/gcc/x86_64-w64-mingw32/8.1.0/../../../../x86_64-w64-mingw32/lib/../lib/libmsvcrt.a(duags00055.o)
                                                  c:/ProgramFiles/mingw-w64-x86_64-8.1.0-posix-seh-rt_v6-rev0/mingw64/bin/../lib/gcc/x86_64-w64-mingw32/8.1.0/../../../../x86_64-w64-mingw32/lib/../lib/crt2.o
__DTOR_LIST__                                     c:/ProgramFiles/mingw-w64-x86_64-8.1.0-posix-seh-rt_v6-rev0/mingw64/bin/../lib/gcc/x86_64-w64-mingw32/8.1.0/libgcc.a(_ctors.o)
                                                  c:/ProgramFiles/mingw-w64-x86_64-8.1.0-posix-seh-rt_v6-rev0/mingw64/bin/../lib/gcc/x86_64-w64-mingw32/8.1.0/../../../../x86_64-w64-mingw32/lib/../lib/libmingw32.a(lib64_libmingw32_a-gccmain.o)
__RUNTIME_PSEUDO_RELOC_LIST_END__                 c:/ProgramFiles/mingw-w64-x86_64-8.1.0-posix-seh-rt_v6-rev0/mingw64/bin/../lib/gcc/x86_64-w64-mingw32/8.1.0/../../../../x86_64-w64-mingw32/lib/../lib/libmingw32.a(lib64_libmingw32_a-pseudo-reloc-list.o)
                                                  c:/ProgramFiles/mingw-w64-x86_64-8.1.0-posix-seh-rt_v6-rev0/mingw64/bin/../lib/gcc/x86_64-w64-mingw32/8.1.0/../../../../x86_64-w64-mingw32/lib/../lib/libmingw32.a(lib64_libmingw32_a-pseudo-reloc.o)
__RUNTIME_PSEUDO_RELOC_LIST__                     c:/ProgramFiles/mingw-w64-x86_64-8.1.0-posix-seh-rt_v6-rev0/mingw64/bin/../lib/gcc/x86_64-w64-mingw32/8.1.0/../../../../x86_64-w64-mingw32/lib/../lib/libmingw32.a(lib64_libmingw32_a-pseudo-reloc-list.o)
                                                  c:/ProgramFiles/mingw-w64-x86_64-8.1.0-posix-seh-rt_v6-rev0/mingw64/bin/../lib/gcc/x86_64-w64-mingw32/8.1.0/../../../../x86_64-w64-mingw32/lib/../lib/libmingw32.a(lib64_libmingw32_a-pseudo-reloc.o)
___chkstk_ms                                      c:/ProgramFiles/mingw-w64-x86_64-8.1.0-posix-seh-rt_v6-rev0/mingw64/bin/../lib/gcc/x86_64-w64-mingw32/8.1.0/libgcc.a(_chkstk_ms.o)
                                                  c:/ProgramFiles/mingw-w64-x86_64-8.1.0-posix-seh-rt_v6-rev0/mingw64/bin/../lib/gcc/x86_64-w64-mingw32/8.1.0/../../../../x86_64-w64-mingw32/lib/../lib/libmingw32.a(lib64_libmingw32_a-pseudo-reloc.o)
                                                  bin/win/DEBUG/obj/main.o
                                                  bin/win/DEBUG/obj/fil_file.o
___w64_mingwthr_add_key_dtor                      c:/ProgramFiles/mingw-w64-x86_64-8.1.0-posix-seh-rt_v6-rev0/mingw64/bin/../lib/gcc/x86_64-w64-mingw32/8.1.0/../../../../x86_64-w64-mingw32/lib/../lib/libmingw32.a(lib64_libmingw32_a-tlsthrd.o)
___w64_mingwthr_remove_key_dtor                   c:/ProgramFiles/mingw-w64-x86_64-8.1.0-posix-seh-rt_v6-rev0/mingw64/bin/../lib/gcc/x86_64-w64-mingw32/8.1.0/../../../../x86_64-w64-mingw32/lib/../lib/libmingw32.a(lib64_libmingw32_a-tlsthrd.o)
__acrt_iob_func                                   c:/ProgramFiles/mingw-w64-x86_64-8.1.0-posix-seh-rt_v6-rev0/mingw64/bin/../lib/gcc/x86_64-w64-mingw32/8.1.0/../../../../x86_64-w64-mingw32/lib/../lib/libmsvcrt.a(lib64_libmsvcrt_os_a-acrt_iob_func.o)
                                                  c:/ProgramFiles/mingw-w64-x86_64-8.1.0-posix-seh-rt_v6-rev0/mingw64/bin/../lib/gcc/x86_64-w64-mingw32/8.1.0/../../../../x86_64-w64-mingw32/lib/../lib/libmingwex.a(lib64_libmingwex_a-wassert.o)
                                                  c:/ProgramFiles/mingw-w64-x86_64-8.1.0-posix-seh-rt_v6-rev0/mingw64/bin/../lib/gcc/x86_64-w64-mingw32/8.1.0/../../../../x86_64-w64-mingw32/lib/../lib/libmingwex.a(lib64_libmingwex_a-getopt.o)
                                                  c:/ProgramFiles/mingw-w64-x86_64-8.1.0-posix-seh-rt_v6-rev0/mingw64/bin/../lib/gcc/x86_64-w64-mingw32/8.1.0/../../../../x86_64-w64-mingw32/lib/../lib/libmingw32.a(lib64_libmingw32_a-pseudo-reloc.o)
                                                  c:/ProgramFiles/mingw-w64-x86_64-8.1.0-posix-seh-rt_v6-rev0/mingw64/bin/../lib/gcc/x86_64-w64-mingw32/8.1.0/../../../../x86_64-w64-mingw32/lib/../lib/libmingw32.a(lib64_libmingw32_a-merr.o)
__any_on_D2A                                      c:/ProgramFiles/mingw-w64-x86_64-8.1.0-posix-seh-rt_v6-rev0/mingw64/bin/../lib/gcc/x86_64-w64-mingw32/8.1.0/../../../../x86_64-w64-mingw32/lib/../lib/libmingwex.a(lib64_libmingwex_a-smisc.o)
                                                  c:/ProgramFiles/mingw-w64-x86_64-8.1.0-posix-seh-rt_v6-rev0/mingw64/bin/../lib/gcc/x86_64-w64-mingw32/8.1.0/../../../../x86_64-w64-mingw32/lib/../lib/libmingwex.a(lib64_libmingwex_a-gethex.o)
                                                  c:/ProgramFiles/mingw-w64-x86_64-8.1.0-posix-seh-rt_v6-rev0/mingw64/bin/../lib/gcc/x86_64-w64-mingw32/8.1.0/../../../../x86_64-w64-mingw32/lib/../lib/libmingwex.a(lib64_libmingwex_a-strtodg.o)
__b2d_D2A                                         c:/ProgramFiles/mingw-w64-x86_64-8.1.0-posix-seh-rt_v6-rev0/mingw64/bin/../lib/gcc/x86_64-w64-mingw32/8.1.0/../../../../x86_64-w64-mingw32/lib/../lib/libmingwex.a(lib64_libmingwex_a-misc.o)
                                                  c:/ProgramFiles/mingw-w64-x86_64-8.1.0-posix-seh-rt_v6-rev0/mingw64/bin/../lib/gcc/x86_64-w64-mingw32/8.1.0/../../../../x86_64-w64-mingw32/lib/../lib/libmingwex.a(lib64_libmingwex_a-smisc.o)
__bigtens_D2A                                     c:/ProgramFiles/mingw-w64-x86_64-8.1.0-posix-seh-rt_v6-rev0/mingw64/bin/../lib/gcc/x86_64-w64-mingw32/8.1.0/../../../../x86_64-w64-mingw32/lib/../lib/libmingwex.a(lib64_libmingwex_a-misc.o)
                                                  c:/ProgramFiles/mingw-w64-x86_64-8.1.0-posix-seh-rt_v6-rev0/mingw64/bin/../lib/gcc/x86_64-w64-mingw32/8.1.0/../../../../x86_64-w64-mingw32/lib/../lib/libmingwex.a(lib64_libmingwex_a-strtodg.o)
__cmp_D2A                                         c:/ProgramFiles/mingw-w64-x86_64-8.1.0-posix-seh-rt_v6-rev0/mingw64/bin/../lib/gcc/x86_64-w64-mingw32/8.1.0/../../../../x86_64-w64-mingw32/lib/../lib/libmingwex.a(lib64_libmingwex_a-misc.o)
                                                  c:/ProgramFiles/mingw-w64-x86_64-8.1.0-posix-seh-rt_v6-rev0/mingw64/bin/../lib/gcc/x86_64-w64-mingw32/8.1.0/../../../../x86_64-w64-mingw32/lib/../lib/libmingwex.a(lib64_libmingwex_a-strtodg.o)
__copybits_D2A                                    c:/ProgramFiles/mingw-w64-x86_64-8.1.0-posix-seh-rt_v6-rev0/mingw64/bin/../lib/gcc/x86_64-w64-mingw32/8.1.0/../../../../x86_64-w64-mingw32/lib/../lib/libmingwex.a(lib64_libmingwex_a-smisc.o)
                                                  c:/ProgramFiles/mingw-w64-x86_64-8.1.0-posix-seh-rt_v6-rev0/mingw64/bin/../lib/gcc/x86_64-w64-mingw32/8.1.0/../../../../x86_64-w64-mingw32/lib/../lib/libmingwex.a(lib64_libmingwex_a-strtodg.o)
__d2b_D2A                                         c:/ProgramFiles/mingw-w64-x86_64-8.1.0-posix-seh-rt_v6-rev0/mingw64/bin/../lib/gcc/x86_64-w64-mingw32/8.1.0/../../../../x86_64-w64-mingw32/lib/../lib/libmingwex.a(lib64_libmingwex_a-misc.o)
                                                  c:/ProgramFiles/mingw-w64-x86_64-8.1.0-posix-seh-rt_v6-rev0/mingw64/bin/../lib/gcc/x86_64-w64-mingw32/8.1.0/../../../../x86_64-w64-mingw32/lib/../lib/libmingwex.a(lib64_libmingwex_a-strtodg.o)
__decrement_D2A                                   c:/ProgramFiles/mingw-w64-x86_64-8.1.0-posix-seh-rt_v6-rev0/mingw64/bin/../lib/gcc/x86_64-w64-mingw32/8.1.0/../../../../x86_64-w64-mingw32/lib/../lib/libmingwex.a(lib64_libmingwex_a-strtodg.o)
__diff_D2A                                        c:/ProgramFiles/mingw-w64-x86_64-8.1.0-posix-seh-rt_v6-rev0/mingw64/bin/../lib/gcc/x86_64-w64-mingw32/8.1.0/../../../../x86_64-w64-mingw32/lib/../lib/libmingwex.a(lib64_libmingwex_a-misc.o)
                                                  c:/ProgramFiles/mingw-w64-x86_64-8.1.0-posix-seh-rt_v6-rev0/mingw64/bin/../lib/gcc/x86_64-w64-mingw32/8.1.0/../../../../x86_64-w64-mingw32/lib/../lib/libmingwex.a(lib64_libmingwex_a-strtodg.o)
__do_global_ctors                                 c:/ProgramFiles/mingw-w64-x86_64-8.1.0-posix-seh-rt_v6-rev0/mingw64/bin/../lib/gcc/x86_64-w64-mingw32/8.1.0/../../../../x86_64-w64-mingw32/lib/../lib/libmingw32.a(lib64_libmingw32_a-gccmain.o)
__do_global_dtors                                 c:/ProgramFiles/mingw-w64-x86_64-8.1.0-posix-seh-rt_v6-rev0/mingw64/bin/../lib/gcc/x86_64-w64-mingw32/8.1.0/../../../../x86_64-w64-mingw32/lib/../lib/libmingw32.a(lib64_libmingw32_a-gccmain.o)
__dyn_tls_init                                    c:/ProgramFiles/mingw-w64-x86_64-8.1.0-posix-seh-rt_v6-rev0/mingw64/bin/../lib/gcc/x86_64-w64-mingw32/8.1.0/../../../../x86_64-w64-mingw32/lib/../lib/libmingw32.a(lib64_libmingw32_a-tlssup.o)
__dyn_tls_init_callback                           c:/ProgramFiles/mingw-w64-x86_64-8.1.0-posix-seh-rt_v6-rev0/mingw64/bin/../lib/gcc/x86_64-w64-mingw32/8.1.0/../../../../x86_64-w64-mingw32/lib/../lib/libmingw32.a(lib64_libmingw32_a-tlssup.o)
                                                  c:/ProgramFiles/mingw-w64-x86_64-8.1.0-posix-seh-rt_v6-rev0/mingw64/bin/../lib/gcc/x86_64-w64-mingw32/8.1.0/../../../../x86_64-w64-mingw32/lib/../lib/crt2.o
__gcc_deregister_frame                            c:/ProgramFiles/mingw-w64-x86_64-8.1.0-posix-seh-rt_v6-rev0/mingw64/bin/../lib/gcc/x86_64-w64-mingw32/8.1.0/crtbegin.o
__gcc_register_frame                              c:/ProgramFiles/mingw-w64-x86_64-8.1.0-posix-seh-rt_v6-rev0/mingw64/bin/../lib/gcc/x86_64-w64-mingw32/8.1.0/crtbegin.o
                                                  c:/ProgramFiles/mingw-w64-x86_64-8.1.0-posix-seh-rt_v6-rev0/mingw64/bin/../lib/gcc/x86_64-w64-mingw32/8.1.0/crtend.o
__gethex_D2A                                      c:/ProgramFiles/mingw-w64-x86_64-8.1.0-posix-seh-rt_v6-rev0/mingw64/bin/../lib/gcc/x86_64-w64-mingw32/8.1.0/../../../../x86_64-w64-mingw32/lib/../lib/libmingwex.a(lib64_libmingwex_a-gethex.o)
                                                  c:/ProgramFiles/mingw-w64-x86_64-8.1.0-posix-seh-rt_v6-rev0/mingw64/bin/../lib/gcc/x86_64-w64-mingw32/8.1.0/../../../../x86_64-w64-mingw32/lib/../lib/libmingwex.a(lib64_libmingwex_a-strtodg.o)
__getmainargs                                     c:/ProgramFiles/mingw-w64-x86_64-8.1.0-posix-seh-rt_v6-rev0/mingw64/bin/../lib/gcc/x86_64-w64-mingw32/8.1.0/../../../../x86_64-w64-mingw32/lib/../lib/libmsvcrt.a(duags00081.o)
                                                  c:/ProgramFiles/mingw-w64-x86_64-8.1.0-posix-seh-rt_v6-rev0/mingw64/bin/../lib/gcc/x86_64-w64-mingw32/8.1.0/../../../../x86_64-w64-mingw32/lib/../lib/crt2.o
__hexdig_D2A                                      c:/ProgramFiles/mingw-w64-x86_64-8.1.0-posix-seh-rt_v6-rev0/mingw64/bin/../lib/gcc/x86_64-w64-mingw32/8.1.0/../../../../x86_64-w64-mingw32/lib/../lib/libmingwex.a(lib64_libmingwex_a-hd_init.o)
                                                  c:/ProgramFiles/mingw-w64-x86_64-8.1.0-posix-seh-rt_v6-rev0/mingw64/bin/../lib/gcc/x86_64-w64-mingw32/8.1.0/../../../../x86_64-w64-mingw32/lib/../lib/libmingwex.a(lib64_libmingwex_a-hexnan.o)
                                                  c:/ProgramFiles/mingw-w64-x86_64-8.1.0-posix-seh-rt_v6-rev0/mingw64/bin/../lib/gcc/x86_64-w64-mingw32/8.1.0/../../../../x86_64-w64-mingw32/lib/../lib/libmingwex.a(lib64_libmingwex_a-gethex.o)
__hexnan_D2A                                      c:/ProgramFiles/mingw-w64-x86_64-8.1.0-posix-seh-rt_v6-rev0/mingw64/bin/../lib/gcc/x86_64-w64-mingw32/8.1.0/../../../../x86_64-w64-mingw32/lib/../lib/libmingwex.a(lib64_libmingwex_a-hexnan.o)
                                                  c:/ProgramFiles/mingw-w64-x86_64-8.1.0-posix-seh-rt_v6-rev0/mingw64/bin/../lib/gcc/x86_64-w64-mingw32/8.1.0/../../../../x86_64-w64-mingw32/lib/../lib/libmingwex.a(lib64_libmingwex_a-strtodg.o)
__i2b_D2A                                         c:/ProgramFiles/mingw-w64-x86_64-8.1.0-posix-seh-rt_v6-rev0/mingw64/bin/../lib/gcc/x86_64-w64-mingw32/8.1.0/../../../../x86_64-w64-mingw32/lib/../lib/libmingwex.a(lib64_libmingwex_a-misc.o)
                                                  c:/ProgramFiles/mingw-w64-x86_64-8.1.0-posix-seh-rt_v6-rev0/mingw64/bin/../lib/gcc/x86_64-w64-mingw32/8.1.0/../../../../x86_64-w64-mingw32/lib/../lib/libmingwex.a(lib64_libmingwex_a-strtodg.o)
__image_base__                                    c:/ProgramFiles/mingw-w64-x86_64-8.1.0-posix-seh-rt_v6-rev0/mingw64/bin/../lib/gcc/x86_64-w64-mingw32/8.1.0/../../../../x86_64-w64-mingw32/lib/../lib/libmingw32.a(lib64_libmingw32_a-pesect.o)
                                                  c:/ProgramFiles/mingw-w64-x86_64-8.1.0-posix-seh-rt_v6-rev0/mingw64/bin/../lib/gcc/x86_64-w64-mingw32/8.1.0/../../../../x86_64-w64-mingw32/lib/../lib/libmingw32.a(lib64_libmingw32_a-pseudo-reloc.o)
                                                  c:/ProgramFiles/mingw-w64-x86_64-8.1.0-posix-seh-rt_v6-rev0/mingw64/bin/../lib/gcc/x86_64-w64-mingw32/8.1.0/../../../../x86_64-w64-mingw32/lib/../lib/crt2.o
__imp_DeleteCriticalSection                       c:/ProgramFiles/mingw-w64-x86_64-8.1.0-posix-seh-rt_v6-rev0/mingw64/bin/../lib/gcc/x86_64-w64-mingw32/8.1.0/../../../../x86_64-w64-mingw32/lib/../lib/libkernel32.a(dqifs00268.o)
                                                  c:/ProgramFiles/mingw-w64-x86_64-8.1.0-posix-seh-rt_v6-rev0/mingw64/bin/../lib/gcc/x86_64-w64-mingw32/8.1.0/../../../../x86_64-w64-mingw32/lib/../lib/libmingwex.a(lib64_libmingwex_a-misc.o)
                                                  c:/ProgramFiles/mingw-w64-x86_64-8.1.0-posix-seh-rt_v6-rev0/mingw64/bin/../lib/gcc/x86_64-w64-mingw32/8.1.0/../../../../x86_64-w64-mingw32/lib/../lib/libmingw32.a(lib64_libmingw32_a-tlsthrd.o)
__imp_EnterCriticalSection                        c:/ProgramFiles/mingw-w64-x86_64-8.1.0-posix-seh-rt_v6-rev0/mingw64/bin/../lib/gcc/x86_64-w64-mingw32/8.1.0/../../../../x86_64-w64-mingw32/lib/../lib/libkernel32.a(dqifs00304.o)
                                                  c:/ProgramFiles/mingw-w64-x86_64-8.1.0-posix-seh-rt_v6-rev0/mingw64/bin/../lib/gcc/x86_64-w64-mingw32/8.1.0/../../../../x86_64-w64-mingw32/lib/../lib/libmingwex.a(lib64_libmingwex_a-misc.o)
                                                  c:/ProgramFiles/mingw-w64-x86_64-8.1.0-posix-seh-rt_v6-rev0/mingw64/bin/../lib/gcc/x86_64-w64-mingw32/8.1.0/../../../../x86_64-w64-mingw32/lib/../lib/libmingw32.a(lib64_libmingw32_a-tlsthrd.o)
__imp_GetCurrentProcess                           c:/ProgramFiles/mingw-w64-x86_64-8.1.0-posix-seh-rt_v6-rev0/mingw64/bin/../lib/gcc/x86_64-w64-mingw32/8.1.0/../../../../x86_64-w64-mingw32/lib/../lib/libkernel32.a(dqifs00535.o)
                                                  c:/ProgramFiles/mingw-w64-x86_64-8.1.0-posix-seh-rt_v6-rev0/mingw64/bin/../lib/gcc/x86_64-w64-mingw32/8.1.0/../../../../x86_64-w64-mingw32/lib/../lib/libmingw32.a(lib64_libmingw32_a-gs_support.o)
__imp_GetCurrentProcessId                         c:/ProgramFiles/mingw-w64-x86_64-8.1.0-posix-seh-rt_v6-rev0/mingw64/bin/../lib/gcc/x86_64-w64-mingw32/8.1.0/../../../../x86_64-w64-mingw32/lib/../lib/libkernel32.a(dqifs00536.o)
                                                  c:/ProgramFiles/mingw-w64-x86_64-8.1.0-posix-seh-rt_v6-rev0/mingw64/bin/../lib/gcc/x86_64-w64-mingw32/8.1.0/../../../../x86_64-w64-mingw32/lib/../lib/libmingw32.a(lib64_libmingw32_a-gs_support.o)
__imp_GetCurrentThreadId                          c:/ProgramFiles/mingw-w64-x86_64-8.1.0-posix-seh-rt_v6-rev0/mingw64/bin/../lib/gcc/x86_64-w64-mingw32/8.1.0/../../../../x86_64-w64-mingw32/lib/../lib/libkernel32.a(dqifs00540.o)
                                                  c:/ProgramFiles/mingw-w64-x86_64-8.1.0-posix-seh-rt_v6-rev0/mingw64/bin/../lib/gcc/x86_64-w64-mingw32/8.1.0/../../../../x86_64-w64-mingw32/lib/../lib/libmingw32.a(lib64_libmingw32_a-gs_support.o)
__imp_GetFileAttributesA                          c:/ProgramFiles/mingw-w64-x86_64-8.1.0-posix-seh-rt_v6-rev0/mingw64/bin/../lib/gcc/x86_64-w64-mingw32/8.1.0/../../../../x86_64-w64-mingw32/lib/../lib/libkernel32.a(dqifs00578.o)
                                                  c:/ProgramFiles/mingw-w64-x86_64-8.1.0-posix-seh-rt_v6-rev0/mingw64/bin/../lib/gcc/x86_64-w64-mingw32/8.1.0/../../../../x86_64-w64-mingw32/lib/../lib/libmingwex.a(lib64_libmingwex_a-dirent.o)
__imp_GetLastError                                c:/ProgramFiles/mingw-w64-x86_64-8.1.0-posix-seh-rt_v6-rev0/mingw64/bin/../lib/gcc/x86_64-w64-mingw32/8.1.0/../../../../x86_64-w64-mingw32/lib/../lib/libkernel32.a(dqifs00609.o)
                                                  c:/ProgramFiles/mingw-w64-x86_64-8.1.0-posix-seh-rt_v6-rev0/mingw64/bin/../lib/gcc/x86_64-w64-mingw32/8.1.0/../../../../x86_64-w64-mingw32/lib/../lib/libmingwex.a(lib64_libmingwex_a-dirent.o)
                                                  c:/ProgramFiles/mingw-w64-x86_64-8.1.0-posix-seh-rt_v6-rev0/mingw64/bin/../lib/gcc/x86_64-w64-mingw32/8.1.0/../../../../x86_64-w64-mingw32/lib/../lib/libmingw32.a(lib64_libmingw32_a-tlsthrd.o)
                                                  c:/ProgramFiles/mingw-w64-x86_64-8.1.0-posix-seh-rt_v6-rev0/mingw64/bin/../lib/gcc/x86_64-w64-mingw32/8.1.0/../../../../x86_64-w64-mingw32/lib/../lib/libmingw32.a(lib64_libmingw32_a-pseudo-reloc.o)
__imp_GetModuleFileNameW                          c:/ProgramFiles/mingw-w64-x86_64-8.1.0-posix-seh-rt_v6-rev0/mingw64/bin/../lib/gcc/x86_64-w64-mingw32/8.1.0/../../../../x86_64-w64-mingw32/lib/../lib/libkernel32.a(dqifs00629.o)
                                                  c:/ProgramFiles/mingw-w64-x86_64-8.1.0-posix-seh-rt_v6-rev0/mingw64/bin/../lib/gcc/x86_64-w64-mingw32/8.1.0/../../../../x86_64-w64-mingw32/lib/../lib/libmingwex.a(lib64_libmingwex_a-wassert.o)
__imp_GetStartupInfoA                             c:/ProgramFiles/mingw-w64-x86_64-8.1.0-posix-seh-rt_v6-rev0/mingw64/bin/../lib/gcc/x86_64-w64-mingw32/8.1.0/../../../../x86_64-w64-mingw32/lib/../lib/libkernel32.a(dqifs00721.o)
                                                  c:/ProgramFiles/mingw-w64-x86_64-8.1.0-posix-seh-rt_v6-rev0/mingw64/bin/../lib/gcc/x86_64-w64-mingw32/8.1.0/../../../../x86_64-w64-mingw32/lib/../lib/crt2.o
__imp_GetSystemTimeAsFileTime                     c:/ProgramFiles/mingw-w64-x86_64-8.1.0-posix-seh-rt_v6-rev0/mingw64/bin/../lib/gcc/x86_64-w64-mingw32/8.1.0/../../../../x86_64-w64-mingw32/lib/../lib/libkernel32.a(dqifs00746.o)
                                                  c:/ProgramFiles/mingw-w64-x86_64-8.1.0-posix-seh-rt_v6-rev0/mingw64/bin/../lib/gcc/x86_64-w64-mingw32/8.1.0/../../../../x86_64-w64-mingw32/lib/../lib/libmingw32.a(lib64_libmingw32_a-gs_support.o)
__imp_GetTickCount                                c:/ProgramFiles/mingw-w64-x86_64-8.1.0-posix-seh-rt_v6-rev0/mingw64/bin/../lib/gcc/x86_64-w64-mingw32/8.1.0/../../../../x86_64-w64-mingw32/lib/../lib/libkernel32.a(dqifs00774.o)
                                                  c:/ProgramFiles/mingw-w64-x86_64-8.1.0-posix-seh-rt_v6-rev0/mingw64/bin/../lib/gcc/x86_64-w64-mingw32/8.1.0/../../../../x86_64-w64-mingw32/lib/../lib/libmingw32.a(lib64_libmingw32_a-gs_support.o)
__imp_InitializeCriticalSection                   c:/ProgramFiles/mingw-w64-x86_64-8.1.0-posix-seh-rt_v6-rev0/mingw64/bin/../lib/gcc/x86_64-w64-mingw32/8.1.0/../../../../x86_64-w64-mingw32/lib/../lib/libkernel32.a(dqifs00863.o)
                                                  c:/ProgramFiles/mingw-w64-x86_64-8.1.0-posix-seh-rt_v6-rev0/mingw64/bin/../lib/gcc/x86_64-w64-mingw32/8.1.0/../../../../x86_64-w64-mingw32/lib/../lib/libmingwex.a(lib64_libmingwex_a-misc.o)
                                                  c:/ProgramFiles/mingw-w64-x86_64-8.1.0-posix-seh-rt_v6-rev0/mingw64/bin/../lib/gcc/x86_64-w64-mingw32/8.1.0/../../../../x86_64-w64-mingw32/lib/../lib/libmingw32.a(lib64_libmingw32_a-tlsthrd.o)
__imp_LeaveCriticalSection                        c:/ProgramFiles/mingw-w64-x86_64-8.1.0-posix-seh-rt_v6-rev0/mingw64/bin/../lib/gcc/x86_64-w64-mingw32/8.1.0/../../../../x86_64-w64-mingw32/lib/../lib/libkernel32.a(dqifs00951.o)
                                                  c:/ProgramFiles/mingw-w64-x86_64-8.1.0-posix-seh-rt_v6-rev0/mingw64/bin/../lib/gcc/x86_64-w64-mingw32/8.1.0/../../../../x86_64-w64-mingw32/lib/../lib/libmingwex.a(lib64_libmingwex_a-misc.o)
                                                  c:/ProgramFiles/mingw-w64-x86_64-8.1.0-posix-seh-rt_v6-rev0/mingw64/bin/../lib/gcc/x86_64-w64-mingw32/8.1.0/../../../../x86_64-w64-mingw32/lib/../lib/libmingw32.a(lib64_libmingw32_a-tlsthrd.o)
__imp_MessageBoxW                                 c:/ProgramFiles/mingw-w64-x86_64-8.1.0-posix-seh-rt_v6-rev0/mingw64/bin/../lib/gcc/x86_64-w64-mingw32/8.1.0/../../../../x86_64-w64-mingw32/lib/../lib/libuser32.a(dyqes00619.o)
                                                  c:/ProgramFiles/mingw-w64-x86_64-8.1.0-posix-seh-rt_v6-rev0/mingw64/bin/../lib/gcc/x86_64-w64-mingw32/8.1.0/../../../../x86_64-w64-mingw32/lib/../lib/libmingwex.a(lib64_libmingwex_a-wassert.o)
__imp_QueryPerformanceCounter                     c:/ProgramFiles/mingw-w64-x86_64-8.1.0-posix-seh-rt_v6-rev0/mingw64/bin/../lib/gcc/x86_64-w64-mingw32/8.1.0/../../../../x86_64-w64-mingw32/lib/../lib/libkernel32.a(dqifs01093.o)
                                                  c:/ProgramFiles/mingw-w64-x86_64-8.1.0-posix-seh-rt_v6-rev0/mingw64/bin/../lib/gcc/x86_64-w64-mingw32/8.1.0/../../../../x86_64-w64-mingw32/lib/../lib/libmingw32.a(lib64_libmingw32_a-gs_support.o)
__imp_RtlAddFunctionTable                         c:/ProgramFiles/mingw-w64-x86_64-8.1.0-posix-seh-rt_v6-rev0/mingw64/bin/../lib/gcc/x86_64-w64-mingw32/8.1.0/../../../../x86_64-w64-mingw32/lib/../lib/libkernel32.a(dqifs01179.o)
                                                  c:/ProgramFiles/mingw-w64-x86_64-8.1.0-posix-seh-rt_v6-rev0/mingw64/bin/../lib/gcc/x86_64-w64-mingw32/8.1.0/../../../../x86_64-w64-mingw32/lib/../lib/libmingw32.a(lib64_libmingw32_a-crt_handler.o)
__imp_RtlCaptureContext                           c:/ProgramFiles/mingw-w64-x86_64-8.1.0-posix-seh-rt_v6-rev0/mingw64/bin/../lib/gcc/x86_64-w64-mingw32/8.1.0/../../../../x86_64-w64-mingw32/lib/../lib/libkernel32.a(dqifs01180.o)
                                                  c:/ProgramFiles/mingw-w64-x86_64-8.1.0-posix-seh-rt_v6-rev0/mingw64/bin/../lib/gcc/x86_64-w64-mingw32/8.1.0/../../../../x86_64-w64-mingw32/lib/../lib/libmingw32.a(lib64_libmingw32_a-gs_support.o)
__imp_RtlLookupFunctionEntry                      c:/ProgramFiles/mingw-w64-x86_64-8.1.0-posix-seh-rt_v6-rev0/mingw64/bin/../lib/gcc/x86_64-w64-mingw32/8.1.0/../../../../x86_64-w64-mingw32/lib/../lib/libkernel32.a(dqifs01187.o)
                                                  c:/ProgramFiles/mingw-w64-x86_64-8.1.0-posix-seh-rt_v6-rev0/mingw64/bin/../lib/gcc/x86_64-w64-mingw32/8.1.0/../../../../x86_64-w64-mingw32/lib/../lib/libmingw32.a(lib64_libmingw32_a-gs_support.o)
__imp_RtlVirtualUnwind                            c:/ProgramFiles/mingw-w64-x86_64-8.1.0-posix-seh-rt_v6-rev0/mingw64/bin/../lib/gcc/x86_64-w64-mingw32/8.1.0/../../../../x86_64-w64-mingw32/lib/../lib/libkernel32.a(dqifs01194.o)
                                                  c:/ProgramFiles/mingw-w64-x86_64-8.1.0-posix-seh-rt_v6-rev0/mingw64/bin/../lib/gcc/x86_64-w64-mingw32/8.1.0/../../../../x86_64-w64-mingw32/lib/../lib/libmingw32.a(lib64_libmingw32_a-gs_support.o)
__imp_SetUnhandledExceptionFilter                 c:/ProgramFiles/mingw-w64-x86_64-8.1.0-posix-seh-rt_v6-rev0/mingw64/bin/../lib/gcc/x86_64-w64-mingw32/8.1.0/../../../../x86_64-w64-mingw32/lib/../lib/libkernel32.a(dqifs01346.o)
                                                  c:/ProgramFiles/mingw-w64-x86_64-8.1.0-posix-seh-rt_v6-rev0/mingw64/bin/../lib/gcc/x86_64-w64-mingw32/8.1.0/../../../../x86_64-w64-mingw32/lib/../lib/libmingw32.a(lib64_libmingw32_a-gs_support.o)
                                                  c:/ProgramFiles/mingw-w64-x86_64-8.1.0-posix-seh-rt_v6-rev0/mingw64/bin/../lib/gcc/x86_64-w64-mingw32/8.1.0/../../../../x86_64-w64-mingw32/lib/../lib/crt2.o
__imp_Sleep                                       c:/ProgramFiles/mingw-w64-x86_64-8.1.0-posix-seh-rt_v6-rev0/mingw64/bin/../lib/gcc/x86_64-w64-mingw32/8.1.0/../../../../x86_64-w64-mingw32/lib/../lib/libkernel32.a(dqifs01360.o)
                                                  c:/ProgramFiles/mingw-w64-x86_64-8.1.0-posix-seh-rt_v6-rev0/mingw64/bin/../lib/gcc/x86_64-w64-mingw32/8.1.0/../../../../x86_64-w64-mingw32/lib/../lib/libmingwex.a(lib64_libmingwex_a-misc.o)
                                                  c:/ProgramFiles/mingw-w64-x86_64-8.1.0-posix-seh-rt_v6-rev0/mingw64/bin/../lib/gcc/x86_64-w64-mingw32/8.1.0/../../../../x86_64-w64-mingw32/lib/../lib/crt2.o
__imp_TerminateProcess                            c:/ProgramFiles/mingw-w64-x86_64-8.1.0-posix-seh-rt_v6-rev0/mingw64/bin/../lib/gcc/x86_64-w64-mingw32/8.1.0/../../../../x86_64-w64-mingw32/lib/../lib/libkernel32.a(dqifs01375.o)
                                                  c:/ProgramFiles/mingw-w64-x86_64-8.1.0-posix-seh-rt_v6-rev0/mingw64/bin/../lib/gcc/x86_64-w64-mingw32/8.1.0/../../../../x86_64-w64-mingw32/lib/../lib/libmingw32.a(lib64_libmingw32_a-gs_support.o)
__imp_TlsGetValue                                 c:/ProgramFiles/mingw-w64-x86_64-8.1.0-posix-seh-rt_v6-rev0/mingw64/bin/../lib/gcc/x86_64-w64-mingw32/8.1.0/../../../../x86_64-w64-mingw32/lib/../lib/libkernel32.a(dqifs01395.o)
                                                  c:/ProgramFiles/mingw-w64-x86_64-8.1.0-posix-seh-rt_v6-rev0/mingw64/bin/../lib/gcc/x86_64-w64-mingw32/8.1.0/../../../../x86_64-w64-mingw32/lib/../lib/libmingw32.a(lib64_libmingw32_a-tlsthrd.o)
__imp_UnhandledExceptionFilter                    c:/ProgramFiles/mingw-w64-x86_64-8.1.0-posix-seh-rt_v6-rev0/mingw64/bin/../lib/gcc/x86_64-w64-mingw32/8.1.0/../../../../x86_64-w64-mingw32/lib/../lib/libkernel32.a(dqifs01409.o)
                                                  c:/ProgramFiles/mingw-w64-x86_64-8.1.0-posix-seh-rt_v6-rev0/mingw64/bin/../lib/gcc/x86_64-w64-mingw32/8.1.0/../../../../x86_64-w64-mingw32/lib/../lib/libmingw32.a(lib64_libmingw32_a-gs_support.o)
__imp_VirtualProtect                              c:/ProgramFiles/mingw-w64-x86_64-8.1.0-posix-seh-rt_v6-rev0/mingw64/bin/../lib/gcc/x86_64-w64-mingw32/8.1.0/../../../../x86_64-w64-mingw32/lib/../lib/libkernel32.a(dqifs01443.o)
                                                  c:/ProgramFiles/mingw-w64-x86_64-8.1.0-posix-seh-rt_v6-rev0/mingw64/bin/../lib/gcc/x86_64-w64-mingw32/8.1.0/../../../../x86_64-w64-mingw32/lib/../lib/libmingw32.a(lib64_libmingw32_a-pseudo-reloc.o)
__imp_VirtualQuery                                c:/ProgramFiles/mingw-w64-x86_64-8.1.0-posix-seh-rt_v6-rev0/mingw64/bin/../lib/gcc/x86_64-w64-mingw32/8.1.0/../../../../x86_64-w64-mingw32/lib/../lib/libkernel32.a(dqifs01445.o)
                                                  c:/ProgramFiles/mingw-w64-x86_64-8.1.0-posix-seh-rt_v6-rev0/mingw64/bin/../lib/gcc/x86_64-w64-mingw32/8.1.0/../../../../x86_64-w64-mingw32/lib/../lib/libmingw32.a(lib64_libmingw32_a-pseudo-reloc.o)
__imp___C_specific_handler                        c:/ProgramFiles/mingw-w64-x86_64-8.1.0-posix-seh-rt_v6-rev0/mingw64/bin/../lib/gcc/x86_64-w64-mingw32/8.1.0/../../../../x86_64-w64-mingw32/lib/../lib/libmsvcrt.a(duags00055.o)
__imp___acrt_iob_func                             c:/ProgramFiles/mingw-w64-x86_64-8.1.0-posix-seh-rt_v6-rev0/mingw64/bin/../lib/gcc/x86_64-w64-mingw32/8.1.0/../../../../x86_64-w64-mingw32/lib/../lib/libmsvcrt.a(lib64_libmsvcrt_os_a-acrt_iob_func.o)
                                                  bin/win/DEBUG/obj/opt_getOpt.o
                                                  bin/win/DEBUG/obj/main.o
                                                  bin/win/DEBUG/obj/log_logger.o
                                                  bin/win/DEBUG/obj/fil_file.o
__imp___argv                                      c:/ProgramFiles/mingw-w64-x86_64-8.1.0-posix-seh-rt_v6-rev0/mingw64/bin/../lib/gcc/x86_64-w64-mingw32/8.1.0/../../../../x86_64-w64-mingw32/lib/../lib/libmsvcrt.a(duags00070.o)
                                                  c:/ProgramFiles/mingw-w64-x86_64-8.1.0-posix-seh-rt_v6-rev0/mingw64/bin/../lib/gcc/x86_64-w64-mingw32/8.1.0/../../../../x86_64-w64-mingw32/lib/../lib/libmsvcrt.a(lib64_libmsvcrt_os_a-__p___argv.o)
__imp___getmainargs                               c:/ProgramFiles/mingw-w64-x86_64-8.1.0-posix-seh-rt_v6-rev0/mingw64/bin/../lib/gcc/x86_64-w64-mingw32/8.1.0/../../../../x86_64-w64-mingw32/lib/../lib/libmsvcrt.a(duags00081.o)
__imp___initenv                                   c:/ProgramFiles/mingw-w64-x86_64-8.1.0-posix-seh-rt_v6-rev0/mingw64/bin/../lib/gcc/x86_64-w64-mingw32/8.1.0/../../../../x86_64-w64-mingw32/lib/../lib/libmsvcrt.a(duags00082.o)
                                                  c:/ProgramFiles/mingw-w64-x86_64-8.1.0-posix-seh-rt_v6-rev0/mingw64/bin/../lib/gcc/x86_64-w64-mingw32/8.1.0/../../../../x86_64-w64-mingw32/lib/../lib/crt2.o
__imp___iob_func                                  c:/ProgramFiles/mingw-w64-x86_64-8.1.0-posix-seh-rt_v6-rev0/mingw64/bin/../lib/gcc/x86_64-w64-mingw32/8.1.0/../../../../x86_64-w64-mingw32/lib/../lib/libmsvcrt.a(duags00083.o)
__imp___lconv_init                                c:/ProgramFiles/mingw-w64-x86_64-8.1.0-posix-seh-rt_v6-rev0/mingw64/bin/../lib/gcc/x86_64-w64-mingw32/8.1.0/../../../../x86_64-w64-mingw32/lib/../lib/libmsvcrt.a(duags00090.o)
                                                  c:/ProgramFiles/mingw-w64-x86_64-8.1.0-posix-seh-rt_v6-rev0/mingw64/bin/../lib/gcc/x86_64-w64-mingw32/8.1.0/../../../../x86_64-w64-mingw32/lib/../lib/libmingw32.a(lib64_libmingw32_a-charmax.o)
__imp___p___argv                                  c:/ProgramFiles/mingw-w64-x86_64-8.1.0-posix-seh-rt_v6-rev0/mingw64/bin/../lib/gcc/x86_64-w64-mingw32/8.1.0/../../../../x86_64-w64-mingw32/lib/../lib/libmsvcrt.a(lib64_libmsvcrt_os_a-__p___argv.o)
__imp___p__acmdln                                 c:/ProgramFiles/mingw-w64-x86_64-8.1.0-posix-seh-rt_v6-rev0/mingw64/bin/../lib/gcc/x86_64-w64-mingw32/8.1.0/../../../../x86_64-w64-mingw32/lib/../lib/libmsvcrt.a(lib64_libmsvcrt_os_a-__p__acmdln.o)
__imp___p__fmode                                  c:/ProgramFiles/mingw-w64-x86_64-8.1.0-posix-seh-rt_v6-rev0/mingw64/bin/../lib/gcc/x86_64-w64-mingw32/8.1.0/../../../../x86_64-w64-mingw32/lib/../lib/libmsvcrt.a(lib64_libmsvcrt_os_a-__p__fmode.o)
__imp___set_app_type                              c:/ProgramFiles/mingw-w64-x86_64-8.1.0-posix-seh-rt_v6-rev0/mingw64/bin/../lib/gcc/x86_64-w64-mingw32/8.1.0/../../../../x86_64-w64-mingw32/lib/../lib/libmsvcrt.a(duags00096.o)
__imp___setusermatherr                            c:/ProgramFiles/mingw-w64-x86_64-8.1.0-posix-seh-rt_v6-rev0/mingw64/bin/../lib/gcc/x86_64-w64-mingw32/8.1.0/../../../../x86_64-w64-mingw32/lib/../lib/libmsvcrt.a(duags00098.o)
__imp__acmdln                                     c:/ProgramFiles/mingw-w64-x86_64-8.1.0-posix-seh-rt_v6-rev0/mingw64/bin/../lib/gcc/x86_64-w64-mingw32/8.1.0/../../../../x86_64-w64-mingw32/lib/../lib/libmsvcrt.a(duags00115.o)
                                                  c:/ProgramFiles/mingw-w64-x86_64-8.1.0-posix-seh-rt_v6-rev0/mingw64/bin/../lib/gcc/x86_64-w64-mingw32/8.1.0/../../../../x86_64-w64-mingw32/lib/../lib/libmsvcrt.a(lib64_libmsvcrt_os_a-__p__acmdln.o)
__imp__amsg_exit                                  c:/ProgramFiles/mingw-w64-x86_64-8.1.0-posix-seh-rt_v6-rev0/mingw64/bin/../lib/gcc/x86_64-w64-mingw32/8.1.0/../../../../x86_64-w64-mingw32/lib/../lib/libmsvcrt.a(duags00122.o)
__imp__cexit                                      c:/ProgramFiles/mingw-w64-x86_64-8.1.0-posix-seh-rt_v6-rev0/mingw64/bin/../lib/gcc/x86_64-w64-mingw32/8.1.0/../../../../x86_64-w64-mingw32/lib/../lib/libmsvcrt.a(duags00141.o)
__imp__errno                                      c:/ProgramFiles/mingw-w64-x86_64-8.1.0-posix-seh-rt_v6-rev0/mingw64/bin/../lib/gcc/x86_64-w64-mingw32/8.1.0/../../../../x86_64-w64-mingw32/lib/../lib/libmsvcrt.a(duags00203.o)
__imp__exit                                       c:/ProgramFiles/mingw-w64-x86_64-8.1.0-posix-seh-rt_v6-rev0/mingw64/bin/../lib/gcc/x86_64-w64-mingw32/8.1.0/../../../../x86_64-w64-mingw32/lib/../lib/libmsvcrt.a(duags00218.o)
__imp__findclose                                  c:/ProgramFiles/mingw-w64-x86_64-8.1.0-posix-seh-rt_v6-rev0/mingw64/bin/../lib/gcc/x86_64-w64-mingw32/8.1.0/../../../../x86_64-w64-mingw32/lib/../lib/libmsvcrt.a(duags00237.o)
__imp__findfirst64                                c:/ProgramFiles/mingw-w64-x86_64-8.1.0-posix-seh-rt_v6-rev0/mingw64/bin/../lib/gcc/x86_64-w64-mingw32/8.1.0/../../../../x86_64-w64-mingw32/lib/../lib/libmsvcrt.a(duags00240.o)
__imp__findnext64                                 c:/ProgramFiles/mingw-w64-x86_64-8.1.0-posix-seh-rt_v6-rev0/mingw64/bin/../lib/gcc/x86_64-w64-mingw32/8.1.0/../../../../x86_64-w64-mingw32/lib/../lib/libmsvcrt.a(duags00245.o)
__imp__fmode                                      c:/ProgramFiles/mingw-w64-x86_64-8.1.0-posix-seh-rt_v6-rev0/mingw64/bin/../lib/gcc/x86_64-w64-mingw32/8.1.0/../../../../x86_64-w64-mingw32/lib/../lib/libmsvcrt.a(duags00253.o)
                                                  c:/ProgramFiles/mingw-w64-x86_64-8.1.0-posix-seh-rt_v6-rev0/mingw64/bin/../lib/gcc/x86_64-w64-mingw32/8.1.0/../../../../x86_64-w64-mingw32/lib/../lib/libmsvcrt.a(lib64_libmsvcrt_os_a-__p__fmode.o)
__imp__fullpath                                   c:/ProgramFiles/mingw-w64-x86_64-8.1.0-posix-seh-rt_v6-rev0/mingw64/bin/../lib/gcc/x86_64-w64-mingw32/8.1.0/../../../../x86_64-w64-mingw32/lib/../lib/libmsvcrt.a(duags00278.o)
__imp__get_invalid_parameter_handler              c:/ProgramFiles/mingw-w64-x86_64-8.1.0-posix-seh-rt_v6-rev0/mingw64/bin/../lib/gcc/x86_64-w64-mingw32/8.1.0/../../../../x86_64-w64-mingw32/lib/../lib/libmsvcrt.a(lib64_libmsvcrt_os_a-invalid_parameter_handler.o)
__imp__initterm                                   c:/ProgramFiles/mingw-w64-x86_64-8.1.0-posix-seh-rt_v6-rev0/mingw64/bin/../lib/gcc/x86_64-w64-mingw32/8.1.0/../../../../x86_64-w64-mingw32/lib/../lib/libmsvcrt.a(duags00332.o)
__imp__onexit                                     c:/ProgramFiles/mingw-w64-x86_64-8.1.0-posix-seh-rt_v6-rev0/mingw64/bin/../lib/gcc/x86_64-w64-mingw32/8.1.0/../../../../x86_64-w64-mingw32/lib/../lib/libmsvcrt.a(duags00614.o)
__imp__set_invalid_parameter_handler              c:/ProgramFiles/mingw-w64-x86_64-8.1.0-posix-seh-rt_v6-rev0/mingw64/bin/../lib/gcc/x86_64-w64-mingw32/8.1.0/../../../../x86_64-w64-mingw32/lib/../lib/libmsvcrt.a(lib64_libmsvcrt_os_a-invalid_parameter_handler.o)
__imp__snwprintf                                  c:/ProgramFiles/mingw-w64-x86_64-8.1.0-posix-seh-rt_v6-rev0/mingw64/bin/../lib/gcc/x86_64-w64-mingw32/8.1.0/../../../../x86_64-w64-mingw32/lib/../lib/libmsvcrt.a(duags00689.o)
__imp__vsnprintf                                  c:/ProgramFiles/mingw-w64-x86_64-8.1.0-posix-seh-rt_v6-rev0/mingw64/bin/../lib/gcc/x86_64-w64-mingw32/8.1.0/../../../../x86_64-w64-mingw32/lib/../lib/libmsvcrt.a(duags00852.o)
__imp_abort                                       c:/ProgramFiles/mingw-w64-x86_64-8.1.0-posix-seh-rt_v6-rev0/mingw64/bin/../lib/gcc/x86_64-w64-mingw32/8.1.0/../../../../x86_64-w64-mingw32/lib/../lib/libmsvcrt.a(duags01032.o)
__imp_bsearch                                     c:/ProgramFiles/mingw-w64-x86_64-8.1.0-posix-seh-rt_v6-rev0/mingw64/bin/../lib/gcc/x86_64-w64-mingw32/8.1.0/../../../../x86_64-w64-mingw32/lib/../lib/libmsvcrt.a(duags01048.o)
__imp_calloc                                      c:/ProgramFiles/mingw-w64-x86_64-8.1.0-posix-seh-rt_v6-rev0/mingw64/bin/../lib/gcc/x86_64-w64-mingw32/8.1.0/../../../../x86_64-w64-mingw32/lib/../lib/libmsvcrt.a(duags01050.o)
__imp_clock                                       c:/ProgramFiles/mingw-w64-x86_64-8.1.0-posix-seh-rt_v6-rev0/mingw64/bin/../lib/gcc/x86_64-w64-mingw32/8.1.0/../../../../x86_64-w64-mingw32/lib/../lib/libmsvcrt.a(duags01055.o)
__imp_ctime                                       c:/ProgramFiles/mingw-w64-x86_64-8.1.0-posix-seh-rt_v6-rev0/mingw64/bin/../lib/gcc/x86_64-w64-mingw32/8.1.0/../../../../x86_64-w64-mingw32/lib/../lib/libmsvcrt.a(duags01060.o)
__imp_exit                                        c:/ProgramFiles/mingw-w64-x86_64-8.1.0-posix-seh-rt_v6-rev0/mingw64/bin/../lib/gcc/x86_64-w64-mingw32/8.1.0/../../../../x86_64-w64-mingw32/lib/../lib/libmsvcrt.a(duags01063.o)
__imp_fclose                                      c:/ProgramFiles/mingw-w64-x86_64-8.1.0-posix-seh-rt_v6-rev0/mingw64/bin/../lib/gcc/x86_64-w64-mingw32/8.1.0/../../../../x86_64-w64-mingw32/lib/../lib/libmsvcrt.a(duags01067.o)
__imp_ferror                                      c:/ProgramFiles/mingw-w64-x86_64-8.1.0-posix-seh-rt_v6-rev0/mingw64/bin/../lib/gcc/x86_64-w64-mingw32/8.1.0/../../../../x86_64-w64-mingw32/lib/../lib/libmsvcrt.a(duags01069.o)
__imp_fflush                                      c:/ProgramFiles/mingw-w64-x86_64-8.1.0-posix-seh-rt_v6-rev0/mingw64/bin/../lib/gcc/x86_64-w64-mingw32/8.1.0/../../../../x86_64-w64-mingw32/lib/../lib/libmsvcrt.a(duags01070.o)
__imp_fgetc                                       c:/ProgramFiles/mingw-w64-x86_64-8.1.0-posix-seh-rt_v6-rev0/mingw64/bin/../lib/gcc/x86_64-w64-mingw32/8.1.0/../../../../x86_64-w64-mingw32/lib/../lib/libmsvcrt.a(duags01071.o)
__imp_fopen                                       c:/ProgramFiles/mingw-w64-x86_64-8.1.0-posix-seh-rt_v6-rev0/mingw64/bin/../lib/gcc/x86_64-w64-mingw32/8.1.0/../../../../x86_64-w64-mingw32/lib/../lib/libmsvcrt.a(duags01080.o)
__imp_fprintf                                     c:/ProgramFiles/mingw-w64-x86_64-8.1.0-posix-seh-rt_v6-rev0/mingw64/bin/../lib/gcc/x86_64-w64-mingw32/8.1.0/../../../../x86_64-w64-mingw32/lib/../lib/libmsvcrt.a(duags01082.o)
__imp_fputc                                       c:/ProgramFiles/mingw-w64-x86_64-8.1.0-posix-seh-rt_v6-rev0/mingw64/bin/../lib/gcc/x86_64-w64-mingw32/8.1.0/../../../../x86_64-w64-mingw32/lib/../lib/libmsvcrt.a(duags01084.o)
__imp_fputs                                       c:/ProgramFiles/mingw-w64-x86_64-8.1.0-posix-seh-rt_v6-rev0/mingw64/bin/../lib/gcc/x86_64-w64-mingw32/8.1.0/../../../../x86_64-w64-mingw32/lib/../lib/libmsvcrt.a(duags01085.o)
__imp_free                                        c:/ProgramFiles/mingw-w64-x86_64-8.1.0-posix-seh-rt_v6-rev0/mingw64/bin/../lib/gcc/x86_64-w64-mingw32/8.1.0/../../../../x86_64-w64-mingw32/lib/../lib/libmsvcrt.a(duags01089.o)
__imp_fwprintf                                    c:/ProgramFiles/mingw-w64-x86_64-8.1.0-posix-seh-rt_v6-rev0/mingw64/bin/../lib/gcc/x86_64-w64-mingw32/8.1.0/../../../../x86_64-w64-mingw32/lib/../lib/libmsvcrt.a(duags01099.o)
__imp_fwrite                                      c:/ProgramFiles/mingw-w64-x86_64-8.1.0-posix-seh-rt_v6-rev0/mingw64/bin/../lib/gcc/x86_64-w64-mingw32/8.1.0/../../../../x86_64-w64-mingw32/lib/../lib/libmsvcrt.a(duags01101.o)
__imp_getenv                                      c:/ProgramFiles/mingw-w64-x86_64-8.1.0-posix-seh-rt_v6-rev0/mingw64/bin/../lib/gcc/x86_64-w64-mingw32/8.1.0/../../../../x86_64-w64-mingw32/lib/../lib/libmsvcrt.a(duags01106.o)
__imp_isprint                                     c:/ProgramFiles/mingw-w64-x86_64-8.1.0-posix-seh-rt_v6-rev0/mingw64/bin/../lib/gcc/x86_64-w64-mingw32/8.1.0/../../../../x86_64-w64-mingw32/lib/../lib/libmsvcrt.a(duags01120.o)
                                                  bin/win/DEBUG/obj/opt_getOpt.o
__imp_localeconv                                  c:/ProgramFiles/mingw-w64-x86_64-8.1.0-posix-seh-rt_v6-rev0/mingw64/bin/../lib/gcc/x86_64-w64-mingw32/8.1.0/../../../../x86_64-w64-mingw32/lib/../lib/libmsvcrt.a(duags01142.o)
__imp_malloc                                      c:/ProgramFiles/mingw-w64-x86_64-8.1.0-posix-seh-rt_v6-rev0/mingw64/bin/../lib/gcc/x86_64-w64-mingw32/8.1.0/../../../../x86_64-w64-mingw32/lib/../lib/libmsvcrt.a(duags01149.o)
__imp_memcmp                                      c:/ProgramFiles/mingw-w64-x86_64-8.1.0-posix-seh-rt_v6-rev0/mingw64/bin/../lib/gcc/x86_64-w64-mingw32/8.1.0/../../../../x86_64-w64-mingw32/lib/../lib/libmsvcrt.a(duags01156.o)
__imp_memcpy                                      c:/ProgramFiles/mingw-w64-x86_64-8.1.0-posix-seh-rt_v6-rev0/mingw64/bin/../lib/gcc/x86_64-w64-mingw32/8.1.0/../../../../x86_64-w64-mingw32/lib/../lib/libmsvcrt.a(duags01157.o)
__imp_memset                                      c:/ProgramFiles/mingw-w64-x86_64-8.1.0-posix-seh-rt_v6-rev0/mingw64/bin/../lib/gcc/x86_64-w64-mingw32/8.1.0/../../../../x86_64-w64-mingw32/lib/../lib/libmsvcrt.a(duags01159.o)
__imp_mkdir                                       c:/ProgramFiles/mingw-w64-x86_64-8.1.0-posix-seh-rt_v6-rev0/mingw64/bin/../lib/gcc/x86_64-w64-mingw32/8.1.0/../../../../x86_64-w64-mingw32/lib/../lib/libmsvcrt.a(duags00603.o)
__imp_puts                                        c:/ProgramFiles/mingw-w64-x86_64-8.1.0-posix-seh-rt_v6-rev0/mingw64/bin/../lib/gcc/x86_64-w64-mingw32/8.1.0/../../../../x86_64-w64-mingw32/lib/../lib/libmsvcrt.a(duags01170.o)
__imp_raise                                       c:/ProgramFiles/mingw-w64-x86_64-8.1.0-posix-seh-rt_v6-rev0/mingw64/bin/../lib/gcc/x86_64-w64-mingw32/8.1.0/../../../../x86_64-w64-mingw32/lib/../lib/libmsvcrt.a(duags01175.o)
__imp_rand                                        c:/ProgramFiles/mingw-w64-x86_64-8.1.0-posix-seh-rt_v6-rev0/mingw64/bin/../lib/gcc/x86_64-w64-mingw32/8.1.0/../../../../x86_64-w64-mingw32/lib/../lib/libmsvcrt.a(duags01176.o)
__imp_signal                                      c:/ProgramFiles/mingw-w64-x86_64-8.1.0-posix-seh-rt_v6-rev0/mingw64/bin/../lib/gcc/x86_64-w64-mingw32/8.1.0/../../../../x86_64-w64-mingw32/lib/../lib/libmsvcrt.a(duags01187.o)
__imp_strchr                                      c:/ProgramFiles/mingw-w64-x86_64-8.1.0-posix-seh-rt_v6-rev0/mingw64/bin/../lib/gcc/x86_64-w64-mingw32/8.1.0/../../../../x86_64-w64-mingw32/lib/../lib/libmsvcrt.a(duags01200.o)
__imp_strcmp                                      c:/ProgramFiles/mingw-w64-x86_64-8.1.0-posix-seh-rt_v6-rev0/mingw64/bin/../lib/gcc/x86_64-w64-mingw32/8.1.0/../../../../x86_64-w64-mingw32/lib/../lib/libmsvcrt.a(duags01201.o)
__imp_strcpy                                      c:/ProgramFiles/mingw-w64-x86_64-8.1.0-posix-seh-rt_v6-rev0/mingw64/bin/../lib/gcc/x86_64-w64-mingw32/8.1.0/../../../../x86_64-w64-mingw32/lib/../lib/libmsvcrt.a(duags01203.o)
__imp_stricmp                                     c:/ProgramFiles/mingw-w64-x86_64-8.1.0-posix-seh-rt_v6-rev0/mingw64/bin/../lib/gcc/x86_64-w64-mingw32/8.1.0/../../../../x86_64-w64-mingw32/lib/../lib/libmsvcrt.a(duags00735.o)
__imp_strlen                                      c:/ProgramFiles/mingw-w64-x86_64-8.1.0-posix-seh-rt_v6-rev0/mingw64/bin/../lib/gcc/x86_64-w64-mingw32/8.1.0/../../../../x86_64-w64-mingw32/lib/../lib/libmsvcrt.a(duags01208.o)
__imp_strncat                                     c:/ProgramFiles/mingw-w64-x86_64-8.1.0-posix-seh-rt_v6-rev0/mingw64/bin/../lib/gcc/x86_64-w64-mingw32/8.1.0/../../../../x86_64-w64-mingw32/lib/../lib/libmsvcrt.a(duags01209.o)
__imp_strncmp                                     c:/ProgramFiles/mingw-w64-x86_64-8.1.0-posix-seh-rt_v6-rev0/mingw64/bin/../lib/gcc/x86_64-w64-mingw32/8.1.0/../../../../x86_64-w64-mingw32/lib/../lib/libmsvcrt.a(duags01211.o)
__imp_strncpy                                     c:/ProgramFiles/mingw-w64-x86_64-8.1.0-posix-seh-rt_v6-rev0/mingw64/bin/../lib/gcc/x86_64-w64-mingw32/8.1.0/../../../../x86_64-w64-mingw32/lib/../lib/libmsvcrt.a(duags01212.o)
__imp_strpbrk                                     c:/ProgramFiles/mingw-w64-x86_64-8.1.0-posix-seh-rt_v6-rev0/mingw64/bin/../lib/gcc/x86_64-w64-mingw32/8.1.0/../../../../x86_64-w64-mingw32/lib/../lib/libmsvcrt.a(duags01214.o)
__imp_time                                        c:/ProgramFiles/mingw-w64-x86_64-8.1.0-posix-seh-rt_v6-rev0/mingw64/bin/../lib/gcc/x86_64-w64-mingw32/8.1.0/../../../../x86_64-w64-mingw32/lib/../lib/libmsvcrt.a(duags00973.o)
__imp_vfprintf                                    c:/ProgramFiles/mingw-w64-x86_64-8.1.0-posix-seh-rt_v6-rev0/mingw64/bin/../lib/gcc/x86_64-w64-mingw32/8.1.0/../../../../x86_64-w64-mingw32/lib/../lib/libmsvcrt.a(duags01243.o)
__imp_wcscpy                                      c:/ProgramFiles/mingw-w64-x86_64-8.1.0-posix-seh-rt_v6-rev0/mingw64/bin/../lib/gcc/x86_64-w64-mingw32/8.1.0/../../../../x86_64-w64-mingw32/lib/../lib/libmsvcrt.a(duags01260.o)
__increment_D2A                                   c:/ProgramFiles/mingw-w64-x86_64-8.1.0-posix-seh-rt_v6-rev0/mingw64/bin/../lib/gcc/x86_64-w64-mingw32/8.1.0/../../../../x86_64-w64-mingw32/lib/../lib/libmingwex.a(lib64_libmingwex_a-strtodg.o)
                                                  c:/ProgramFiles/mingw-w64-x86_64-8.1.0-posix-seh-rt_v6-rev0/mingw64/bin/../lib/gcc/x86_64-w64-mingw32/8.1.0/../../../../x86_64-w64-mingw32/lib/../lib/libmingwex.a(lib64_libmingwex_a-gethex.o)
__iob_func                                        c:/ProgramFiles/mingw-w64-x86_64-8.1.0-posix-seh-rt_v6-rev0/mingw64/bin/../lib/gcc/x86_64-w64-mingw32/8.1.0/../../../../x86_64-w64-mingw32/lib/../lib/libmsvcrt.a(duags00083.o)
                                                  c:/ProgramFiles/mingw-w64-x86_64-8.1.0-posix-seh-rt_v6-rev0/mingw64/bin/../lib/gcc/x86_64-w64-mingw32/8.1.0/../../../../x86_64-w64-mingw32/lib/../lib/libmsvcrt.a(lib64_libmsvcrt_os_a-acrt_iob_func.o)
__lconv_init                                      c:/ProgramFiles/mingw-w64-x86_64-8.1.0-posix-seh-rt_v6-rev0/mingw64/bin/../lib/gcc/x86_64-w64-mingw32/8.1.0/../../../../x86_64-w64-mingw32/lib/../lib/libmsvcrt.a(duags00090.o)
__lib64_libkernel32_a_iname                       c:/ProgramFiles/mingw-w64-x86_64-8.1.0-posix-seh-rt_v6-rev0/mingw64/bin/../lib/gcc/x86_64-w64-mingw32/8.1.0/../../../../x86_64-w64-mingw32/lib/../lib/libkernel32.a(dqift.o)
                                                  c:/ProgramFiles/mingw-w64-x86_64-8.1.0-posix-seh-rt_v6-rev0/mingw64/bin/../lib/gcc/x86_64-w64-mingw32/8.1.0/../../../../x86_64-w64-mingw32/lib/../lib/libkernel32.a(dqifh.o)
__lib64_libmsvcrt_os_a_iname                      c:/ProgramFiles/mingw-w64-x86_64-8.1.0-posix-seh-rt_v6-rev0/mingw64/bin/../lib/gcc/x86_64-w64-mingw32/8.1.0/../../../../x86_64-w64-mingw32/lib/../lib/libmsvcrt.a(duagt.o)
                                                  c:/ProgramFiles/mingw-w64-x86_64-8.1.0-posix-seh-rt_v6-rev0/mingw64/bin/../lib/gcc/x86_64-w64-mingw32/8.1.0/../../../../x86_64-w64-mingw32/lib/../lib/libmsvcrt.a(duagh.o)
__lib64_libuser32_a_iname                         c:/ProgramFiles/mingw-w64-x86_64-8.1.0-posix-seh-rt_v6-rev0/mingw64/bin/../lib/gcc/x86_64-w64-mingw32/8.1.0/../../../../x86_64-w64-mingw32/lib/../lib/libuser32.a(dyqet.o)
                                                  c:/ProgramFiles/mingw-w64-x86_64-8.1.0-posix-seh-rt_v6-rev0/mingw64/bin/../lib/gcc/x86_64-w64-mingw32/8.1.0/../../../../x86_64-w64-mingw32/lib/../lib/libuser32.a(dyqeh.o)
__lshift_D2A                                      c:/ProgramFiles/mingw-w64-x86_64-8.1.0-posix-seh-rt_v6-rev0/mingw64/bin/../lib/gcc/x86_64-w64-mingw32/8.1.0/../../../../x86_64-w64-mingw32/lib/../lib/libmingwex.a(lib64_libmingwex_a-misc.o)
                                                  c:/ProgramFiles/mingw-w64-x86_64-8.1.0-posix-seh-rt_v6-rev0/mingw64/bin/../lib/gcc/x86_64-w64-mingw32/8.1.0/../../../../x86_64-w64-mingw32/lib/../lib/libmingwex.a(lib64_libmingwex_a-gethex.o)
                                                  c:/ProgramFiles/mingw-w64-x86_64-8.1.0-posix-seh-rt_v6-rev0/mingw64/bin/../lib/gcc/x86_64-w64-mingw32/8.1.0/../../../../x86_64-w64-mingw32/lib/../lib/libmingwex.a(lib64_libmingwex_a-strtodg.o)
__main                                            c:/ProgramFiles/mingw-w64-x86_64-8.1.0-posix-seh-rt_v6-rev0/mingw64/bin/../lib/gcc/x86_64-w64-mingw32/8.1.0/../../../../x86_64-w64-mingw32/lib/../lib/libmingw32.a(lib64_libmingw32_a-gccmain.o)
                                                  bin/win/DEBUG/obj/main.o
                                                  c:/ProgramFiles/mingw-w64-x86_64-8.1.0-posix-seh-rt_v6-rev0/mingw64/bin/../lib/gcc/x86_64-w64-mingw32/8.1.0/../../../../x86_64-w64-mingw32/lib/../lib/crt2.o
__match_D2A                                       c:/ProgramFiles/mingw-w64-x86_64-8.1.0-posix-seh-rt_v6-rev0/mingw64/bin/../lib/gcc/x86_64-w64-mingw32/8.1.0/../../../../x86_64-w64-mingw32/lib/../lib/libmingwex.a(lib64_libmingwex_a-smisc.o)
                                                  c:/ProgramFiles/mingw-w64-x86_64-8.1.0-posix-seh-rt_v6-rev0/mingw64/bin/../lib/gcc/x86_64-w64-mingw32/8.1.0/../../../../x86_64-w64-mingw32/lib/../lib/libmingwex.a(lib64_libmingwex_a-strtodg.o)
__mingw_GetSectionCount                           c:/ProgramFiles/mingw-w64-x86_64-8.1.0-posix-seh-rt_v6-rev0/mingw64/bin/../lib/gcc/x86_64-w64-mingw32/8.1.0/../../../../x86_64-w64-mingw32/lib/../lib/libmingw32.a(lib64_libmingw32_a-pesect.o)
                                                  c:/ProgramFiles/mingw-w64-x86_64-8.1.0-posix-seh-rt_v6-rev0/mingw64/bin/../lib/gcc/x86_64-w64-mingw32/8.1.0/../../../../x86_64-w64-mingw32/lib/../lib/libmingw32.a(lib64_libmingw32_a-pseudo-reloc.o)
__mingw_GetSectionForAddress                      c:/ProgramFiles/mingw-w64-x86_64-8.1.0-posix-seh-rt_v6-rev0/mingw64/bin/../lib/gcc/x86_64-w64-mingw32/8.1.0/../../../../x86_64-w64-mingw32/lib/../lib/libmingw32.a(lib64_libmingw32_a-pesect.o)
                                                  c:/ProgramFiles/mingw-w64-x86_64-8.1.0-posix-seh-rt_v6-rev0/mingw64/bin/../lib/gcc/x86_64-w64-mingw32/8.1.0/../../../../x86_64-w64-mingw32/lib/../lib/libmingw32.a(lib64_libmingw32_a-pseudo-reloc.o)
__mingw_SEH_error_handler                         c:/ProgramFiles/mingw-w64-x86_64-8.1.0-posix-seh-rt_v6-rev0/mingw64/bin/../lib/gcc/x86_64-w64-mingw32/8.1.0/../../../../x86_64-w64-mingw32/lib/../lib/libmingw32.a(lib64_libmingw32_a-crt_handler.o)
__mingw_TLScallback                               c:/ProgramFiles/mingw-w64-x86_64-8.1.0-posix-seh-rt_v6-rev0/mingw64/bin/../lib/gcc/x86_64-w64-mingw32/8.1.0/../../../../x86_64-w64-mingw32/lib/../lib/libmingw32.a(lib64_libmingw32_a-tlsthrd.o)
                                                  c:/ProgramFiles/mingw-w64-x86_64-8.1.0-posix-seh-rt_v6-rev0/mingw64/bin/../lib/gcc/x86_64-w64-mingw32/8.1.0/../../../../x86_64-w64-mingw32/lib/../lib/libmingw32.a(lib64_libmingw32_a-tlssup.o)
__mingw_enum_import_library_names                 c:/ProgramFiles/mingw-w64-x86_64-8.1.0-posix-seh-rt_v6-rev0/mingw64/bin/../lib/gcc/x86_64-w64-mingw32/8.1.0/../../../../x86_64-w64-mingw32/lib/../lib/libmingw32.a(lib64_libmingw32_a-pesect.o)
__mingw_hexdig_init_D2A                           c:/ProgramFiles/mingw-w64-x86_64-8.1.0-posix-seh-rt_v6-rev0/mingw64/bin/../lib/gcc/x86_64-w64-mingw32/8.1.0/../../../../x86_64-w64-mingw32/lib/../lib/libmingwex.a(lib64_libmingwex_a-hd_init.o)
                                                  c:/ProgramFiles/mingw-w64-x86_64-8.1.0-posix-seh-rt_v6-rev0/mingw64/bin/../lib/gcc/x86_64-w64-mingw32/8.1.0/../../../../x86_64-w64-mingw32/lib/../lib/libmingwex.a(lib64_libmingwex_a-hexnan.o)
                                                  c:/ProgramFiles/mingw-w64-x86_64-8.1.0-posix-seh-rt_v6-rev0/mingw64/bin/../lib/gcc/x86_64-w64-mingw32/8.1.0/../../../../x86_64-w64-mingw32/lib/../lib/libmingwex.a(lib64_libmingwex_a-gethex.o)
__mingw_init_ehandler                             c:/ProgramFiles/mingw-w64-x86_64-8.1.0-posix-seh-rt_v6-rev0/mingw64/bin/../lib/gcc/x86_64-w64-mingw32/8.1.0/../../../../x86_64-w64-mingw32/lib/../lib/libmingw32.a(lib64_libmingw32_a-crt_handler.o)
                                                  c:/ProgramFiles/mingw-w64-x86_64-8.1.0-posix-seh-rt_v6-rev0/mingw64/bin/../lib/gcc/x86_64-w64-mingw32/8.1.0/../../../../x86_64-w64-mingw32/lib/../lib/crt2.o
__mingw_oldexcpt_handler                          c:/ProgramFiles/mingw-w64-x86_64-8.1.0-posix-seh-rt_v6-rev0/mingw64/bin/../lib/gcc/x86_64-w64-mingw32/8.1.0/../../../../x86_64-w64-mingw32/lib/../lib/libmingw32.a(lib64_libmingw32_a-crt_handler.o)
                                                  c:/ProgramFiles/mingw-w64-x86_64-8.1.0-posix-seh-rt_v6-rev0/mingw64/bin/../lib/gcc/x86_64-w64-mingw32/8.1.0/../../../../x86_64-w64-mingw32/lib/../lib/crt2.o
__mingw_optreset                                  c:/ProgramFiles/mingw-w64-x86_64-8.1.0-posix-seh-rt_v6-rev0/mingw64/bin/../lib/gcc/x86_64-w64-mingw32/8.1.0/../../../../x86_64-w64-mingw32/lib/../lib/libmingwex.a(lib64_libmingwex_a-getopt.o)
__mingw_pinit                                     c:/ProgramFiles/mingw-w64-x86_64-8.1.0-posix-seh-rt_v6-rev0/mingw64/bin/../lib/gcc/x86_64-w64-mingw32/8.1.0/../../../../x86_64-w64-mingw32/lib/../lib/libmingw32.a(lib64_libmingw32_a-charmax.o)
__mingw_raise_matherr                             c:/ProgramFiles/mingw-w64-x86_64-8.1.0-posix-seh-rt_v6-rev0/mingw64/bin/../lib/gcc/x86_64-w64-mingw32/8.1.0/../../../../x86_64-w64-mingw32/lib/../lib/libmingw32.a(lib64_libmingw32_a-merr.o)
__mingw_setusermatherr                            c:/ProgramFiles/mingw-w64-x86_64-8.1.0-posix-seh-rt_v6-rev0/mingw64/bin/../lib/gcc/x86_64-w64-mingw32/8.1.0/../../../../x86_64-w64-mingw32/lib/../lib/libmingw32.a(lib64_libmingw32_a-merr.o)
                                                  c:/ProgramFiles/mingw-w64-x86_64-8.1.0-posix-seh-rt_v6-rev0/mingw64/bin/../lib/gcc/x86_64-w64-mingw32/8.1.0/../../../../x86_64-w64-mingw32/lib/../lib/crt2.o
__mingw_strtod                                    c:/ProgramFiles/mingw-w64-x86_64-8.1.0-posix-seh-rt_v6-rev0/mingw64/bin/../lib/gcc/x86_64-w64-mingw32/8.1.0/../../../../x86_64-w64-mingw32/lib/../lib/libmingwex.a(lib64_libmingwex_a-strtodnrp.o)
__mingw_winmain_hInstance                         c:/ProgramFiles/mingw-w64-x86_64-8.1.0-posix-seh-rt_v6-rev0/mingw64/bin/../lib/gcc/x86_64-w64-mingw32/8.1.0/../../../../x86_64-w64-mingw32/lib/../lib/crt2.o
__mingw_winmain_lpCmdLine                         c:/ProgramFiles/mingw-w64-x86_64-8.1.0-posix-seh-rt_v6-rev0/mingw64/bin/../lib/gcc/x86_64-w64-mingw32/8.1.0/../../../../x86_64-w64-mingw32/lib/../lib/crt2.o
__mingw_winmain_nShowCmd                          c:/ProgramFiles/mingw-w64-x86_64-8.1.0-posix-seh-rt_v6-rev0/mingw64/bin/../lib/gcc/x86_64-w64-mingw32/8.1.0/../../../../x86_64-w64-mingw32/lib/../lib/crt2.o
__ms_vsnprintf                                    c:/ProgramFiles/mingw-w64-x86_64-8.1.0-posix-seh-rt_v6-rev0/mingw64/bin/../lib/gcc/x86_64-w64-mingw32/8.1.0/../../../../x86_64-w64-mingw32/lib/../lib/libmingwex.a(lib64_libmingwex_a-vsnprintf.o)
                                                  bin/win/DEBUG/obj/main.o
                                                  bin/win/DEBUG/obj/log_logger.o
                                                  bin/win/DEBUG/obj/fil_file.o
__mult_D2A                                        c:/ProgramFiles/mingw-w64-x86_64-8.1.0-posix-seh-rt_v6-rev0/mingw64/bin/../lib/gcc/x86_64-w64-mingw32/8.1.0/../../../../x86_64-w64-mingw32/lib/../lib/libmingwex.a(lib64_libmingwex_a-misc.o)
                                                  c:/ProgramFiles/mingw-w64-x86_64-8.1.0-posix-seh-rt_v6-rev0/mingw64/bin/../lib/gcc/x86_64-w64-mingw32/8.1.0/../../../../x86_64-w64-mingw32/lib/../lib/libmingwex.a(lib64_libmingwex_a-strtodg.o)
__multadd_D2A                                     c:/ProgramFiles/mingw-w64-x86_64-8.1.0-posix-seh-rt_v6-rev0/mingw64/bin/../lib/gcc/x86_64-w64-mingw32/8.1.0/../../../../x86_64-w64-mingw32/lib/../lib/libmingwex.a(lib64_libmingwex_a-misc.o)
                                                  c:/ProgramFiles/mingw-w64-x86_64-8.1.0-posix-seh-rt_v6-rev0/mingw64/bin/../lib/gcc/x86_64-w64-mingw32/8.1.0/../../../../x86_64-w64-mingw32/lib/../lib/libmingwex.a(lib64_libmingwex_a-smisc.o)
__native_dllmain_reason                           c:/ProgramFiles/mingw-w64-x86_64-8.1.0-posix-seh-rt_v6-rev0/mingw64/bin/../lib/gcc/x86_64-w64-mingw32/8.1.0/../../../../x86_64-w64-mingw32/lib/../lib/libmingw32.a(lib64_libmingw32_a-natstart.o)
__native_startup_lock                             c:/ProgramFiles/mingw-w64-x86_64-8.1.0-posix-seh-rt_v6-rev0/mingw64/bin/../lib/gcc/x86_64-w64-mingw32/8.1.0/../../../../x86_64-w64-mingw32/lib/../lib/libmingw32.a(lib64_libmingw32_a-natstart.o)
                                                  c:/ProgramFiles/mingw-w64-x86_64-8.1.0-posix-seh-rt_v6-rev0/mingw64/bin/../lib/gcc/x86_64-w64-mingw32/8.1.0/../../../../x86_64-w64-mingw32/lib/../lib/crt2.o
__native_startup_state                            c:/ProgramFiles/mingw-w64-x86_64-8.1.0-posix-seh-rt_v6-rev0/mingw64/bin/../lib/gcc/x86_64-w64-mingw32/8.1.0/../../../../x86_64-w64-mingw32/lib/../lib/libmingw32.a(lib64_libmingw32_a-natstart.o)
                                                  c:/ProgramFiles/mingw-w64-x86_64-8.1.0-posix-seh-rt_v6-rev0/mingw64/bin/../lib/gcc/x86_64-w64-mingw32/8.1.0/../../../../x86_64-w64-mingw32/lib/../lib/crt2.o
__native_vcclrit_reason                           c:/ProgramFiles/mingw-w64-x86_64-8.1.0-posix-seh-rt_v6-rev0/mingw64/bin/../lib/gcc/x86_64-w64-mingw32/8.1.0/../../../../x86_64-w64-mingw32/lib/../lib/libmingw32.a(lib64_libmingw32_a-natstart.o)
__p___argv                                        c:/ProgramFiles/mingw-w64-x86_64-8.1.0-posix-seh-rt_v6-rev0/mingw64/bin/../lib/gcc/x86_64-w64-mingw32/8.1.0/../../../../x86_64-w64-mingw32/lib/../lib/libmsvcrt.a(lib64_libmsvcrt_os_a-__p___argv.o)
                                                  c:/ProgramFiles/mingw-w64-x86_64-8.1.0-posix-seh-rt_v6-rev0/mingw64/bin/../lib/gcc/x86_64-w64-mingw32/8.1.0/../../../../x86_64-w64-mingw32/lib/../lib/libmingwex.a(lib64_libmingwex_a-getopt.o)
__p__acmdln                                       c:/ProgramFiles/mingw-w64-x86_64-8.1.0-posix-seh-rt_v6-rev0/mingw64/bin/../lib/gcc/x86_64-w64-mingw32/8.1.0/../../../../x86_64-w64-mingw32/lib/../lib/libmsvcrt.a(lib64_libmsvcrt_os_a-__p__acmdln.o)
                                                  c:/ProgramFiles/mingw-w64-x86_64-8.1.0-posix-seh-rt_v6-rev0/mingw64/bin/../lib/gcc/x86_64-w64-mingw32/8.1.0/../../../../x86_64-w64-mingw32/lib/../lib/crt2.o
__p__fmode                                        c:/ProgramFiles/mingw-w64-x86_64-8.1.0-posix-seh-rt_v6-rev0/mingw64/bin/../lib/gcc/x86_64-w64-mingw32/8.1.0/../../../../x86_64-w64-mingw32/lib/../lib/libmsvcrt.a(lib64_libmsvcrt_os_a-__p__fmode.o)
                                                  c:/ProgramFiles/mingw-w64-x86_64-8.1.0-posix-seh-rt_v6-rev0/mingw64/bin/../lib/gcc/x86_64-w64-mingw32/8.1.0/../../../../x86_64-w64-mingw32/lib/../lib/crt2.o
__pow5mult_D2A                                    c:/ProgramFiles/mingw-w64-x86_64-8.1.0-posix-seh-rt_v6-rev0/mingw64/bin/../lib/gcc/x86_64-w64-mingw32/8.1.0/../../../../x86_64-w64-mingw32/lib/../lib/libmingwex.a(lib64_libmingwex_a-misc.o)
                                                  c:/ProgramFiles/mingw-w64-x86_64-8.1.0-posix-seh-rt_v6-rev0/mingw64/bin/../lib/gcc/x86_64-w64-mingw32/8.1.0/../../../../x86_64-w64-mingw32/lib/../lib/libmingwex.a(lib64_libmingwex_a-strtodg.o)
__ratio_D2A                                       c:/ProgramFiles/mingw-w64-x86_64-8.1.0-posix-seh-rt_v6-rev0/mingw64/bin/../lib/gcc/x86_64-w64-mingw32/8.1.0/../../../../x86_64-w64-mingw32/lib/../lib/libmingwex.a(lib64_libmingwex_a-smisc.o)
                                                  c:/ProgramFiles/mingw-w64-x86_64-8.1.0-posix-seh-rt_v6-rev0/mingw64/bin/../lib/gcc/x86_64-w64-mingw32/8.1.0/../../../../x86_64-w64-mingw32/lib/../lib/libmingwex.a(lib64_libmingwex_a-strtodg.o)
__report_gsfailure                                c:/ProgramFiles/mingw-w64-x86_64-8.1.0-posix-seh-rt_v6-rev0/mingw64/bin/../lib/gcc/x86_64-w64-mingw32/8.1.0/../../../../x86_64-w64-mingw32/lib/../lib/libmingw32.a(lib64_libmingw32_a-gs_support.o)
__rshift_D2A                                      c:/ProgramFiles/mingw-w64-x86_64-8.1.0-posix-seh-rt_v6-rev0/mingw64/bin/../lib/gcc/x86_64-w64-mingw32/8.1.0/../../../../x86_64-w64-mingw32/lib/../lib/libmingwex.a(lib64_libmingwex_a-gmisc.o)
                                                  c:/ProgramFiles/mingw-w64-x86_64-8.1.0-posix-seh-rt_v6-rev0/mingw64/bin/../lib/gcc/x86_64-w64-mingw32/8.1.0/../../../../x86_64-w64-mingw32/lib/../lib/libmingwex.a(lib64_libmingwex_a-gethex.o)
                                                  c:/ProgramFiles/mingw-w64-x86_64-8.1.0-posix-seh-rt_v6-rev0/mingw64/bin/../lib/gcc/x86_64-w64-mingw32/8.1.0/../../../../x86_64-w64-mingw32/lib/../lib/libmingwex.a(lib64_libmingwex_a-strtodg.o)
__s2b_D2A                                         c:/ProgramFiles/mingw-w64-x86_64-8.1.0-posix-seh-rt_v6-rev0/mingw64/bin/../lib/gcc/x86_64-w64-mingw32/8.1.0/../../../../x86_64-w64-mingw32/lib/../lib/libmingwex.a(lib64_libmingwex_a-smisc.o)
                                                  c:/ProgramFiles/mingw-w64-x86_64-8.1.0-posix-seh-rt_v6-rev0/mingw64/bin/../lib/gcc/x86_64-w64-mingw32/8.1.0/../../../../x86_64-w64-mingw32/lib/../lib/libmingwex.a(lib64_libmingwex_a-strtodg.o)
__security_cookie                                 c:/ProgramFiles/mingw-w64-x86_64-8.1.0-posix-seh-rt_v6-rev0/mingw64/bin/../lib/gcc/x86_64-w64-mingw32/8.1.0/../../../../x86_64-w64-mingw32/lib/../lib/libmingw32.a(lib64_libmingw32_a-gs_support.o)
__security_cookie_complement                      c:/ProgramFiles/mingw-w64-x86_64-8.1.0-posix-seh-rt_v6-rev0/mingw64/bin/../lib/gcc/x86_64-w64-mingw32/8.1.0/../../../../x86_64-w64-mingw32/lib/../lib/libmingw32.a(lib64_libmingw32_a-gs_support.o)
__security_init_cookie                            c:/ProgramFiles/mingw-w64-x86_64-8.1.0-posix-seh-rt_v6-rev0/mingw64/bin/../lib/gcc/x86_64-w64-mingw32/8.1.0/../../../../x86_64-w64-mingw32/lib/../lib/libmingw32.a(lib64_libmingw32_a-gs_support.o)
                                                  c:/ProgramFiles/mingw-w64-x86_64-8.1.0-posix-seh-rt_v6-rev0/mingw64/bin/../lib/gcc/x86_64-w64-mingw32/8.1.0/../../../../x86_64-w64-mingw32/lib/../lib/crt2.o
__set_app_type                                    c:/ProgramFiles/mingw-w64-x86_64-8.1.0-posix-seh-rt_v6-rev0/mingw64/bin/../lib/gcc/x86_64-w64-mingw32/8.1.0/../../../../x86_64-w64-mingw32/lib/../lib/libmsvcrt.a(duags00096.o)
                                                  c:/ProgramFiles/mingw-w64-x86_64-8.1.0-posix-seh-rt_v6-rev0/mingw64/bin/../lib/gcc/x86_64-w64-mingw32/8.1.0/../../../../x86_64-w64-mingw32/lib/../lib/crt2.o
__set_ones_D2A                                    c:/ProgramFiles/mingw-w64-x86_64-8.1.0-posix-seh-rt_v6-rev0/mingw64/bin/../lib/gcc/x86_64-w64-mingw32/8.1.0/../../../../x86_64-w64-mingw32/lib/../lib/libmingwex.a(lib64_libmingwex_a-strtodg.o)
__setusermatherr                                  c:/ProgramFiles/mingw-w64-x86_64-8.1.0-posix-seh-rt_v6-rev0/mingw64/bin/../lib/gcc/x86_64-w64-mingw32/8.1.0/../../../../x86_64-w64-mingw32/lib/../lib/libmsvcrt.a(duags00098.o)
                                                  c:/ProgramFiles/mingw-w64-x86_64-8.1.0-posix-seh-rt_v6-rev0/mingw64/bin/../lib/gcc/x86_64-w64-mingw32/8.1.0/../../../../x86_64-w64-mingw32/lib/../lib/libmingw32.a(lib64_libmingw32_a-merr.o)
__strcp_D2A                                       c:/ProgramFiles/mingw-w64-x86_64-8.1.0-posix-seh-rt_v6-rev0/mingw64/bin/../lib/gcc/x86_64-w64-mingw32/8.1.0/../../../../x86_64-w64-mingw32/lib/../lib/libmingwex.a(lib64_libmingwex_a-misc.o)
__strtod                                          c:/ProgramFiles/mingw-w64-x86_64-8.1.0-posix-seh-rt_v6-rev0/mingw64/bin/../lib/gcc/x86_64-w64-mingw32/8.1.0/../../../../x86_64-w64-mingw32/lib/../lib/libmingwex.a(lib64_libmingwex_a-strtodnrp.o)
                                                  bin/win/DEBUG/obj/opt_getOpt.o
__strtodg                                         c:/ProgramFiles/mingw-w64-x86_64-8.1.0-posix-seh-rt_v6-rev0/mingw64/bin/../lib/gcc/x86_64-w64-mingw32/8.1.0/../../../../x86_64-w64-mingw32/lib/../lib/libmingwex.a(lib64_libmingwex_a-strtodg.o)
                                                  c:/ProgramFiles/mingw-w64-x86_64-8.1.0-posix-seh-rt_v6-rev0/mingw64/bin/../lib/gcc/x86_64-w64-mingw32/8.1.0/../../../../x86_64-w64-mingw32/lib/../lib/libmingwex.a(lib64_libmingwex_a-strtodnrp.o)
__sum_D2A                                         c:/ProgramFiles/mingw-w64-x86_64-8.1.0-posix-seh-rt_v6-rev0/mingw64/bin/../lib/gcc/x86_64-w64-mingw32/8.1.0/../../../../x86_64-w64-mingw32/lib/../lib/libmingwex.a(lib64_libmingwex_a-sum.o)
                                                  c:/ProgramFiles/mingw-w64-x86_64-8.1.0-posix-seh-rt_v6-rev0/mingw64/bin/../lib/gcc/x86_64-w64-mingw32/8.1.0/../../../../x86_64-w64-mingw32/lib/../lib/libmingwex.a(lib64_libmingwex_a-strtodg.o)
__tens_D2A                                        c:/ProgramFiles/mingw-w64-x86_64-8.1.0-posix-seh-rt_v6-rev0/mingw64/bin/../lib/gcc/x86_64-w64-mingw32/8.1.0/../../../../x86_64-w64-mingw32/lib/../lib/libmingwex.a(lib64_libmingwex_a-misc.o)
                                                  c:/ProgramFiles/mingw-w64-x86_64-8.1.0-posix-seh-rt_v6-rev0/mingw64/bin/../lib/gcc/x86_64-w64-mingw32/8.1.0/../../../../x86_64-w64-mingw32/lib/../lib/libmingwex.a(lib64_libmingwex_a-strtodg.o)
__tinytens_D2A                                    c:/ProgramFiles/mingw-w64-x86_64-8.1.0-posix-seh-rt_v6-rev0/mingw64/bin/../lib/gcc/x86_64-w64-mingw32/8.1.0/../../../../x86_64-w64-mingw32/lib/../lib/libmingwex.a(lib64_libmingwex_a-misc.o)
                                                  c:/ProgramFiles/mingw-w64-x86_64-8.1.0-posix-seh-rt_v6-rev0/mingw64/bin/../lib/gcc/x86_64-w64-mingw32/8.1.0/../../../../x86_64-w64-mingw32/lib/../lib/libmingwex.a(lib64_libmingwex_a-strtodg.o)
__tlregdtor                                       c:/ProgramFiles/mingw-w64-x86_64-8.1.0-posix-seh-rt_v6-rev0/mingw64/bin/../lib/gcc/x86_64-w64-mingw32/8.1.0/../../../../x86_64-w64-mingw32/lib/../lib/libmingw32.a(lib64_libmingw32_a-tlssup.o)
__trailz_D2A                                      c:/ProgramFiles/mingw-w64-x86_64-8.1.0-posix-seh-rt_v6-rev0/mingw64/bin/../lib/gcc/x86_64-w64-mingw32/8.1.0/../../../../x86_64-w64-mingw32/lib/../lib/libmingwex.a(lib64_libmingwex_a-gmisc.o)
                                                  c:/ProgramFiles/mingw-w64-x86_64-8.1.0-posix-seh-rt_v6-rev0/mingw64/bin/../lib/gcc/x86_64-w64-mingw32/8.1.0/../../../../x86_64-w64-mingw32/lib/../lib/libmingwex.a(lib64_libmingwex_a-strtodg.o)
__xc_a                                            c:/ProgramFiles/mingw-w64-x86_64-8.1.0-posix-seh-rt_v6-rev0/mingw64/bin/../lib/gcc/x86_64-w64-mingw32/8.1.0/../../../../x86_64-w64-mingw32/lib/../lib/libmingw32.a(lib64_libmingw32_a-cinitexe.o)
                                                  c:/ProgramFiles/mingw-w64-x86_64-8.1.0-posix-seh-rt_v6-rev0/mingw64/bin/../lib/gcc/x86_64-w64-mingw32/8.1.0/../../../../x86_64-w64-mingw32/lib/../lib/crt2.o
__xc_z                                            c:/ProgramFiles/mingw-w64-x86_64-8.1.0-posix-seh-rt_v6-rev0/mingw64/bin/../lib/gcc/x86_64-w64-mingw32/8.1.0/../../../../x86_64-w64-mingw32/lib/../lib/libmingw32.a(lib64_libmingw32_a-cinitexe.o)
                                                  c:/ProgramFiles/mingw-w64-x86_64-8.1.0-posix-seh-rt_v6-rev0/mingw64/bin/../lib/gcc/x86_64-w64-mingw32/8.1.0/../../../../x86_64-w64-mingw32/lib/../lib/crt2.o
__xi_a                                            c:/ProgramFiles/mingw-w64-x86_64-8.1.0-posix-seh-rt_v6-rev0/mingw64/bin/../lib/gcc/x86_64-w64-mingw32/8.1.0/../../../../x86_64-w64-mingw32/lib/../lib/libmingw32.a(lib64_libmingw32_a-cinitexe.o)
                                                  c:/ProgramFiles/mingw-w64-x86_64-8.1.0-posix-seh-rt_v6-rev0/mingw64/bin/../lib/gcc/x86_64-w64-mingw32/8.1.0/../../../../x86_64-w64-mingw32/lib/../lib/crt2.o
__xi_z                                            c:/ProgramFiles/mingw-w64-x86_64-8.1.0-posix-seh-rt_v6-rev0/mingw64/bin/../lib/gcc/x86_64-w64-mingw32/8.1.0/../../../../x86_64-w64-mingw32/lib/../lib/libmingw32.a(lib64_libmingw32_a-cinitexe.o)
                                                  c:/ProgramFiles/mingw-w64-x86_64-8.1.0-posix-seh-rt_v6-rev0/mingw64/bin/../lib/gcc/x86_64-w64-mingw32/8.1.0/../../../../x86_64-w64-mingw32/lib/../lib/crt2.o
__xl_a                                            c:/ProgramFiles/mingw-w64-x86_64-8.1.0-posix-seh-rt_v6-rev0/mingw64/bin/../lib/gcc/x86_64-w64-mingw32/8.1.0/../../../../x86_64-w64-mingw32/lib/../lib/libmingw32.a(lib64_libmingw32_a-tlssup.o)
__xl_c                                            c:/ProgramFiles/mingw-w64-x86_64-8.1.0-posix-seh-rt_v6-rev0/mingw64/bin/../lib/gcc/x86_64-w64-mingw32/8.1.0/../../../../x86_64-w64-mingw32/lib/../lib/libmingw32.a(lib64_libmingw32_a-tlssup.o)
__xl_d                                            c:/ProgramFiles/mingw-w64-x86_64-8.1.0-posix-seh-rt_v6-rev0/mingw64/bin/../lib/gcc/x86_64-w64-mingw32/8.1.0/../../../../x86_64-w64-mingw32/lib/../lib/libmingw32.a(lib64_libmingw32_a-tlssup.o)
__xl_z                                            c:/ProgramFiles/mingw-w64-x86_64-8.1.0-posix-seh-rt_v6-rev0/mingw64/bin/../lib/gcc/x86_64-w64-mingw32/8.1.0/../../../../x86_64-w64-mingw32/lib/../lib/libmingw32.a(lib64_libmingw32_a-tlssup.o)
_amsg_exit                                        c:/ProgramFiles/mingw-w64-x86_64-8.1.0-posix-seh-rt_v6-rev0/mingw64/bin/../lib/gcc/x86_64-w64-mingw32/8.1.0/../../../../x86_64-w64-mingw32/lib/../lib/libmsvcrt.a(duags00122.o)
                                                  c:/ProgramFiles/mingw-w64-x86_64-8.1.0-posix-seh-rt_v6-rev0/mingw64/bin/../lib/gcc/x86_64-w64-mingw32/8.1.0/../../../../x86_64-w64-mingw32/lib/../lib/crt2.o
_assert                                           c:/ProgramFiles/mingw-w64-x86_64-8.1.0-posix-seh-rt_v6-rev0/mingw64/bin/../lib/gcc/x86_64-w64-mingw32/8.1.0/../../../../x86_64-w64-mingw32/lib/../lib/libmingwex.a(lib64_libmingwex_a-wassert.o)
                                                  bin/win/DEBUG/obj/vsq_threadSafeQueueVariableSize.o
                                                  bin/win/DEBUG/obj/vsq_dispatcherPortInterface.o
                                                  bin/win/DEBUG/obj/oss_operatingSystemSimulation.o
                                                  bin/win/DEBUG/obj/opt_getOpt.o
                                                  bin/win/DEBUG/obj/mu8_mapDirectLookupU8.o
                                                  bin/win/DEBUG/obj/mpo_mapOffsetOnly.o
                                                  bin/win/DEBUG/obj/mhn_mapOsFrameHandleToCanIfHandle.o
                                                  bin/win/DEBUG/obj/mem_malloc.o
                                                  bin/win/DEBUG/obj/mci_mapBinarySearchCanId.o
                                                  bin/win/DEBUG/obj/main.o
                                                  bin/win/DEBUG/obj/m16_mapDirectLookupU16.o
                                                  bin/win/DEBUG/obj/log_logger.o
                                                  bin/win/DEBUG/obj/fil_file.o
                                                  bin/win/DEBUG/obj/ede_eventSender.o
                                                  bin/win/DEBUG/obj/ede_eventDispatcherEngine.o
                                                  bin/win/DEBUG/obj/chk_checksum.o
                                                  bin/win/DEBUG/obj/cbk_callbacks.o
                                                  bin/win/DEBUG/obj/apt_applicationTask.o
_cexit                                            c:/ProgramFiles/mingw-w64-x86_64-8.1.0-posix-seh-rt_v6-rev0/mingw64/bin/../lib/gcc/x86_64-w64-mingw32/8.1.0/../../../../x86_64-w64-mingw32/lib/../lib/libmsvcrt.a(duags00141.o)
                                                  c:/ProgramFiles/mingw-w64-x86_64-8.1.0-posix-seh-rt_v6-rev0/mingw64/bin/../lib/gcc/x86_64-w64-mingw32/8.1.0/../../../../x86_64-w64-mingw32/lib/../lib/crt2.o
_charmax                                          c:/ProgramFiles/mingw-w64-x86_64-8.1.0-posix-seh-rt_v6-rev0/mingw64/bin/../lib/gcc/x86_64-w64-mingw32/8.1.0/../../../../x86_64-w64-mingw32/lib/../lib/libmingw32.a(lib64_libmingw32_a-charmax.o)
_decode_pointer                                   c:/ProgramFiles/mingw-w64-x86_64-8.1.0-posix-seh-rt_v6-rev0/mingw64/bin/../lib/gcc/x86_64-w64-mingw32/8.1.0/../../../../x86_64-w64-mingw32/lib/../lib/libmingw32.a(lib64_libmingw32_a-mingw_helpers.o)
_dowildcard                                       c:/ProgramFiles/mingw-w64-x86_64-8.1.0-posix-seh-rt_v6-rev0/mingw64/bin/../lib/gcc/x86_64-w64-mingw32/8.1.0/../../../../x86_64-w64-mingw32/lib/../lib/libmingw32.a(lib64_libmingw32_a-wildcard.o)
                                                  c:/ProgramFiles/mingw-w64-x86_64-8.1.0-posix-seh-rt_v6-rev0/mingw64/bin/../lib/gcc/x86_64-w64-mingw32/8.1.0/../../../../x86_64-w64-mingw32/lib/../lib/crt2.o
_encode_pointer                                   c:/ProgramFiles/mingw-w64-x86_64-8.1.0-posix-seh-rt_v6-rev0/mingw64/bin/../lib/gcc/x86_64-w64-mingw32/8.1.0/../../../../x86_64-w64-mingw32/lib/../lib/libmingw32.a(lib64_libmingw32_a-mingw_helpers.o)
_errno                                            c:/ProgramFiles/mingw-w64-x86_64-8.1.0-posix-seh-rt_v6-rev0/mingw64/bin/../lib/gcc/x86_64-w64-mingw32/8.1.0/../../../../x86_64-w64-mingw32/lib/../lib/libmsvcrt.a(duags00203.o)
                                                  c:/ProgramFiles/mingw-w64-x86_64-8.1.0-posix-seh-rt_v6-rev0/mingw64/bin/../lib/gcc/x86_64-w64-mingw32/8.1.0/../../../../x86_64-w64-mingw32/lib/../lib/libmingwex.a(lib64_libmingwex_a-gethex.o)
                                                  c:/ProgramFiles/mingw-w64-x86_64-8.1.0-posix-seh-rt_v6-rev0/mingw64/bin/../lib/gcc/x86_64-w64-mingw32/8.1.0/../../../../x86_64-w64-mingw32/lib/../lib/libmingwex.a(lib64_libmingwex_a-strtodg.o)
                                                  c:/ProgramFiles/mingw-w64-x86_64-8.1.0-posix-seh-rt_v6-rev0/mingw64/bin/../lib/gcc/x86_64-w64-mingw32/8.1.0/../../../../x86_64-w64-mingw32/lib/../lib/libmingwex.a(lib64_libmingwex_a-dirent.o)
_exit                                             c:/ProgramFiles/mingw-w64-x86_64-8.1.0-posix-seh-rt_v6-rev0/mingw64/bin/../lib/gcc/x86_64-w64-mingw32/8.1.0/../../../../x86_64-w64-mingw32/lib/../lib/libmsvcrt.a(duags00218.o)
                                                  c:/ProgramFiles/mingw-w64-x86_64-8.1.0-posix-seh-rt_v6-rev0/mingw64/bin/../lib/gcc/x86_64-w64-mingw32/8.1.0/../../../../x86_64-w64-mingw32/lib/../lib/libmingwex.a(lib64_libmingwex_a-wassert.o)
_findclose                                        c:/ProgramFiles/mingw-w64-x86_64-8.1.0-posix-seh-rt_v6-rev0/mingw64/bin/../lib/gcc/x86_64-w64-mingw32/8.1.0/../../../../x86_64-w64-mingw32/lib/../lib/libmsvcrt.a(duags00237.o)
                                                  c:/ProgramFiles/mingw-w64-x86_64-8.1.0-posix-seh-rt_v6-rev0/mingw64/bin/../lib/gcc/x86_64-w64-mingw32/8.1.0/../../../../x86_64-w64-mingw32/lib/../lib/libmingwex.a(lib64_libmingwex_a-dirent.o)
_findfirst64                                      c:/ProgramFiles/mingw-w64-x86_64-8.1.0-posix-seh-rt_v6-rev0/mingw64/bin/../lib/gcc/x86_64-w64-mingw32/8.1.0/../../../../x86_64-w64-mingw32/lib/../lib/libmsvcrt.a(duags00240.o)
                                                  c:/ProgramFiles/mingw-w64-x86_64-8.1.0-posix-seh-rt_v6-rev0/mingw64/bin/../lib/gcc/x86_64-w64-mingw32/8.1.0/../../../../x86_64-w64-mingw32/lib/../lib/libmingwex.a(lib64_libmingwex_a-dirent.o)
_findnext64                                       c:/ProgramFiles/mingw-w64-x86_64-8.1.0-posix-seh-rt_v6-rev0/mingw64/bin/../lib/gcc/x86_64-w64-mingw32/8.1.0/../../../../x86_64-w64-mingw32/lib/../lib/libmsvcrt.a(duags00245.o)
                                                  c:/ProgramFiles/mingw-w64-x86_64-8.1.0-posix-seh-rt_v6-rev0/mingw64/bin/../lib/gcc/x86_64-w64-mingw32/8.1.0/../../../../x86_64-w64-mingw32/lib/../lib/libmingwex.a(lib64_libmingwex_a-dirent.o)
_fmode                                            c:/ProgramFiles/mingw-w64-x86_64-8.1.0-posix-seh-rt_v6-rev0/mingw64/bin/../lib/gcc/x86_64-w64-mingw32/8.1.0/../../../../x86_64-w64-mingw32/lib/../lib/libmingw32.a(lib64_libmingw32_a-xtxtmode.o)
                                                  c:/ProgramFiles/mingw-w64-x86_64-8.1.0-posix-seh-rt_v6-rev0/mingw64/bin/../lib/gcc/x86_64-w64-mingw32/8.1.0/../../../../x86_64-w64-mingw32/lib/../lib/crt2.o
_fpreset                                          c:/ProgramFiles/mingw-w64-x86_64-8.1.0-posix-seh-rt_v6-rev0/mingw64/bin/../lib/gcc/x86_64-w64-mingw32/8.1.0/../../../../x86_64-w64-mingw32/lib/../lib/libmingw32.a(lib64_libmingw32_a-CRT_fp10.o)
                                                  c:/ProgramFiles/mingw-w64-x86_64-8.1.0-posix-seh-rt_v6-rev0/mingw64/bin/../lib/gcc/x86_64-w64-mingw32/8.1.0/../../../../x86_64-w64-mingw32/lib/../lib/libmingw32.a(lib64_libmingw32_a-tlsthrd.o)
                                                  c:/ProgramFiles/mingw-w64-x86_64-8.1.0-posix-seh-rt_v6-rev0/mingw64/bin/../lib/gcc/x86_64-w64-mingw32/8.1.0/../../../../x86_64-w64-mingw32/lib/../lib/libmingw32.a(lib64_libmingw32_a-crt_handler.o)
                                                  c:/ProgramFiles/mingw-w64-x86_64-8.1.0-posix-seh-rt_v6-rev0/mingw64/bin/../lib/gcc/x86_64-w64-mingw32/8.1.0/../../../../x86_64-w64-mingw32/lib/../lib/crt2.o
_fullpath                                         c:/ProgramFiles/mingw-w64-x86_64-8.1.0-posix-seh-rt_v6-rev0/mingw64/bin/../lib/gcc/x86_64-w64-mingw32/8.1.0/../../../../x86_64-w64-mingw32/lib/../lib/libmsvcrt.a(duags00278.o)
                                                  c:/ProgramFiles/mingw-w64-x86_64-8.1.0-posix-seh-rt_v6-rev0/mingw64/bin/../lib/gcc/x86_64-w64-mingw32/8.1.0/../../../../x86_64-w64-mingw32/lib/../lib/libmingwex.a(lib64_libmingwex_a-dirent.o)
_get_invalid_parameter_handler                    c:/ProgramFiles/mingw-w64-x86_64-8.1.0-posix-seh-rt_v6-rev0/mingw64/bin/../lib/gcc/x86_64-w64-mingw32/8.1.0/../../../../x86_64-w64-mingw32/lib/../lib/libmsvcrt.a(lib64_libmsvcrt_os_a-invalid_parameter_handler.o)
_gnu_exception_handler                            c:/ProgramFiles/mingw-w64-x86_64-8.1.0-posix-seh-rt_v6-rev0/mingw64/bin/../lib/gcc/x86_64-w64-mingw32/8.1.0/../../../../x86_64-w64-mingw32/lib/../lib/libmingw32.a(lib64_libmingw32_a-crt_handler.o)
                                                  c:/ProgramFiles/mingw-w64-x86_64-8.1.0-posix-seh-rt_v6-rev0/mingw64/bin/../lib/gcc/x86_64-w64-mingw32/8.1.0/../../../../x86_64-w64-mingw32/lib/../lib/crt2.o
_head_lib64_libkernel32_a                         c:/ProgramFiles/mingw-w64-x86_64-8.1.0-posix-seh-rt_v6-rev0/mingw64/bin/../lib/gcc/x86_64-w64-mingw32/8.1.0/../../../../x86_64-w64-mingw32/lib/../lib/libkernel32.a(dqifh.o)
                                                  c:/ProgramFiles/mingw-w64-x86_64-8.1.0-posix-seh-rt_v6-rev0/mingw64/bin/../lib/gcc/x86_64-w64-mingw32/8.1.0/../../../../x86_64-w64-mingw32/lib/../lib/libkernel32.a(dqifs00268.o)
                                                  c:/ProgramFiles/mingw-w64-x86_64-8.1.0-posix-seh-rt_v6-rev0/mingw64/bin/../lib/gcc/x86_64-w64-mingw32/8.1.0/../../../../x86_64-w64-mingw32/lib/../lib/libkernel32.a(dqifs00304.o)
                                                  c:/ProgramFiles/mingw-w64-x86_64-8.1.0-posix-seh-rt_v6-rev0/mingw64/bin/../lib/gcc/x86_64-w64-mingw32/8.1.0/../../../../x86_64-w64-mingw32/lib/../lib/libkernel32.a(dqifs00535.o)
                                                  c:/ProgramFiles/mingw-w64-x86_64-8.1.0-posix-seh-rt_v6-rev0/mingw64/bin/../lib/gcc/x86_64-w64-mingw32/8.1.0/../../../../x86_64-w64-mingw32/lib/../lib/libkernel32.a(dqifs00536.o)
                                                  c:/ProgramFiles/mingw-w64-x86_64-8.1.0-posix-seh-rt_v6-rev0/mingw64/bin/../lib/gcc/x86_64-w64-mingw32/8.1.0/../../../../x86_64-w64-mingw32/lib/../lib/libkernel32.a(dqifs00540.o)
                                                  c:/ProgramFiles/mingw-w64-x86_64-8.1.0-posix-seh-rt_v6-rev0/mingw64/bin/../lib/gcc/x86_64-w64-mingw32/8.1.0/../../../../x86_64-w64-mingw32/lib/../lib/libkernel32.a(dqifs00578.o)
                                                  c:/ProgramFiles/mingw-w64-x86_64-8.1.0-posix-seh-rt_v6-rev0/mingw64/bin/../lib/gcc/x86_64-w64-mingw32/8.1.0/../../../../x86_64-w64-mingw32/lib/../lib/libkernel32.a(dqifs00609.o)
                                                  c:/ProgramFiles/mingw-w64-x86_64-8.1.0-posix-seh-rt_v6-rev0/mingw64/bin/../lib/gcc/x86_64-w64-mingw32/8.1.0/../../../../x86_64-w64-mingw32/lib/../lib/libkernel32.a(dqifs00629.o)
                                                  c:/ProgramFiles/mingw-w64-x86_64-8.1.0-posix-seh-rt_v6-rev0/mingw64/bin/../lib/gcc/x86_64-w64-mingw32/8.1.0/../../../../x86_64-w64-mingw32/lib/../lib/libkernel32.a(dqifs00721.o)
                                                  c:/ProgramFiles/mingw-w64-x86_64-8.1.0-posix-seh-rt_v6-rev0/mingw64/bin/../lib/gcc/x86_64-w64-mingw32/8.1.0/../../../../x86_64-w64-mingw32/lib/../lib/libkernel32.a(dqifs00746.o)
                                                  c:/ProgramFiles/mingw-w64-x86_64-8.1.0-posix-seh-rt_v6-rev0/mingw64/bin/../lib/gcc/x86_64-w64-mingw32/8.1.0/../../../../x86_64-w64-mingw32/lib/../lib/libkernel32.a(dqifs00774.o)
                                                  c:/ProgramFiles/mingw-w64-x86_64-8.1.0-posix-seh-rt_v6-rev0/mingw64/bin/../lib/gcc/x86_64-w64-mingw32/8.1.0/../../../../x86_64-w64-mingw32/lib/../lib/libkernel32.a(dqifs00863.o)
                                                  c:/ProgramFiles/mingw-w64-x86_64-8.1.0-posix-seh-rt_v6-rev0/mingw64/bin/../lib/gcc/x86_64-w64-mingw32/8.1.0/../../../../x86_64-w64-mingw32/lib/../lib/libkernel32.a(dqifs00951.o)
                                                  c:/ProgramFiles/mingw-w64-x86_64-8.1.0-posix-seh-rt_v6-rev0/mingw64/bin/../lib/gcc/x86_64-w64-mingw32/8.1.0/../../../../x86_64-w64-mingw32/lib/../lib/libkernel32.a(dqifs01093.o)
                                                  c:/ProgramFiles/mingw-w64-x86_64-8.1.0-posix-seh-rt_v6-rev0/mingw64/bin/../lib/gcc/x86_64-w64-mingw32/8.1.0/../../../../x86_64-w64-mingw32/lib/../lib/libkernel32.a(dqifs01179.o)
                                                  c:/ProgramFiles/mingw-w64-x86_64-8.1.0-posix-seh-rt_v6-rev0/mingw64/bin/../lib/gcc/x86_64-w64-mingw32/8.1.0/../../../../x86_64-w64-mingw32/lib/../lib/libkernel32.a(dqifs01180.o)
                                                  c:/ProgramFiles/mingw-w64-x86_64-8.1.0-posix-seh-rt_v6-rev0/mingw64/bin/../lib/gcc/x86_64-w64-mingw32/8.1.0/../../../../x86_64-w64-mingw32/lib/../lib/libkernel32.a(dqifs01187.o)
                                                  c:/ProgramFiles/mingw-w64-x86_64-8.1.0-posix-seh-rt_v6-rev0/mingw64/bin/../lib/gcc/x86_64-w64-mingw32/8.1.0/../../../../x86_64-w64-mingw32/lib/../lib/libkernel32.a(dqifs01194.o)
                                                  c:/ProgramFiles/mingw-w64-x86_64-8.1.0-posix-seh-rt_v6-rev0/mingw64/bin/../lib/gcc/x86_64-w64-mingw32/8.1.0/../../../../x86_64-w64-mingw32/lib/../lib/libkernel32.a(dqifs01346.o)
                                                  c:/ProgramFiles/mingw-w64-x86_64-8.1.0-posix-seh-rt_v6-rev0/mingw64/bin/../lib/gcc/x86_64-w64-mingw32/8.1.0/../../../../x86_64-w64-mingw32/lib/../lib/libkernel32.a(dqifs01360.o)
                                                  c:/ProgramFiles/mingw-w64-x86_64-8.1.0-posix-seh-rt_v6-rev0/mingw64/bin/../lib/gcc/x86_64-w64-mingw32/8.1.0/../../../../x86_64-w64-mingw32/lib/../lib/libkernel32.a(dqifs01375.o)
                                                  c:/ProgramFiles/mingw-w64-x86_64-8.1.0-posix-seh-rt_v6-rev0/mingw64/bin/../lib/gcc/x86_64-w64-mingw32/8.1.0/../../../../x86_64-w64-mingw32/lib/../lib/libkernel32.a(dqifs01395.o)
                                                  c:/ProgramFiles/mingw-w64-x86_64-8.1.0-posix-seh-rt_v6-rev0/mingw64/bin/../lib/gcc/x86_64-w64-mingw32/8.1.0/../../../../x86_64-w64-mingw32/lib/../lib/libkernel32.a(dqifs01409.o)
                                                  c:/ProgramFiles/mingw-w64-x86_64-8.1.0-posix-seh-rt_v6-rev0/mingw64/bin/../lib/gcc/x86_64-w64-mingw32/8.1.0/../../../../x86_64-w64-mingw32/lib/../lib/libkernel32.a(dqifs01443.o)
                                                  c:/ProgramFiles/mingw-w64-x86_64-8.1.0-posix-seh-rt_v6-rev0/mingw64/bin/../lib/gcc/x86_64-w64-mingw32/8.1.0/../../../../x86_64-w64-mingw32/lib/../lib/libkernel32.a(dqifs01445.o)
_head_lib64_libmsvcrt_os_a                        c:/ProgramFiles/mingw-w64-x86_64-8.1.0-posix-seh-rt_v6-rev0/mingw64/bin/../lib/gcc/x86_64-w64-mingw32/8.1.0/../../../../x86_64-w64-mingw32/lib/../lib/libmsvcrt.a(duagh.o)
                                                  c:/ProgramFiles/mingw-w64-x86_64-8.1.0-posix-seh-rt_v6-rev0/mingw64/bin/../lib/gcc/x86_64-w64-mingw32/8.1.0/../../../../x86_64-w64-mingw32/lib/../lib/libmsvcrt.a(duags00253.o)
                                                  c:/ProgramFiles/mingw-w64-x86_64-8.1.0-posix-seh-rt_v6-rev0/mingw64/bin/../lib/gcc/x86_64-w64-mingw32/8.1.0/../../../../x86_64-w64-mingw32/lib/../lib/libmsvcrt.a(duags00070.o)
                                                  c:/ProgramFiles/mingw-w64-x86_64-8.1.0-posix-seh-rt_v6-rev0/mingw64/bin/../lib/gcc/x86_64-w64-mingw32/8.1.0/../../../../x86_64-w64-mingw32/lib/../lib/libmsvcrt.a(duags00083.o)
                                                  c:/ProgramFiles/mingw-w64-x86_64-8.1.0-posix-seh-rt_v6-rev0/mingw64/bin/../lib/gcc/x86_64-w64-mingw32/8.1.0/../../../../x86_64-w64-mingw32/lib/../lib/libmsvcrt.a(duags00115.o)
                                                  c:/ProgramFiles/mingw-w64-x86_64-8.1.0-posix-seh-rt_v6-rev0/mingw64/bin/../lib/gcc/x86_64-w64-mingw32/8.1.0/../../../../x86_64-w64-mingw32/lib/../lib/libmsvcrt.a(duags00055.o)
                                                  c:/ProgramFiles/mingw-w64-x86_64-8.1.0-posix-seh-rt_v6-rev0/mingw64/bin/../lib/gcc/x86_64-w64-mingw32/8.1.0/../../../../x86_64-w64-mingw32/lib/../lib/libmsvcrt.a(duags00081.o)
                                                  c:/ProgramFiles/mingw-w64-x86_64-8.1.0-posix-seh-rt_v6-rev0/mingw64/bin/../lib/gcc/x86_64-w64-mingw32/8.1.0/../../../../x86_64-w64-mingw32/lib/../lib/libmsvcrt.a(duags00082.o)
                                                  c:/ProgramFiles/mingw-w64-x86_64-8.1.0-posix-seh-rt_v6-rev0/mingw64/bin/../lib/gcc/x86_64-w64-mingw32/8.1.0/../../../../x86_64-w64-mingw32/lib/../lib/libmsvcrt.a(duags00090.o)
                                                  c:/ProgramFiles/mingw-w64-x86_64-8.1.0-posix-seh-rt_v6-rev0/mingw64/bin/../lib/gcc/x86_64-w64-mingw32/8.1.0/../../../../x86_64-w64-mingw32/lib/../lib/libmsvcrt.a(duags00096.o)
                                                  c:/ProgramFiles/mingw-w64-x86_64-8.1.0-posix-seh-rt_v6-rev0/mingw64/bin/../lib/gcc/x86_64-w64-mingw32/8.1.0/../../../../x86_64-w64-mingw32/lib/../lib/libmsvcrt.a(duags00098.o)
                                                  c:/ProgramFiles/mingw-w64-x86_64-8.1.0-posix-seh-rt_v6-rev0/mingw64/bin/../lib/gcc/x86_64-w64-mingw32/8.1.0/../../../../x86_64-w64-mingw32/lib/../lib/libmsvcrt.a(duags00122.o)
                                                  c:/ProgramFiles/mingw-w64-x86_64-8.1.0-posix-seh-rt_v6-rev0/mingw64/bin/../lib/gcc/x86_64-w64-mingw32/8.1.0/../../../../x86_64-w64-mingw32/lib/../lib/libmsvcrt.a(duags00141.o)
                                                  c:/ProgramFiles/mingw-w64-x86_64-8.1.0-posix-seh-rt_v6-rev0/mingw64/bin/../lib/gcc/x86_64-w64-mingw32/8.1.0/../../../../x86_64-w64-mingw32/lib/../lib/libmsvcrt.a(duags00203.o)
                                                  c:/ProgramFiles/mingw-w64-x86_64-8.1.0-posix-seh-rt_v6-rev0/mingw64/bin/../lib/gcc/x86_64-w64-mingw32/8.1.0/../../../../x86_64-w64-mingw32/lib/../lib/libmsvcrt.a(duags00218.o)
                                                  c:/ProgramFiles/mingw-w64-x86_64-8.1.0-posix-seh-rt_v6-rev0/mingw64/bin/../lib/gcc/x86_64-w64-mingw32/8.1.0/../../../../x86_64-w64-mingw32/lib/../lib/libmsvcrt.a(duags00237.o)
                                                  c:/ProgramFiles/mingw-w64-x86_64-8.1.0-posix-seh-rt_v6-rev0/mingw64/bin/../lib/gcc/x86_64-w64-mingw32/8.1.0/../../../../x86_64-w64-mingw32/lib/../lib/libmsvcrt.a(duags00240.o)
                                                  c:/ProgramFiles/mingw-w64-x86_64-8.1.0-posix-seh-rt_v6-rev0/mingw64/bin/../lib/gcc/x86_64-w64-mingw32/8.1.0/../../../../x86_64-w64-mingw32/lib/../lib/libmsvcrt.a(duags00245.o)
                                                  c:/ProgramFiles/mingw-w64-x86_64-8.1.0-posix-seh-rt_v6-rev0/mingw64/bin/../lib/gcc/x86_64-w64-mingw32/8.1.0/../../../../x86_64-w64-mingw32/lib/../lib/libmsvcrt.a(duags00278.o)
                                                  c:/ProgramFiles/mingw-w64-x86_64-8.1.0-posix-seh-rt_v6-rev0/mingw64/bin/../lib/gcc/x86_64-w64-mingw32/8.1.0/../../../../x86_64-w64-mingw32/lib/../lib/libmsvcrt.a(duags00332.o)
                                                  c:/ProgramFiles/mingw-w64-x86_64-8.1.0-posix-seh-rt_v6-rev0/mingw64/bin/../lib/gcc/x86_64-w64-mingw32/8.1.0/../../../../x86_64-w64-mingw32/lib/../lib/libmsvcrt.a(duags00603.o)
                                                  c:/ProgramFiles/mingw-w64-x86_64-8.1.0-posix-seh-rt_v6-rev0/mingw64/bin/../lib/gcc/x86_64-w64-mingw32/8.1.0/../../../../x86_64-w64-mingw32/lib/../lib/libmsvcrt.a(duags00614.o)
                                                  c:/ProgramFiles/mingw-w64-x86_64-8.1.0-posix-seh-rt_v6-rev0/mingw64/bin/../lib/gcc/x86_64-w64-mingw32/8.1.0/../../../../x86_64-w64-mingw32/lib/../lib/libmsvcrt.a(duags00689.o)
                                                  c:/ProgramFiles/mingw-w64-x86_64-8.1.0-posix-seh-rt_v6-rev0/mingw64/bin/../lib/gcc/x86_64-w64-mingw32/8.1.0/../../../../x86_64-w64-mingw32/lib/../lib/libmsvcrt.a(duags00735.o)
                                                  c:/ProgramFiles/mingw-w64-x86_64-8.1.0-posix-seh-rt_v6-rev0/mingw64/bin/../lib/gcc/x86_64-w64-mingw32/8.1.0/../../../../x86_64-w64-mingw32/lib/../lib/libmsvcrt.a(duags00852.o)
                                                  c:/ProgramFiles/mingw-w64-x86_64-8.1.0-posix-seh-rt_v6-rev0/mingw64/bin/../lib/gcc/x86_64-w64-mingw32/8.1.0/../../../../x86_64-w64-mingw32/lib/../lib/libmsvcrt.a(duags00973.o)
                                                  c:/ProgramFiles/mingw-w64-x86_64-8.1.0-posix-seh-rt_v6-rev0/mingw64/bin/../lib/gcc/x86_64-w64-mingw32/8.1.0/../../../../x86_64-w64-mingw32/lib/../lib/libmsvcrt.a(duags01032.o)
                                                  c:/ProgramFiles/mingw-w64-x86_64-8.1.0-posix-seh-rt_v6-rev0/mingw64/bin/../lib/gcc/x86_64-w64-mingw32/8.1.0/../../../../x86_64-w64-mingw32/lib/../lib/libmsvcrt.a(duags01048.o)
                                                  c:/ProgramFiles/mingw-w64-x86_64-8.1.0-posix-seh-rt_v6-rev0/mingw64/bin/../lib/gcc/x86_64-w64-mingw32/8.1.0/../../../../x86_64-w64-mingw32/lib/../lib/libmsvcrt.a(duags01050.o)
                                                  c:/ProgramFiles/mingw-w64-x86_64-8.1.0-posix-seh-rt_v6-rev0/mingw64/bin/../lib/gcc/x86_64-w64-mingw32/8.1.0/../../../../x86_64-w64-mingw32/lib/../lib/libmsvcrt.a(duags01055.o)
                                                  c:/ProgramFiles/mingw-w64-x86_64-8.1.0-posix-seh-rt_v6-rev0/mingw64/bin/../lib/gcc/x86_64-w64-mingw32/8.1.0/../../../../x86_64-w64-mingw32/lib/../lib/libmsvcrt.a(duags01060.o)
                                                  c:/ProgramFiles/mingw-w64-x86_64-8.1.0-posix-seh-rt_v6-rev0/mingw64/bin/../lib/gcc/x86_64-w64-mingw32/8.1.0/../../../../x86_64-w64-mingw32/lib/../lib/libmsvcrt.a(duags01063.o)
                                                  c:/ProgramFiles/mingw-w64-x86_64-8.1.0-posix-seh-rt_v6-rev0/mingw64/bin/../lib/gcc/x86_64-w64-mingw32/8.1.0/../../../../x86_64-w64-mingw32/lib/../lib/libmsvcrt.a(duags01067.o)
                                                  c:/ProgramFiles/mingw-w64-x86_64-8.1.0-posix-seh-rt_v6-rev0/mingw64/bin/../lib/gcc/x86_64-w64-mingw32/8.1.0/../../../../x86_64-w64-mingw32/lib/../lib/libmsvcrt.a(duags01069.o)
                                                  c:/ProgramFiles/mingw-w64-x86_64-8.1.0-posix-seh-rt_v6-rev0/mingw64/bin/../lib/gcc/x86_64-w64-mingw32/8.1.0/../../../../x86_64-w64-mingw32/lib/../lib/libmsvcrt.a(duags01070.o)
                                                  c:/ProgramFiles/mingw-w64-x86_64-8.1.0-posix-seh-rt_v6-rev0/mingw64/bin/../lib/gcc/x86_64-w64-mingw32/8.1.0/../../../../x86_64-w64-mingw32/lib/../lib/libmsvcrt.a(duags01071.o)
                                                  c:/ProgramFiles/mingw-w64-x86_64-8.1.0-posix-seh-rt_v6-rev0/mingw64/bin/../lib/gcc/x86_64-w64-mingw32/8.1.0/../../../../x86_64-w64-mingw32/lib/../lib/libmsvcrt.a(duags01080.o)
                                                  c:/ProgramFiles/mingw-w64-x86_64-8.1.0-posix-seh-rt_v6-rev0/mingw64/bin/../lib/gcc/x86_64-w64-mingw32/8.1.0/../../../../x86_64-w64-mingw32/lib/../lib/libmsvcrt.a(duags01082.o)
                                                  c:/ProgramFiles/mingw-w64-x86_64-8.1.0-posix-seh-rt_v6-rev0/mingw64/bin/../lib/gcc/x86_64-w64-mingw32/8.1.0/../../../../x86_64-w64-mingw32/lib/../lib/libmsvcrt.a(duags01084.o)
                                                  c:/ProgramFiles/mingw-w64-x86_64-8.1.0-posix-seh-rt_v6-rev0/mingw64/bin/../lib/gcc/x86_64-w64-mingw32/8.1.0/../../../../x86_64-w64-mingw32/lib/../lib/libmsvcrt.a(duags01085.o)
                                                  c:/ProgramFiles/mingw-w64-x86_64-8.1.0-posix-seh-rt_v6-rev0/mingw64/bin/../lib/gcc/x86_64-w64-mingw32/8.1.0/../../../../x86_64-w64-mingw32/lib/../lib/libmsvcrt.a(duags01089.o)
                                                  c:/ProgramFiles/mingw-w64-x86_64-8.1.0-posix-seh-rt_v6-rev0/mingw64/bin/../lib/gcc/x86_64-w64-mingw32/8.1.0/../../../../x86_64-w64-mingw32/lib/../lib/libmsvcrt.a(duags01099.o)
                                                  c:/ProgramFiles/mingw-w64-x86_64-8.1.0-posix-seh-rt_v6-rev0/mingw64/bin/../lib/gcc/x86_64-w64-mingw32/8.1.0/../../../../x86_64-w64-mingw32/lib/../lib/libmsvcrt.a(duags01101.o)
                                                  c:/ProgramFiles/mingw-w64-x86_64-8.1.0-posix-seh-rt_v6-rev0/mingw64/bin/../lib/gcc/x86_64-w64-mingw32/8.1.0/../../../../x86_64-w64-mingw32/lib/../lib/libmsvcrt.a(duags01106.o)
                                                  c:/ProgramFiles/mingw-w64-x86_64-8.1.0-posix-seh-rt_v6-rev0/mingw64/bin/../lib/gcc/x86_64-w64-mingw32/8.1.0/../../../../x86_64-w64-mingw32/lib/../lib/libmsvcrt.a(duags01120.o)
                                                  c:/ProgramFiles/mingw-w64-x86_64-8.1.0-posix-seh-rt_v6-rev0/mingw64/bin/../lib/gcc/x86_64-w64-mingw32/8.1.0/../../../../x86_64-w64-mingw32/lib/../lib/libmsvcrt.a(duags01142.o)
                                                  c:/ProgramFiles/mingw-w64-x86_64-8.1.0-posix-seh-rt_v6-rev0/mingw64/bin/../lib/gcc/x86_64-w64-mingw32/8.1.0/../../../../x86_64-w64-mingw32/lib/../lib/libmsvcrt.a(duags01149.o)
                                                  c:/ProgramFiles/mingw-w64-x86_64-8.1.0-posix-seh-rt_v6-rev0/mingw64/bin/../lib/gcc/x86_64-w64-mingw32/8.1.0/../../../../x86_64-w64-mingw32/lib/../lib/libmsvcrt.a(duags01156.o)
                                                  c:/ProgramFiles/mingw-w64-x86_64-8.1.0-posix-seh-rt_v6-rev0/mingw64/bin/../lib/gcc/x86_64-w64-mingw32/8.1.0/../../../../x86_64-w64-mingw32/lib/../lib/libmsvcrt.a(duags01157.o)
                                                  c:/ProgramFiles/mingw-w64-x86_64-8.1.0-posix-seh-rt_v6-rev0/mingw64/bin/../lib/gcc/x86_64-w64-mingw32/8.1.0/../../../../x86_64-w64-mingw32/lib/../lib/libmsvcrt.a(duags01159.o)
                                                  c:/ProgramFiles/mingw-w64-x86_64-8.1.0-posix-seh-rt_v6-rev0/mingw64/bin/../lib/gcc/x86_64-w64-mingw32/8.1.0/../../../../x86_64-w64-mingw32/lib/../lib/libmsvcrt.a(duags01170.o)
                                                  c:/ProgramFiles/mingw-w64-x86_64-8.1.0-posix-seh-rt_v6-rev0/mingw64/bin/../lib/gcc/x86_64-w64-mingw32/8.1.0/../../../../x86_64-w64-mingw32/lib/../lib/libmsvcrt.a(duags01175.o)
                                                  c:/ProgramFiles/mingw-w64-x86_64-8.1.0-posix-seh-rt_v6-rev0/mingw64/bin/../lib/gcc/x86_64-w64-mingw32/8.1.0/../../../../x86_64-w64-mingw32/lib/../lib/libmsvcrt.a(duags01176.o)
                                                  c:/ProgramFiles/mingw-w64-x86_64-8.1.0-posix-seh-rt_v6-rev0/mingw64/bin/../lib/gcc/x86_64-w64-mingw32/8.1.0/../../../../x86_64-w64-mingw32/lib/../lib/libmsvcrt.a(duags01187.o)
                                                  c:/ProgramFiles/mingw-w64-x86_64-8.1.0-posix-seh-rt_v6-rev0/mingw64/bin/../lib/gcc/x86_64-w64-mingw32/8.1.0/../../../../x86_64-w64-mingw32/lib/../lib/libmsvcrt.a(duags01200.o)
                                                  c:/ProgramFiles/mingw-w64-x86_64-8.1.0-posix-seh-rt_v6-rev0/mingw64/bin/../lib/gcc/x86_64-w64-mingw32/8.1.0/../../../../x86_64-w64-mingw32/lib/../lib/libmsvcrt.a(duags01201.o)
                                                  c:/ProgramFiles/mingw-w64-x86_64-8.1.0-posix-seh-rt_v6-rev0/mingw64/bin/../lib/gcc/x86_64-w64-mingw32/8.1.0/../../../../x86_64-w64-mingw32/lib/../lib/libmsvcrt.a(duags01203.o)
                                                  c:/ProgramFiles/mingw-w64-x86_64-8.1.0-posix-seh-rt_v6-rev0/mingw64/bin/../lib/gcc/x86_64-w64-mingw32/8.1.0/../../../../x86_64-w64-mingw32/lib/../lib/libmsvcrt.a(duags01208.o)
                                                  c:/ProgramFiles/mingw-w64-x86_64-8.1.0-posix-seh-rt_v6-rev0/mingw64/bin/../lib/gcc/x86_64-w64-mingw32/8.1.0/../../../../x86_64-w64-mingw32/lib/../lib/libmsvcrt.a(duags01209.o)
                                                  c:/ProgramFiles/mingw-w64-x86_64-8.1.0-posix-seh-rt_v6-rev0/mingw64/bin/../lib/gcc/x86_64-w64-mingw32/8.1.0/../../../../x86_64-w64-mingw32/lib/../lib/libmsvcrt.a(duags01211.o)
                                                  c:/ProgramFiles/mingw-w64-x86_64-8.1.0-posix-seh-rt_v6-rev0/mingw64/bin/../lib/gcc/x86_64-w64-mingw32/8.1.0/../../../../x86_64-w64-mingw32/lib/../lib/libmsvcrt.a(duags01212.o)
                                                  c:/ProgramFiles/mingw-w64-x86_64-8.1.0-posix-seh-rt_v6-rev0/mingw64/bin/../lib/gcc/x86_64-w64-mingw32/8.1.0/../../../../x86_64-w64-mingw32/lib/../lib/libmsvcrt.a(duags01214.o)
                                                  c:/ProgramFiles/mingw-w64-x86_64-8.1.0-posix-seh-rt_v6-rev0/mingw64/bin/../lib/gcc/x86_64-w64-mingw32/8.1.0/../../../../x86_64-w64-mingw32/lib/../lib/libmsvcrt.a(duags01243.o)
                                                  c:/ProgramFiles/mingw-w64-x86_64-8.1.0-posix-seh-rt_v6-rev0/mingw64/bin/../lib/gcc/x86_64-w64-mingw32/8.1.0/../../../../x86_64-w64-mingw32/lib/../lib/libmsvcrt.a(duags01260.o)
_head_lib64_libuser32_a                           c:/ProgramFiles/mingw-w64-x86_64-8.1.0-posix-seh-rt_v6-rev0/mingw64/bin/../lib/gcc/x86_64-w64-mingw32/8.1.0/../../../../x86_64-w64-mingw32/lib/../lib/libuser32.a(dyqeh.o)
                                                  c:/ProgramFiles/mingw-w64-x86_64-8.1.0-posix-seh-rt_v6-rev0/mingw64/bin/../lib/gcc/x86_64-w64-mingw32/8.1.0/../../../../x86_64-w64-mingw32/lib/../lib/libuser32.a(dyqes00619.o)
_initterm                                         c:/ProgramFiles/mingw-w64-x86_64-8.1.0-posix-seh-rt_v6-rev0/mingw64/bin/../lib/gcc/x86_64-w64-mingw32/8.1.0/../../../../x86_64-w64-mingw32/lib/../lib/libmsvcrt.a(duags00332.o)
                                                  c:/ProgramFiles/mingw-w64-x86_64-8.1.0-posix-seh-rt_v6-rev0/mingw64/bin/../lib/gcc/x86_64-w64-mingw32/8.1.0/../../../../x86_64-w64-mingw32/lib/../lib/crt2.o
_matherr                                          c:/ProgramFiles/mingw-w64-x86_64-8.1.0-posix-seh-rt_v6-rev0/mingw64/bin/../lib/gcc/x86_64-w64-mingw32/8.1.0/../../../../x86_64-w64-mingw32/lib/../lib/libmingw32.a(lib64_libmingw32_a-merr.o)
                                                  c:/ProgramFiles/mingw-w64-x86_64-8.1.0-posix-seh-rt_v6-rev0/mingw64/bin/../lib/gcc/x86_64-w64-mingw32/8.1.0/../../../../x86_64-w64-mingw32/lib/../lib/crt2.o
_newmode                                          c:/ProgramFiles/mingw-w64-x86_64-8.1.0-posix-seh-rt_v6-rev0/mingw64/bin/../lib/gcc/x86_64-w64-mingw32/8.1.0/../../../../x86_64-w64-mingw32/lib/../lib/libmingw32.a(lib64_libmingw32_a-_newmode.o)
                                                  c:/ProgramFiles/mingw-w64-x86_64-8.1.0-posix-seh-rt_v6-rev0/mingw64/bin/../lib/gcc/x86_64-w64-mingw32/8.1.0/../../../../x86_64-w64-mingw32/lib/../lib/crt2.o
_onexit                                           c:/ProgramFiles/mingw-w64-x86_64-8.1.0-posix-seh-rt_v6-rev0/mingw64/bin/../lib/gcc/x86_64-w64-mingw32/8.1.0/../../../../x86_64-w64-mingw32/lib/../lib/libmsvcrt.a(duags00614.o)
                                                  c:/ProgramFiles/mingw-w64-x86_64-8.1.0-posix-seh-rt_v6-rev0/mingw64/bin/../lib/gcc/x86_64-w64-mingw32/8.1.0/../../../../x86_64-w64-mingw32/lib/../lib/crt2.o
_pei386_runtime_relocator                         c:/ProgramFiles/mingw-w64-x86_64-8.1.0-posix-seh-rt_v6-rev0/mingw64/bin/../lib/gcc/x86_64-w64-mingw32/8.1.0/../../../../x86_64-w64-mingw32/lib/../lib/libmingw32.a(lib64_libmingw32_a-pseudo-reloc.o)
                                                  c:/ProgramFiles/mingw-w64-x86_64-8.1.0-posix-seh-rt_v6-rev0/mingw64/bin/../lib/gcc/x86_64-w64-mingw32/8.1.0/../../../../x86_64-w64-mingw32/lib/../lib/crt2.o
_set_invalid_parameter_handler                    c:/ProgramFiles/mingw-w64-x86_64-8.1.0-posix-seh-rt_v6-rev0/mingw64/bin/../lib/gcc/x86_64-w64-mingw32/8.1.0/../../../../x86_64-w64-mingw32/lib/../lib/libmsvcrt.a(lib64_libmsvcrt_os_a-invalid_parameter_handler.o)
                                                  c:/ProgramFiles/mingw-w64-x86_64-8.1.0-posix-seh-rt_v6-rev0/mingw64/bin/../lib/gcc/x86_64-w64-mingw32/8.1.0/../../../../x86_64-w64-mingw32/lib/../lib/crt2.o
_setargv                                          c:/ProgramFiles/mingw-w64-x86_64-8.1.0-posix-seh-rt_v6-rev0/mingw64/bin/../lib/gcc/x86_64-w64-mingw32/8.1.0/../../../../x86_64-w64-mingw32/lib/../lib/libmingw32.a(lib64_libmingw32_a-dllargv.o)
                                                  c:/ProgramFiles/mingw-w64-x86_64-8.1.0-posix-seh-rt_v6-rev0/mingw64/bin/../lib/gcc/x86_64-w64-mingw32/8.1.0/../../../../x86_64-w64-mingw32/lib/../lib/crt2.o
_snwprintf                                        c:/ProgramFiles/mingw-w64-x86_64-8.1.0-posix-seh-rt_v6-rev0/mingw64/bin/../lib/gcc/x86_64-w64-mingw32/8.1.0/../../../../x86_64-w64-mingw32/lib/../lib/libmsvcrt.a(duags00689.o)
                                                  c:/ProgramFiles/mingw-w64-x86_64-8.1.0-posix-seh-rt_v6-rev0/mingw64/bin/../lib/gcc/x86_64-w64-mingw32/8.1.0/../../../../x86_64-w64-mingw32/lib/../lib/libmingwex.a(lib64_libmingwex_a-wassert.o)
_tls_end                                          c:/ProgramFiles/mingw-w64-x86_64-8.1.0-posix-seh-rt_v6-rev0/mingw64/bin/../lib/gcc/x86_64-w64-mingw32/8.1.0/../../../../x86_64-w64-mingw32/lib/../lib/libmingw32.a(lib64_libmingw32_a-tlssup.o)
_tls_index                                        c:/ProgramFiles/mingw-w64-x86_64-8.1.0-posix-seh-rt_v6-rev0/mingw64/bin/../lib/gcc/x86_64-w64-mingw32/8.1.0/../../../../x86_64-w64-mingw32/lib/../lib/libmingw32.a(lib64_libmingw32_a-tlssup.o)
_tls_start                                        c:/ProgramFiles/mingw-w64-x86_64-8.1.0-posix-seh-rt_v6-rev0/mingw64/bin/../lib/gcc/x86_64-w64-mingw32/8.1.0/../../../../x86_64-w64-mingw32/lib/../lib/libmingw32.a(lib64_libmingw32_a-tlssup.o)
_tls_used                                         c:/ProgramFiles/mingw-w64-x86_64-8.1.0-posix-seh-rt_v6-rev0/mingw64/bin/../lib/gcc/x86_64-w64-mingw32/8.1.0/../../../../x86_64-w64-mingw32/lib/../lib/libmingw32.a(lib64_libmingw32_a-tlssup.o)
_vsnprintf                                        c:/ProgramFiles/mingw-w64-x86_64-8.1.0-posix-seh-rt_v6-rev0/mingw64/bin/../lib/gcc/x86_64-w64-mingw32/8.1.0/../../../../x86_64-w64-mingw32/lib/../lib/libmsvcrt.a(duags00852.o)
                                                  c:/ProgramFiles/mingw-w64-x86_64-8.1.0-posix-seh-rt_v6-rev0/mingw64/bin/../lib/gcc/x86_64-w64-mingw32/8.1.0/../../../../x86_64-w64-mingw32/lib/../lib/libmingwex.a(lib64_libmingwex_a-vsnprintf.o)
_wassert                                          c:/ProgramFiles/mingw-w64-x86_64-8.1.0-posix-seh-rt_v6-rev0/mingw64/bin/../lib/gcc/x86_64-w64-mingw32/8.1.0/../../../../x86_64-w64-mingw32/lib/../lib/libmingwex.a(lib64_libmingwex_a-wassert.o)
abort                                             c:/ProgramFiles/mingw-w64-x86_64-8.1.0-posix-seh-rt_v6-rev0/mingw64/bin/../lib/gcc/x86_64-w64-mingw32/8.1.0/../../../../x86_64-w64-mingw32/lib/../lib/libmsvcrt.a(duags01032.o)
                                                  c:/ProgramFiles/mingw-w64-x86_64-8.1.0-posix-seh-rt_v6-rev0/mingw64/bin/../lib/gcc/x86_64-w64-mingw32/8.1.0/../../../../x86_64-w64-mingw32/lib/../lib/libmingwex.a(lib64_libmingwex_a-wassert.o)
                                                  c:/ProgramFiles/mingw-w64-x86_64-8.1.0-posix-seh-rt_v6-rev0/mingw64/bin/../lib/gcc/x86_64-w64-mingw32/8.1.0/../../../../x86_64-w64-mingw32/lib/../lib/libmingw32.a(lib64_libmingw32_a-pseudo-reloc.o)
                                                  c:/ProgramFiles/mingw-w64-x86_64-8.1.0-posix-seh-rt_v6-rev0/mingw64/bin/../lib/gcc/x86_64-w64-mingw32/8.1.0/../../../../x86_64-w64-mingw32/lib/../lib/libmingw32.a(lib64_libmingw32_a-gs_support.o)
apt_canBusOff                                     bin/win/DEBUG/obj/apt_applicationTask.o
apt_hDispatcherSystemAry                          bin/win/DEBUG/obj/apt_applicationTask.o
                                                  bin/win/DEBUG/obj/cbk_callbacks.o
apt_irqHandlerBusOff                              bin/win/DEBUG/obj/apt_applicationTask.o
                                                  bin/win/DEBUG/obj/main.o
apt_irqHandlerRxCan                               bin/win/DEBUG/obj/apt_applicationTask.o
                                                  bin/win/DEBUG/obj/main.o
apt_task100ms                                     bin/win/DEBUG/obj/apt_applicationTask.o
                                                  bin/win/DEBUG/obj/main.o
apt_task10ms                                      bin/win/DEBUG/obj/apt_applicationTask.o
                                                  bin/win/DEBUG/obj/main.o
apt_taskInit                                      bin/win/DEBUG/obj/apt_applicationTask.o
                                                  bin/win/DEBUG/obj/main.o
apt_taskShutdown                                  bin/win/DEBUG/obj/apt_applicationTask.o
                                                  bin/win/DEBUG/obj/main.o
atexit                                            c:/ProgramFiles/mingw-w64-x86_64-8.1.0-posix-seh-rt_v6-rev0/mingw64/bin/../lib/gcc/x86_64-w64-mingw32/8.1.0/../../../../x86_64-w64-mingw32/lib/../lib/crt2.o
                                                  c:/ProgramFiles/mingw-w64-x86_64-8.1.0-posix-seh-rt_v6-rev0/mingw64/bin/../lib/gcc/x86_64-w64-mingw32/8.1.0/../../../../x86_64-w64-mingw32/lib/../lib/libmingwex.a(lib64_libmingwex_a-misc.o)
                                                  c:/ProgramFiles/mingw-w64-x86_64-8.1.0-posix-seh-rt_v6-rev0/mingw64/bin/../lib/gcc/x86_64-w64-mingw32/8.1.0/../../../../x86_64-w64-mingw32/lib/../lib/libmingw32.a(lib64_libmingw32_a-gccmain.o)
                                                  c:/ProgramFiles/mingw-w64-x86_64-8.1.0-posix-seh-rt_v6-rev0/mingw64/bin/../lib/gcc/x86_64-w64-mingw32/8.1.0/crtbegin.o
bsearch                                           c:/ProgramFiles/mingw-w64-x86_64-8.1.0-posix-seh-rt_v6-rev0/mingw64/bin/../lib/gcc/x86_64-w64-mingw32/8.1.0/../../../../x86_64-w64-mingw32/lib/../lib/libmsvcrt.a(duags01048.o)
                                                  bin/win/DEBUG/obj/mci_mapBinarySearchCanId.o
calloc                                            c:/ProgramFiles/mingw-w64-x86_64-8.1.0-posix-seh-rt_v6-rev0/mingw64/bin/../lib/gcc/x86_64-w64-mingw32/8.1.0/../../../../x86_64-w64-mingw32/lib/../lib/libmsvcrt.a(duags01050.o)
                                                  c:/ProgramFiles/mingw-w64-x86_64-8.1.0-posix-seh-rt_v6-rev0/mingw64/bin/../lib/gcc/x86_64-w64-mingw32/8.1.0/../../../../x86_64-w64-mingw32/lib/../lib/libmingw32.a(lib64_libmingw32_a-tlsthrd.o)
cbk_initInterface                                 bin/win/DEBUG/obj/cbk_callbacks.o
                                                  bin/win/DEBUG/obj/apt_applicationTask.o
chk_computeChecksum                               bin/win/DEBUG/obj/chk_checksum.o
                                                  bin/win/DEBUG/obj/cbk_callbacks.o
chk_updateSequenceCounter                         bin/win/DEBUG/obj/chk_checksum.o
                                                  bin/win/DEBUG/obj/cbk_callbacks.o
chk_validateChecksum                              bin/win/DEBUG/obj/chk_checksum.o
                                                  bin/win/DEBUG/obj/cbk_callbacks.o
chk_validateSequenceCounter                       bin/win/DEBUG/obj/chk_checksum.o
                                                  bin/win/DEBUG/obj/cbk_callbacks.o
clock                                             c:/ProgramFiles/mingw-w64-x86_64-8.1.0-posix-seh-rt_v6-rev0/mingw64/bin/../lib/gcc/x86_64-w64-mingw32/8.1.0/../../../../x86_64-w64-mingw32/lib/../lib/libmsvcrt.a(duags01055.o)
                                                  bin/win/DEBUG/obj/log_logger.o
closedir                                          c:/ProgramFiles/mingw-w64-x86_64-8.1.0-posix-seh-rt_v6-rev0/mingw64/bin/../lib/gcc/x86_64-w64-mingw32/8.1.0/../../../../x86_64-w64-mingw32/lib/../lib/libmingwex.a(lib64_libmingwex_a-dirent.o)
                                                  bin/win/DEBUG/obj/fil_file.o
ctime                                             c:/ProgramFiles/mingw-w64-x86_64-8.1.0-posix-seh-rt_v6-rev0/mingw64/bin/../lib/gcc/x86_64-w64-mingw32/8.1.0/../../../../x86_64-w64-mingw32/lib/../lib/libmsvcrt.a(duags01060.o)
                                                  bin/win/DEBUG/obj/main.o
                                                  bin/win/DEBUG/obj/log_logger.o
ede_createDispatcher                              bin/win/DEBUG/obj/ede_eventDispatcherEngine.o
                                                  bin/win/DEBUG/obj/apt_applicationTask.o
ede_createDispatcherSystem                        bin/win/DEBUG/obj/ede_eventDispatcherEngine.o
                                                  bin/win/DEBUG/obj/apt_applicationTask.o
ede_createPeriodicTimer                           bin/win/DEBUG/obj/ede_eventDispatcherEngine.o
                                                  bin/win/DEBUG/obj/cbk_callbacks.o
ede_createSender                                  bin/win/DEBUG/obj/ede_eventSender.o
                                                  bin/win/DEBUG/obj/apt_applicationTask.o
ede_createSingleShotTimer                         bin/win/DEBUG/obj/ede_eventDispatcherEngine.o
                                                  bin/win/DEBUG/obj/cbk_callbacks.o
                                                  bin/win/DEBUG/obj/apt_applicationTask.o
ede_dispatcherMain                                bin/win/DEBUG/obj/ede_eventDispatcherEngine.o
                                                  bin/win/DEBUG/obj/apt_applicationTask.o
ede_getEventData                                  bin/win/DEBUG/obj/ede_eventDispatcherEngine.o
                                                  bin/win/DEBUG/obj/cbk_callbacks.o
ede_getEventSourceData                            bin/win/DEBUG/obj/ede_eventDispatcherEngine.o
                                                  bin/win/DEBUG/obj/cbk_callbacks.o
ede_getHandleTimer                                bin/win/DEBUG/obj/ede_eventDispatcherEngine.o
ede_getIdxEventSource                             bin/win/DEBUG/obj/ede_eventDispatcherEngine.o
ede_getIdxExternalEventSource                     bin/win/DEBUG/obj/ede_eventDispatcherEngine.o
ede_getIdxInternalEventSource                     bin/win/DEBUG/obj/ede_eventDispatcherEngine.o
ede_getIdxPort                                    bin/win/DEBUG/obj/ede_eventDispatcherEngine.o
ede_getKindOfEvent                                bin/win/DEBUG/obj/ede_eventDispatcherEngine.o
                                                  bin/win/DEBUG/obj/cbk_callbacks.o
                                                  bin/win/DEBUG/obj/apt_applicationTask.o
ede_getNoSenderPortBlockedEvents                  bin/win/DEBUG/obj/ede_eventSender.o
                                                  bin/win/DEBUG/obj/apt_applicationTask.o
ede_getTimerContextData                           bin/win/DEBUG/obj/ede_eventDispatcherEngine.o
ede_installCallback                               bin/win/DEBUG/obj/ede_eventDispatcherEngine.o
                                                  bin/win/DEBUG/obj/cbk_callbacks.o
                                                  bin/win/DEBUG/obj/apt_applicationTask.o
ede_killTimer                                     bin/win/DEBUG/obj/ede_eventDispatcherEngine.o
                                                  bin/win/DEBUG/obj/apt_applicationTask.o
ede_postEvent                                     bin/win/DEBUG/obj/ede_eventSender.o
                                                  bin/win/DEBUG/obj/apt_applicationTask.o
ede_postEventToPort                               bin/win/DEBUG/obj/ede_eventSender.o
ede_registerExternalEventSource                   bin/win/DEBUG/obj/ede_eventDispatcherEngine.o
                                                  bin/win/DEBUG/obj/cbk_callbacks.o
                                                  bin/win/DEBUG/obj/apt_applicationTask.o
ede_registerInternalEventSource                   bin/win/DEBUG/obj/ede_eventDispatcherEngine.o
                                                  bin/win/DEBUG/obj/cbk_callbacks.o
ede_retriggerSingleShotTimer                      bin/win/DEBUG/obj/ede_eventDispatcherEngine.o
                                                  bin/win/DEBUG/obj/cbk_callbacks.o
                                                  bin/win/DEBUG/obj/apt_applicationTask.o
ede_suspendSingleShotTimer                        bin/win/DEBUG/obj/ede_eventDispatcherEngine.o
exit                                              c:/ProgramFiles/mingw-w64-x86_64-8.1.0-posix-seh-rt_v6-rev0/mingw64/bin/../lib/gcc/x86_64-w64-mingw32/8.1.0/../../../../x86_64-w64-mingw32/lib/../lib/libmsvcrt.a(duags01063.o)
                                                  bin/win/DEBUG/obj/main.o
                                                  bin/win/DEBUG/obj/log_logger.o
                                                  bin/win/DEBUG/obj/fil_file.o
                                                  c:/ProgramFiles/mingw-w64-x86_64-8.1.0-posix-seh-rt_v6-rev0/mingw64/bin/../lib/gcc/x86_64-w64-mingw32/8.1.0/../../../../x86_64-w64-mingw32/lib/../lib/crt2.o
fclose                                            c:/ProgramFiles/mingw-w64-x86_64-8.1.0-posix-seh-rt_v6-rev0/mingw64/bin/../lib/gcc/x86_64-w64-mingw32/8.1.0/../../../../x86_64-w64-mingw32/lib/../lib/libmsvcrt.a(duags01067.o)
                                                  bin/win/DEBUG/obj/log_logger.o
                                                  bin/win/DEBUG/obj/fil_file.o
ferror                                            c:/ProgramFiles/mingw-w64-x86_64-8.1.0-posix-seh-rt_v6-rev0/mingw64/bin/../lib/gcc/x86_64-w64-mingw32/8.1.0/../../../../x86_64-w64-mingw32/lib/../lib/libmsvcrt.a(duags01069.o)
                                                  bin/win/DEBUG/obj/log_logger.o
                                                  bin/win/DEBUG/obj/fil_file.o
fflush                                            c:/ProgramFiles/mingw-w64-x86_64-8.1.0-posix-seh-rt_v6-rev0/mingw64/bin/../lib/gcc/x86_64-w64-mingw32/8.1.0/../../../../x86_64-w64-mingw32/lib/../lib/libmsvcrt.a(duags01070.o)
                                                  bin/win/DEBUG/obj/log_logger.o
fgetc                                             c:/ProgramFiles/mingw-w64-x86_64-8.1.0-posix-seh-rt_v6-rev0/mingw64/bin/../lib/gcc/x86_64-w64-mingw32/8.1.0/../../../../x86_64-w64-mingw32/lib/../lib/libmsvcrt.a(duags01071.o)
                                                  bin/win/DEBUG/obj/fil_file.o
fil_changeExtension                               bin/win/DEBUG/obj/fil_file.o
fil_changeFileName                                bin/win/DEBUG/obj/fil_file.o
fil_copyDir                                       bin/win/DEBUG/obj/fil_file.o
fil_copyFile                                      bin/win/DEBUG/obj/fil_file.o
fil_splitPath                                     bin/win/DEBUG/obj/fil_file.o
                                                  bin/win/DEBUG/obj/main.o
fopen                                             c:/ProgramFiles/mingw-w64-x86_64-8.1.0-posix-seh-rt_v6-rev0/mingw64/bin/../lib/gcc/x86_64-w64-mingw32/8.1.0/../../../../x86_64-w64-mingw32/lib/../lib/libmsvcrt.a(duags01080.o)
                                                  bin/win/DEBUG/obj/oss_operatingSystemSimulation.o
                                                  bin/win/DEBUG/obj/log_logger.o
                                                  bin/win/DEBUG/obj/fil_file.o
fpreset                                           c:/ProgramFiles/mingw-w64-x86_64-8.1.0-posix-seh-rt_v6-rev0/mingw64/bin/../lib/gcc/x86_64-w64-mingw32/8.1.0/../../../../x86_64-w64-mingw32/lib/../lib/libmingw32.a(lib64_libmingw32_a-CRT_fp10.o)
fprintf                                           c:/ProgramFiles/mingw-w64-x86_64-8.1.0-posix-seh-rt_v6-rev0/mingw64/bin/../lib/gcc/x86_64-w64-mingw32/8.1.0/../../../../x86_64-w64-mingw32/lib/../lib/libmsvcrt.a(duags01082.o)
                                                  c:/ProgramFiles/mingw-w64-x86_64-8.1.0-posix-seh-rt_v6-rev0/mingw64/bin/../lib/gcc/x86_64-w64-mingw32/8.1.0/../../../../x86_64-w64-mingw32/lib/../lib/libmingwex.a(lib64_libmingwex_a-getopt.o)
                                                  c:/ProgramFiles/mingw-w64-x86_64-8.1.0-posix-seh-rt_v6-rev0/mingw64/bin/../lib/gcc/x86_64-w64-mingw32/8.1.0/../../../../x86_64-w64-mingw32/lib/../lib/libmingw32.a(lib64_libmingw32_a-merr.o)
                                                  bin/win/DEBUG/obj/oss_operatingSystemSimulation.o
                                                  bin/win/DEBUG/obj/opt_getOpt.o
                                                  bin/win/DEBUG/obj/main.o
                                                  bin/win/DEBUG/obj/log_logger.o
                                                  bin/win/DEBUG/obj/fil_file.o
fputc                                             c:/ProgramFiles/mingw-w64-x86_64-8.1.0-posix-seh-rt_v6-rev0/mingw64/bin/../lib/gcc/x86_64-w64-mingw32/8.1.0/../../../../x86_64-w64-mingw32/lib/../lib/libmsvcrt.a(duags01084.o)
                                                  c:/ProgramFiles/mingw-w64-x86_64-8.1.0-posix-seh-rt_v6-rev0/mingw64/bin/../lib/gcc/x86_64-w64-mingw32/8.1.0/../../../../x86_64-w64-mingw32/lib/../lib/libmingwex.a(lib64_libmingwex_a-getopt.o)
                                                  bin/win/DEBUG/obj/oss_operatingSystemSimulation.o
                                                  bin/win/DEBUG/obj/log_logger.o
                                                  bin/win/DEBUG/obj/fil_file.o
fputs                                             c:/ProgramFiles/mingw-w64-x86_64-8.1.0-posix-seh-rt_v6-rev0/mingw64/bin/../lib/gcc/x86_64-w64-mingw32/8.1.0/../../../../x86_64-w64-mingw32/lib/../lib/libmsvcrt.a(duags01085.o)
                                                  bin/win/DEBUG/obj/log_logger.o
free                                              c:/ProgramFiles/mingw-w64-x86_64-8.1.0-posix-seh-rt_v6-rev0/mingw64/bin/../lib/gcc/x86_64-w64-mingw32/8.1.0/../../../../x86_64-w64-mingw32/lib/../lib/libmsvcrt.a(duags01089.o)
                                                  c:/ProgramFiles/mingw-w64-x86_64-8.1.0-posix-seh-rt_v6-rev0/mingw64/bin/../lib/gcc/x86_64-w64-mingw32/8.1.0/../../../../x86_64-w64-mingw32/lib/../lib/libmingwex.a(lib64_libmingwex_a-misc.o)
                                                  c:/ProgramFiles/mingw-w64-x86_64-8.1.0-posix-seh-rt_v6-rev0/mingw64/bin/../lib/gcc/x86_64-w64-mingw32/8.1.0/../../../../x86_64-w64-mingw32/lib/../lib/libmingwex.a(lib64_libmingwex_a-wassert.o)
                                                  c:/ProgramFiles/mingw-w64-x86_64-8.1.0-posix-seh-rt_v6-rev0/mingw64/bin/../lib/gcc/x86_64-w64-mingw32/8.1.0/../../../../x86_64-w64-mingw32/lib/../lib/libmingwex.a(lib64_libmingwex_a-dirent.o)
                                                  c:/ProgramFiles/mingw-w64-x86_64-8.1.0-posix-seh-rt_v6-rev0/mingw64/bin/../lib/gcc/x86_64-w64-mingw32/8.1.0/../../../../x86_64-w64-mingw32/lib/../lib/libmingw32.a(lib64_libmingw32_a-tlsthrd.o)
                                                  bin/win/DEBUG/obj/main.o
                                                  bin/win/DEBUG/obj/log_logger.o
                                                  bin/win/DEBUG/obj/fil_file.o
fwprintf                                          c:/ProgramFiles/mingw-w64-x86_64-8.1.0-posix-seh-rt_v6-rev0/mingw64/bin/../lib/gcc/x86_64-w64-mingw32/8.1.0/../../../../x86_64-w64-mingw32/lib/../lib/libmsvcrt.a(duags01099.o)
                                                  c:/ProgramFiles/mingw-w64-x86_64-8.1.0-posix-seh-rt_v6-rev0/mingw64/bin/../lib/gcc/x86_64-w64-mingw32/8.1.0/../../../../x86_64-w64-mingw32/lib/../lib/libmingwex.a(lib64_libmingwex_a-wassert.o)
fwrite                                            c:/ProgramFiles/mingw-w64-x86_64-8.1.0-posix-seh-rt_v6-rev0/mingw64/bin/../lib/gcc/x86_64-w64-mingw32/8.1.0/../../../../x86_64-w64-mingw32/lib/../lib/libmsvcrt.a(duags01101.o)
                                                  c:/ProgramFiles/mingw-w64-x86_64-8.1.0-posix-seh-rt_v6-rev0/mingw64/bin/../lib/gcc/x86_64-w64-mingw32/8.1.0/../../../../x86_64-w64-mingw32/lib/../lib/libmingw32.a(lib64_libmingw32_a-pseudo-reloc.o)
                                                  bin/win/DEBUG/obj/opt_getOpt.o
getenv                                            c:/ProgramFiles/mingw-w64-x86_64-8.1.0-posix-seh-rt_v6-rev0/mingw64/bin/../lib/gcc/x86_64-w64-mingw32/8.1.0/../../../../x86_64-w64-mingw32/lib/../lib/libmsvcrt.a(duags01106.o)
                                                  c:/ProgramFiles/mingw-w64-x86_64-8.1.0-posix-seh-rt_v6-rev0/mingw64/bin/../lib/gcc/x86_64-w64-mingw32/8.1.0/../../../../x86_64-w64-mingw32/lib/../lib/libmingwex.a(lib64_libmingwex_a-getopt.o)
getopt                                            c:/ProgramFiles/mingw-w64-x86_64-8.1.0-posix-seh-rt_v6-rev0/mingw64/bin/../lib/gcc/x86_64-w64-mingw32/8.1.0/../../../../x86_64-w64-mingw32/lib/../lib/libmingwex.a(lib64_libmingwex_a-getopt.o)
getopt_long                                       c:/ProgramFiles/mingw-w64-x86_64-8.1.0-posix-seh-rt_v6-rev0/mingw64/bin/../lib/gcc/x86_64-w64-mingw32/8.1.0/../../../../x86_64-w64-mingw32/lib/../lib/libmingwex.a(lib64_libmingwex_a-getopt.o)
                                                  bin/win/DEBUG/obj/opt_getOpt.o
getopt_long_only                                  c:/ProgramFiles/mingw-w64-x86_64-8.1.0-posix-seh-rt_v6-rev0/mingw64/bin/../lib/gcc/x86_64-w64-mingw32/8.1.0/../../../../x86_64-w64-mingw32/lib/../lib/libmingwex.a(lib64_libmingwex_a-getopt.o)
isprint                                           c:/ProgramFiles/mingw-w64-x86_64-8.1.0-posix-seh-rt_v6-rev0/mingw64/bin/../lib/gcc/x86_64-w64-mingw32/8.1.0/../../../../x86_64-w64-mingw32/lib/../lib/libmsvcrt.a(duags01120.o)
localeconv                                        c:/ProgramFiles/mingw-w64-x86_64-8.1.0-posix-seh-rt_v6-rev0/mingw64/bin/../lib/gcc/x86_64-w64-mingw32/8.1.0/../../../../x86_64-w64-mingw32/lib/../lib/libmsvcrt.a(duags01142.o)
                                                  c:/ProgramFiles/mingw-w64-x86_64-8.1.0-posix-seh-rt_v6-rev0/mingw64/bin/../lib/gcc/x86_64-w64-mingw32/8.1.0/../../../../x86_64-w64-mingw32/lib/../lib/libmingwex.a(lib64_libmingwex_a-gethex.o)
                                                  c:/ProgramFiles/mingw-w64-x86_64-8.1.0-posix-seh-rt_v6-rev0/mingw64/bin/../lib/gcc/x86_64-w64-mingw32/8.1.0/../../../../x86_64-w64-mingw32/lib/../lib/libmingwex.a(lib64_libmingwex_a-strtodg.o)
log_cloneByReference                              bin/win/DEBUG/obj/log_logger.o
log_close                                         bin/win/DEBUG/obj/log_logger.o
log_createLogger                                  bin/win/DEBUG/obj/log_logger.o
                                                  bin/win/DEBUG/obj/main.o
log_deleteLogger                                  bin/win/DEBUG/obj/log_logger.o
                                                  bin/win/DEBUG/obj/main.o
log_flush                                         bin/win/DEBUG/obj/log_logger.o
log_getLengthOfLineHeader                         bin/win/DEBUG/obj/log_logger.o
log_getStreams                                    bin/win/DEBUG/obj/log_logger.o
log_initModule                                    bin/win/DEBUG/obj/log_logger.o
                                                  bin/win/DEBUG/obj/main.o
log_log                                           bin/win/DEBUG/obj/log_logger.o
log_logLine                                       bin/win/DEBUG/obj/log_logger.o
                                                  bin/win/DEBUG/obj/pwr_computeEnginePower.o
                                                  bin/win/DEBUG/obj/oss_operatingSystemSimulation.o
                                                  bin/win/DEBUG/obj/mhn_mapOsFrameHandleToCanIfHandle.o
                                                  bin/win/DEBUG/obj/main.o
                                                  bin/win/DEBUG/obj/cbk_callbacks.o
                                                  bin/win/DEBUG/obj/apt_applicationTask.o
log_parseLineFormat                               bin/win/DEBUG/obj/log_logger.o
                                                  bin/win/DEBUG/obj/main.o
log_parseLogLevel                                 bin/win/DEBUG/obj/log_logger.o
                                                  bin/win/DEBUG/obj/main.o
log_setEchoToConsole                              bin/win/DEBUG/obj/log_logger.o
                                                  bin/win/DEBUG/obj/main.o
log_setLineFormat                                 bin/win/DEBUG/obj/log_logger.o
log_setLogLevel                                   bin/win/DEBUG/obj/log_logger.o
log_shutdownModule                                bin/win/DEBUG/obj/log_logger.o
                                                  bin/win/DEBUG/obj/main.o
m16_createMapDirectLookupU16                      bin/win/DEBUG/obj/m16_mapDirectLookupU16.o
main                                              bin/win/DEBUG/obj/main.o
                                                  c:/ProgramFiles/mingw-w64-x86_64-8.1.0-posix-seh-rt_v6-rev0/mingw64/bin/../lib/gcc/x86_64-w64-mingw32/8.1.0/../../../../x86_64-w64-mingw32/lib/../lib/crt2.o
mainCRTStartup                                    c:/ProgramFiles/mingw-w64-x86_64-8.1.0-posix-seh-rt_v6-rev0/mingw64/bin/../lib/gcc/x86_64-w64-mingw32/8.1.0/../../../../x86_64-w64-mingw32/lib/../lib/crt2.o
main_hGlobalLogger                                bin/win/DEBUG/obj/main.o
                                                  bin/win/DEBUG/obj/pwr_computeEnginePower.o
                                                  bin/win/DEBUG/obj/oss_operatingSystemSimulation.o
                                                  bin/win/DEBUG/obj/mhn_mapOsFrameHandleToCanIfHandle.o
                                                  bin/win/DEBUG/obj/cbk_callbacks.o
                                                  bin/win/DEBUG/obj/apt_applicationTask.o
malloc                                            c:/ProgramFiles/mingw-w64-x86_64-8.1.0-posix-seh-rt_v6-rev0/mingw64/bin/../lib/gcc/x86_64-w64-mingw32/8.1.0/../../../../x86_64-w64-mingw32/lib/../lib/libmsvcrt.a(duags01149.o)
                                                  c:/ProgramFiles/mingw-w64-x86_64-8.1.0-posix-seh-rt_v6-rev0/mingw64/bin/../lib/gcc/x86_64-w64-mingw32/8.1.0/../../../../x86_64-w64-mingw32/lib/../lib/libmingwex.a(lib64_libmingwex_a-misc.o)
                                                  c:/ProgramFiles/mingw-w64-x86_64-8.1.0-posix-seh-rt_v6-rev0/mingw64/bin/../lib/gcc/x86_64-w64-mingw32/8.1.0/../../../../x86_64-w64-mingw32/lib/../lib/libmingwex.a(lib64_libmingwex_a-wassert.o)
                                                  c:/ProgramFiles/mingw-w64-x86_64-8.1.0-posix-seh-rt_v6-rev0/mingw64/bin/../lib/gcc/x86_64-w64-mingw32/8.1.0/../../../../x86_64-w64-mingw32/lib/../lib/libmingwex.a(lib64_libmingwex_a-dirent.o)
                                                  bin/win/DEBUG/obj/main.o
                                                  bin/win/DEBUG/obj/log_logger.o
                                                  bin/win/DEBUG/obj/fil_file.o
                                                  c:/ProgramFiles/mingw-w64-x86_64-8.1.0-posix-seh-rt_v6-rev0/mingw64/bin/../lib/gcc/x86_64-w64-mingw32/8.1.0/../../../../x86_64-w64-mingw32/lib/../lib/crt2.o
mci_createMapBinarySearchCanId                    bin/win/DEBUG/obj/mci_mapBinarySearchCanId.o
mem_createMemoryPool                              bin/win/DEBUG/obj/mem_malloc.o
                                                  bin/win/DEBUG/obj/apt_applicationTask.o
memcmp                                            c:/ProgramFiles/mingw-w64-x86_64-8.1.0-posix-seh-rt_v6-rev0/mingw64/bin/../lib/gcc/x86_64-w64-mingw32/8.1.0/../../../../x86_64-w64-mingw32/lib/../lib/libmsvcrt.a(duags01156.o)
                                                  bin/win/DEBUG/obj/cbk_callbacks.o
memcpy                                            c:/ProgramFiles/mingw-w64-x86_64-8.1.0-posix-seh-rt_v6-rev0/mingw64/bin/../lib/gcc/x86_64-w64-mingw32/8.1.0/../../../../x86_64-w64-mingw32/lib/../lib/libmsvcrt.a(duags01157.o)
                                                  c:/ProgramFiles/mingw-w64-x86_64-8.1.0-posix-seh-rt_v6-rev0/mingw64/bin/../lib/gcc/x86_64-w64-mingw32/8.1.0/../../../../x86_64-w64-mingw32/lib/../lib/libmingwex.a(lib64_libmingwex_a-misc.o)
                                                  c:/ProgramFiles/mingw-w64-x86_64-8.1.0-posix-seh-rt_v6-rev0/mingw64/bin/../lib/gcc/x86_64-w64-mingw32/8.1.0/../../../../x86_64-w64-mingw32/lib/../lib/libmingwex.a(lib64_libmingwex_a-sum.o)
                                                  c:/ProgramFiles/mingw-w64-x86_64-8.1.0-posix-seh-rt_v6-rev0/mingw64/bin/../lib/gcc/x86_64-w64-mingw32/8.1.0/../../../../x86_64-w64-mingw32/lib/../lib/libmingwex.a(lib64_libmingwex_a-strtodg.o)
                                                  c:/ProgramFiles/mingw-w64-x86_64-8.1.0-posix-seh-rt_v6-rev0/mingw64/bin/../lib/gcc/x86_64-w64-mingw32/8.1.0/../../../../x86_64-w64-mingw32/lib/../lib/libmingwex.a(lib64_libmingwex_a-dirent.o)
                                                  bin/win/DEBUG/obj/vsq_threadSafeQueueVariableSize.o
                                                  bin/win/DEBUG/obj/opt_getOpt.o
                                                  bin/win/DEBUG/obj/ede_eventSender.o
                                                  c:/ProgramFiles/mingw-w64-x86_64-8.1.0-posix-seh-rt_v6-rev0/mingw64/bin/../lib/gcc/x86_64-w64-mingw32/8.1.0/../../../../x86_64-w64-mingw32/lib/../lib/crt2.o
memset                                            c:/ProgramFiles/mingw-w64-x86_64-8.1.0-posix-seh-rt_v6-rev0/mingw64/bin/../lib/gcc/x86_64-w64-mingw32/8.1.0/../../../../x86_64-w64-mingw32/lib/../lib/libmsvcrt.a(duags01159.o)
                                                  bin/win/DEBUG/obj/pck_packCanFrame.o
                                                  bin/win/DEBUG/obj/oss_operatingSystemSimulation.o
mhn_addMapEntrySenderEvHandleToSenderPortIndex    bin/win/DEBUG/obj/mhn_mapOsFrameHandleToCanIfHandle.o
                                                  bin/win/DEBUG/obj/cbk_callbacks.o
                                                  bin/win/DEBUG/obj/apt_applicationTask.o
mhn_addOsToEdeHandlePair                          bin/win/DEBUG/obj/mhn_mapOsFrameHandleToCanIfHandle.o
mhn_assignFrameToDispatcher                       bin/win/DEBUG/obj/mhn_mapOsFrameHandleToCanIfHandle.o
                                                  bin/win/DEBUG/obj/cbk_callbacks.o
mhn_initModule                                    bin/win/DEBUG/obj/mhn_mapOsFrameHandleToCanIfHandle.o
                                                  bin/win/DEBUG/obj/apt_applicationTask.o
mhn_mapOsFrameHandleToEdeIdx                      bin/win/DEBUG/obj/mhn_mapOsFrameHandleToCanIfHandle.o
mhn_mapSenderEvHandleToSenderPortIndex            bin/win/DEBUG/obj/mhn_mapOsFrameHandleToCanIfHandle.o
                                                  bin/win/DEBUG/obj/apt_applicationTask.o
mid_createMapIdentity                             bin/win/DEBUG/obj/mid_mapIdentity.o
mingw_app_type                                    c:/ProgramFiles/mingw-w64-x86_64-8.1.0-posix-seh-rt_v6-rev0/mingw64/bin/../lib/gcc/x86_64-w64-mingw32/8.1.0/../../../../x86_64-w64-mingw32/lib/../lib/libmingw32.a(lib64_libmingw32_a-mingw_helpers.o)
                                                  c:/ProgramFiles/mingw-w64-x86_64-8.1.0-posix-seh-rt_v6-rev0/mingw64/bin/../lib/gcc/x86_64-w64-mingw32/8.1.0/../../../../x86_64-w64-mingw32/lib/../lib/libmingwex.a(lib64_libmingwex_a-wassert.o)
                                                  c:/ProgramFiles/mingw-w64-x86_64-8.1.0-posix-seh-rt_v6-rev0/mingw64/bin/../lib/gcc/x86_64-w64-mingw32/8.1.0/../../../../x86_64-w64-mingw32/lib/../lib/crt2.o
mingw_initcharmax                                 c:/ProgramFiles/mingw-w64-x86_64-8.1.0-posix-seh-rt_v6-rev0/mingw64/bin/../lib/gcc/x86_64-w64-mingw32/8.1.0/../../../../x86_64-w64-mingw32/lib/../lib/libmingw32.a(lib64_libmingw32_a-charmax.o)
                                                  c:/ProgramFiles/mingw-w64-x86_64-8.1.0-posix-seh-rt_v6-rev0/mingw64/bin/../lib/gcc/x86_64-w64-mingw32/8.1.0/../../../../x86_64-w64-mingw32/lib/../lib/crt2.o
mingw_initltsdrot_force                           c:/ProgramFiles/mingw-w64-x86_64-8.1.0-posix-seh-rt_v6-rev0/mingw64/bin/../lib/gcc/x86_64-w64-mingw32/8.1.0/../../../../x86_64-w64-mingw32/lib/../lib/libmingw32.a(lib64_libmingw32_a-tlssup.o)
                                                  c:/ProgramFiles/mingw-w64-x86_64-8.1.0-posix-seh-rt_v6-rev0/mingw64/bin/../lib/gcc/x86_64-w64-mingw32/8.1.0/../../../../x86_64-w64-mingw32/lib/../lib/crt2.o
mingw_initltsdyn_force                            c:/ProgramFiles/mingw-w64-x86_64-8.1.0-posix-seh-rt_v6-rev0/mingw64/bin/../lib/gcc/x86_64-w64-mingw32/8.1.0/../../../../x86_64-w64-mingw32/lib/../lib/libmingw32.a(lib64_libmingw32_a-tlssup.o)
                                                  c:/ProgramFiles/mingw-w64-x86_64-8.1.0-posix-seh-rt_v6-rev0/mingw64/bin/../lib/gcc/x86_64-w64-mingw32/8.1.0/../../../../x86_64-w64-mingw32/lib/../lib/crt2.o
mingw_initltssuo_force                            c:/ProgramFiles/mingw-w64-x86_64-8.1.0-posix-seh-rt_v6-rev0/mingw64/bin/../lib/gcc/x86_64-w64-mingw32/8.1.0/../../../../x86_64-w64-mingw32/lib/../lib/libmingw32.a(lib64_libmingw32_a-tlssup.o)
                                                  c:/ProgramFiles/mingw-w64-x86_64-8.1.0-posix-seh-rt_v6-rev0/mingw64/bin/../lib/gcc/x86_64-w64-mingw32/8.1.0/../../../../x86_64-w64-mingw32/lib/../lib/crt2.o
mingw_pcinit                                      c:/ProgramFiles/mingw-w64-x86_64-8.1.0-posix-seh-rt_v6-rev0/mingw64/bin/../lib/gcc/x86_64-w64-mingw32/8.1.0/../../../../x86_64-w64-mingw32/lib/../lib/crt2.o
mingw_pcppinit                                    c:/ProgramFiles/mingw-w64-x86_64-8.1.0-posix-seh-rt_v6-rev0/mingw64/bin/../lib/gcc/x86_64-w64-mingw32/8.1.0/../../../../x86_64-w64-mingw32/lib/../lib/crt2.o
mkdir                                             c:/ProgramFiles/mingw-w64-x86_64-8.1.0-posix-seh-rt_v6-rev0/mingw64/bin/../lib/gcc/x86_64-w64-mingw32/8.1.0/../../../../x86_64-w64-mingw32/lib/../lib/libmsvcrt.a(duags00603.o)
                                                  bin/win/DEBUG/obj/fil_file.o
mpo_createMapOffsetOnly                           bin/win/DEBUG/obj/mpo_mapOffsetOnly.o
mu8_createMapDirectLookupU8                       bin/win/DEBUG/obj/mu8_mapDirectLookupU8.o
                                                  bin/win/DEBUG/obj/apt_applicationTask.o
opendir                                           c:/ProgramFiles/mingw-w64-x86_64-8.1.0-posix-seh-rt_v6-rev0/mingw64/bin/../lib/gcc/x86_64-w64-mingw32/8.1.0/../../../../x86_64-w64-mingw32/lib/../lib/libmingwex.a(lib64_libmingwex_a-dirent.o)
                                                  bin/win/DEBUG/obj/fil_file.o
opt_echoUserInput                                 bin/win/DEBUG/obj/opt_getOpt.o
opt_parseCmdLine                                  bin/win/DEBUG/obj/opt_getOpt.o
                                                  bin/win/DEBUG/obj/main.o
optarg                                            c:/ProgramFiles/mingw-w64-x86_64-8.1.0-posix-seh-rt_v6-rev0/mingw64/bin/../lib/gcc/x86_64-w64-mingw32/8.1.0/../../../../x86_64-w64-mingw32/lib/../lib/libmingwex.a(lib64_libmingwex_a-getopt.o)
                                                  bin/win/DEBUG/obj/opt_getOpt.o
opterr                                            c:/ProgramFiles/mingw-w64-x86_64-8.1.0-posix-seh-rt_v6-rev0/mingw64/bin/../lib/gcc/x86_64-w64-mingw32/8.1.0/../../../../x86_64-w64-mingw32/lib/../lib/libmingwex.a(lib64_libmingwex_a-getopt.o)
                                                  bin/win/DEBUG/obj/opt_getOpt.o
optind                                            c:/ProgramFiles/mingw-w64-x86_64-8.1.0-posix-seh-rt_v6-rev0/mingw64/bin/../lib/gcc/x86_64-w64-mingw32/8.1.0/../../../../x86_64-w64-mingw32/lib/../lib/libmingwex.a(lib64_libmingwex_a-getopt.o)
                                                  bin/win/DEBUG/obj/opt_getOpt.o
optopt                                            c:/ProgramFiles/mingw-w64-x86_64-8.1.0-posix-seh-rt_v6-rev0/mingw64/bin/../lib/gcc/x86_64-w64-mingw32/8.1.0/../../../../x86_64-w64-mingw32/lib/../lib/libmingwex.a(lib64_libmingwex_a-getopt.o)
                                                  bin/win/DEBUG/obj/opt_getOpt.o
oss_installIrqHandlerCanBusOff                    bin/win/DEBUG/obj/oss_operatingSystemSimulation.o
                                                  bin/win/DEBUG/obj/main.o
oss_installIrqHandlerCanRx                        bin/win/DEBUG/obj/oss_operatingSystemSimulation.o
                                                  bin/win/DEBUG/obj/main.o
oss_installTask                                   bin/win/DEBUG/obj/oss_operatingSystemSimulation.o
                                                  bin/win/DEBUG/obj/main.o
oss_kernel                                        bin/win/DEBUG/obj/oss_operatingSystemSimulation.o
                                                  bin/win/DEBUG/obj/main.o
oss_registerFrameForReception                     bin/win/DEBUG/obj/oss_operatingSystemSimulation.o
                                                  bin/win/DEBUG/obj/cbk_callbacks.o
oss_registerFrameForSending                       bin/win/DEBUG/obj/oss_operatingSystemSimulation.o
                                                  bin/win/DEBUG/obj/cbk_callbacks.o
oss_restartCanBus                                 bin/win/DEBUG/obj/oss_operatingSystemSimulation.o
                                                  bin/win/DEBUG/obj/apt_applicationTask.o
oss_sendCanFrame                                  bin/win/DEBUG/obj/oss_operatingSystemSimulation.o
                                                  bin/win/DEBUG/obj/cbk_callbacks.o
oss_tiSim                                         bin/win/DEBUG/obj/oss_operatingSystemSimulation.o
                                                  bin/win/DEBUG/obj/pwr_computeEnginePower.o
                                                  bin/win/DEBUG/obj/mhn_mapOsFrameHandleToCanIfHandle.o
                                                  bin/win/DEBUG/obj/cbk_callbacks.o
                                                  bin/win/DEBUG/obj/apt_applicationTask.o
oss_tiTick                                        bin/win/DEBUG/obj/oss_operatingSystemSimulation.o
pck_API_PT_InfoPowerDisplay_1536                  bin/win/DEBUG/obj/pck_packCanFrame.o
                                                  bin/win/DEBUG/obj/pwr_computeEnginePower.o
                                                  bin/win/DEBUG/obj/cbk_callbacks.o
pck_API_PT_LimitsPowerDisplay_1538                bin/win/DEBUG/obj/pck_packCanFrame.o
                                                  bin/win/DEBUG/obj/pwr_computeEnginePower.o
                                                  bin/win/DEBUG/obj/cbk_callbacks.o
pck_API_PT_StateEcu01_1024                        bin/win/DEBUG/obj/pck_packCanFrame.o
                                                  bin/win/DEBUG/obj/pwr_computeEnginePower.o
                                                  bin/win/DEBUG/obj/cbk_callbacks.o
pck_API_PT_StateEcu02_1040                        bin/win/DEBUG/obj/pck_packCanFrame.o
                                                  bin/win/DEBUG/obj/pwr_computeEnginePower.o
                                                  bin/win/DEBUG/obj/cbk_callbacks.o
pck_API_PT_StatusPowerDisplay_1537                bin/win/DEBUG/obj/pck_packCanFrame.o
                                                  bin/win/DEBUG/obj/pwr_computeEnginePower.o
                                                  bin/win/DEBUG/obj/cbk_callbacks.o
pck_API_PT_UserLimits_2032                        bin/win/DEBUG/obj/pck_packCanFrame.o
                                                  bin/win/DEBUG/obj/pwr_computeEnginePower.o
                                                  bin/win/DEBUG/obj/cbk_callbacks.o
pck_pack_PT_InfoPowerDisplay_1536                 bin/win/DEBUG/obj/pck_packCanFrame.o
                                                  bin/win/DEBUG/obj/cbk_callbacks.o
pck_pack_PT_LimitsPowerDisplay_1538               bin/win/DEBUG/obj/pck_packCanFrame.o
                                                  bin/win/DEBUG/obj/cbk_callbacks.o
pck_pack_PT_StatusPowerDisplay_1537               bin/win/DEBUG/obj/pck_packCanFrame.o
                                                  bin/win/DEBUG/obj/cbk_callbacks.o
pck_unpack_PT_StateEcu01_1024                     bin/win/DEBUG/obj/pck_packCanFrame.o
                                                  bin/win/DEBUG/obj/cbk_callbacks.o
pck_unpack_PT_StateEcu02_1040                     bin/win/DEBUG/obj/pck_packCanFrame.o
                                                  bin/win/DEBUG/obj/cbk_callbacks.o
pck_unpack_PT_UserLimits_2032                     bin/win/DEBUG/obj/pck_packCanFrame.o
                                                  bin/win/DEBUG/obj/cbk_callbacks.o
puts                                              c:/ProgramFiles/mingw-w64-x86_64-8.1.0-posix-seh-rt_v6-rev0/mingw64/bin/../lib/gcc/x86_64-w64-mingw32/8.1.0/../../../../x86_64-w64-mingw32/lib/../lib/libmsvcrt.a(duags01170.o)
                                                  bin/win/DEBUG/obj/main.o
pwr_checkUserLimits                               bin/win/DEBUG/obj/pwr_computeEnginePower.o
                                                  bin/win/DEBUG/obj/apt_applicationTask.o
pwr_computeEnginePwr                              bin/win/DEBUG/obj/pwr_computeEnginePower.o
                                                  bin/win/DEBUG/obj/apt_applicationTask.o
raise                                             c:/ProgramFiles/mingw-w64-x86_64-8.1.0-posix-seh-rt_v6-rev0/mingw64/bin/../lib/gcc/x86_64-w64-mingw32/8.1.0/../../../../x86_64-w64-mingw32/lib/../lib/libmsvcrt.a(duags01175.o)
                                                  c:/ProgramFiles/mingw-w64-x86_64-8.1.0-posix-seh-rt_v6-rev0/mingw64/bin/../lib/gcc/x86_64-w64-mingw32/8.1.0/../../../../x86_64-w64-mingw32/lib/../lib/libmingwex.a(lib64_libmingwex_a-wassert.o)
rand                                              c:/ProgramFiles/mingw-w64-x86_64-8.1.0-posix-seh-rt_v6-rev0/mingw64/bin/../lib/gcc/x86_64-w64-mingw32/8.1.0/../../../../x86_64-w64-mingw32/lib/../lib/libmsvcrt.a(duags01176.o)
                                                  bin/win/DEBUG/obj/oss_operatingSystemSimulation.o
readdir                                           c:/ProgramFiles/mingw-w64-x86_64-8.1.0-posix-seh-rt_v6-rev0/mingw64/bin/../lib/gcc/x86_64-w64-mingw32/8.1.0/../../../../x86_64-w64-mingw32/lib/../lib/libmingwex.a(lib64_libmingwex_a-dirent.o)
                                                  bin/win/DEBUG/obj/fil_file.o
rewinddir                                         c:/ProgramFiles/mingw-w64-x86_64-8.1.0-posix-seh-rt_v6-rev0/mingw64/bin/../lib/gcc/x86_64-w64-mingw32/8.1.0/../../../../x86_64-w64-mingw32/lib/../lib/libmingwex.a(lib64_libmingwex_a-dirent.o)
seekdir                                           c:/ProgramFiles/mingw-w64-x86_64-8.1.0-posix-seh-rt_v6-rev0/mingw64/bin/../lib/gcc/x86_64-w64-mingw32/8.1.0/../../../../x86_64-w64-mingw32/lib/../lib/libmingwex.a(lib64_libmingwex_a-dirent.o)
signal                                            c:/ProgramFiles/mingw-w64-x86_64-8.1.0-posix-seh-rt_v6-rev0/mingw64/bin/../lib/gcc/x86_64-w64-mingw32/8.1.0/../../../../x86_64-w64-mingw32/lib/../lib/libmsvcrt.a(duags01187.o)
                                                  c:/ProgramFiles/mingw-w64-x86_64-8.1.0-posix-seh-rt_v6-rev0/mingw64/bin/../lib/gcc/x86_64-w64-mingw32/8.1.0/../../../../x86_64-w64-mingw32/lib/../lib/libmingw32.a(lib64_libmingw32_a-crt_handler.o)
strchr                                            c:/ProgramFiles/mingw-w64-x86_64-8.1.0-posix-seh-rt_v6-rev0/mingw64/bin/../lib/gcc/x86_64-w64-mingw32/8.1.0/../../../../x86_64-w64-mingw32/lib/../lib/libmsvcrt.a(duags01200.o)
                                                  c:/ProgramFiles/mingw-w64-x86_64-8.1.0-posix-seh-rt_v6-rev0/mingw64/bin/../lib/gcc/x86_64-w64-mingw32/8.1.0/../../../../x86_64-w64-mingw32/lib/../lib/libmingwex.a(lib64_libmingwex_a-getopt.o)
                                                  bin/win/DEBUG/obj/fil_file.o
strcmp                                            c:/ProgramFiles/mingw-w64-x86_64-8.1.0-posix-seh-rt_v6-rev0/mingw64/bin/../lib/gcc/x86_64-w64-mingw32/8.1.0/../../../../x86_64-w64-mingw32/lib/../lib/libmsvcrt.a(duags01201.o)
                                                  bin/win/DEBUG/obj/fil_file.o
strcpy                                            c:/ProgramFiles/mingw-w64-x86_64-8.1.0-posix-seh-rt_v6-rev0/mingw64/bin/../lib/gcc/x86_64-w64-mingw32/8.1.0/../../../../x86_64-w64-mingw32/lib/../lib/libmsvcrt.a(duags01203.o)
                                                  c:/ProgramFiles/mingw-w64-x86_64-8.1.0-posix-seh-rt_v6-rev0/mingw64/bin/../lib/gcc/x86_64-w64-mingw32/8.1.0/../../../../x86_64-w64-mingw32/lib/../lib/libmingwex.a(lib64_libmingwex_a-dirent.o)
                                                  bin/win/DEBUG/obj/main.o
                                                  bin/win/DEBUG/obj/log_logger.o
                                                  bin/win/DEBUG/obj/fil_file.o
stricmp                                           c:/ProgramFiles/mingw-w64-x86_64-8.1.0-posix-seh-rt_v6-rev0/mingw64/bin/../lib/gcc/x86_64-w64-mingw32/8.1.0/../../../../x86_64-w64-mingw32/lib/../lib/libmsvcrt.a(duags00735.o)
                                                  bin/win/DEBUG/obj/log_logger.o
strlen                                            c:/ProgramFiles/mingw-w64-x86_64-8.1.0-posix-seh-rt_v6-rev0/mingw64/bin/../lib/gcc/x86_64-w64-mingw32/8.1.0/../../../../x86_64-w64-mingw32/lib/../lib/libmsvcrt.a(duags01208.o)
                                                  c:/ProgramFiles/mingw-w64-x86_64-8.1.0-posix-seh-rt_v6-rev0/mingw64/bin/../lib/gcc/x86_64-w64-mingw32/8.1.0/../../../../x86_64-w64-mingw32/lib/../lib/libmingwex.a(lib64_libmingwex_a-strtodg.o)
                                                  c:/ProgramFiles/mingw-w64-x86_64-8.1.0-posix-seh-rt_v6-rev0/mingw64/bin/../lib/gcc/x86_64-w64-mingw32/8.1.0/../../../../x86_64-w64-mingw32/lib/../lib/libmingwex.a(lib64_libmingwex_a-wassert.o)
                                                  c:/ProgramFiles/mingw-w64-x86_64-8.1.0-posix-seh-rt_v6-rev0/mingw64/bin/../lib/gcc/x86_64-w64-mingw32/8.1.0/../../../../x86_64-w64-mingw32/lib/../lib/libmingwex.a(lib64_libmingwex_a-getopt.o)
                                                  c:/ProgramFiles/mingw-w64-x86_64-8.1.0-posix-seh-rt_v6-rev0/mingw64/bin/../lib/gcc/x86_64-w64-mingw32/8.1.0/../../../../x86_64-w64-mingw32/lib/../lib/libmingwex.a(lib64_libmingwex_a-dirent.o)
                                                  c:/ProgramFiles/mingw-w64-x86_64-8.1.0-posix-seh-rt_v6-rev0/mingw64/bin/../lib/gcc/x86_64-w64-mingw32/8.1.0/../../../../x86_64-w64-mingw32/lib/../lib/libmingw32.a(lib64_libmingw32_a-pesect.o)
                                                  bin/win/DEBUG/obj/main.o
                                                  bin/win/DEBUG/obj/log_logger.o
                                                  bin/win/DEBUG/obj/fil_file.o
                                                  c:/ProgramFiles/mingw-w64-x86_64-8.1.0-posix-seh-rt_v6-rev0/mingw64/bin/../lib/gcc/x86_64-w64-mingw32/8.1.0/../../../../x86_64-w64-mingw32/lib/../lib/crt2.o
strncat                                           c:/ProgramFiles/mingw-w64-x86_64-8.1.0-posix-seh-rt_v6-rev0/mingw64/bin/../lib/gcc/x86_64-w64-mingw32/8.1.0/../../../../x86_64-w64-mingw32/lib/../lib/libmsvcrt.a(duags01209.o)
                                                  bin/win/DEBUG/obj/main.o
strncmp                                           c:/ProgramFiles/mingw-w64-x86_64-8.1.0-posix-seh-rt_v6-rev0/mingw64/bin/../lib/gcc/x86_64-w64-mingw32/8.1.0/../../../../x86_64-w64-mingw32/lib/../lib/libmsvcrt.a(duags01211.o)
                                                  c:/ProgramFiles/mingw-w64-x86_64-8.1.0-posix-seh-rt_v6-rev0/mingw64/bin/../lib/gcc/x86_64-w64-mingw32/8.1.0/../../../../x86_64-w64-mingw32/lib/../lib/libmingwex.a(lib64_libmingwex_a-getopt.o)
                                                  c:/ProgramFiles/mingw-w64-x86_64-8.1.0-posix-seh-rt_v6-rev0/mingw64/bin/../lib/gcc/x86_64-w64-mingw32/8.1.0/../../../../x86_64-w64-mingw32/lib/../lib/libmingw32.a(lib64_libmingw32_a-pesect.o)
strncpy                                           c:/ProgramFiles/mingw-w64-x86_64-8.1.0-posix-seh-rt_v6-rev0/mingw64/bin/../lib/gcc/x86_64-w64-mingw32/8.1.0/../../../../x86_64-w64-mingw32/lib/../lib/libmsvcrt.a(duags01212.o)
                                                  c:/ProgramFiles/mingw-w64-x86_64-8.1.0-posix-seh-rt_v6-rev0/mingw64/bin/../lib/gcc/x86_64-w64-mingw32/8.1.0/../../../../x86_64-w64-mingw32/lib/../lib/libmingwex.a(lib64_libmingwex_a-dirent.o)
strpbrk                                           c:/ProgramFiles/mingw-w64-x86_64-8.1.0-posix-seh-rt_v6-rev0/mingw64/bin/../lib/gcc/x86_64-w64-mingw32/8.1.0/../../../../x86_64-w64-mingw32/lib/../lib/libmsvcrt.a(duags01214.o)
                                                  bin/win/DEBUG/obj/fil_file.o
telldir                                           c:/ProgramFiles/mingw-w64-x86_64-8.1.0-posix-seh-rt_v6-rev0/mingw64/bin/../lib/gcc/x86_64-w64-mingw32/8.1.0/../../../../x86_64-w64-mingw32/lib/../lib/libmingwex.a(lib64_libmingwex_a-dirent.o)
time                                              c:/ProgramFiles/mingw-w64-x86_64-8.1.0-posix-seh-rt_v6-rev0/mingw64/bin/../lib/gcc/x86_64-w64-mingw32/8.1.0/../../../../x86_64-w64-mingw32/lib/../lib/libmsvcrt.a(duags00973.o)
                                                  bin/win/DEBUG/obj/main.o
                                                  bin/win/DEBUG/obj/log_logger.o
vfprintf                                          c:/ProgramFiles/mingw-w64-x86_64-8.1.0-posix-seh-rt_v6-rev0/mingw64/bin/../lib/gcc/x86_64-w64-mingw32/8.1.0/../../../../x86_64-w64-mingw32/lib/../lib/libmsvcrt.a(duags01243.o)
                                                  c:/ProgramFiles/mingw-w64-x86_64-8.1.0-posix-seh-rt_v6-rev0/mingw64/bin/../lib/gcc/x86_64-w64-mingw32/8.1.0/../../../../x86_64-w64-mingw32/lib/../lib/libmingwex.a(lib64_libmingwex_a-getopt.o)
                                                  c:/ProgramFiles/mingw-w64-x86_64-8.1.0-posix-seh-rt_v6-rev0/mingw64/bin/../lib/gcc/x86_64-w64-mingw32/8.1.0/../../../../x86_64-w64-mingw32/lib/../lib/libmingw32.a(lib64_libmingw32_a-pseudo-reloc.o)
                                                  bin/win/DEBUG/obj/log_logger.o
vsq_acknReSyncHead                                bin/win/DEBUG/obj/vsq_threadSafeQueueVariableSize.o
vsq_allocTailElement                              bin/win/DEBUG/obj/vsq_threadSafeQueueVariableSize.o
                                                  bin/win/DEBUG/obj/vsq_dispatcherPortInterface.o
vsq_createEventQueue                              bin/win/DEBUG/obj/vsq_dispatcherPortInterface.o
                                                  bin/win/DEBUG/obj/apt_applicationTask.o
vsq_createEventQueueHead                          bin/win/DEBUG/obj/vsq_dispatcherPortInterface.o
vsq_createEventQueueTail                          bin/win/DEBUG/obj/vsq_dispatcherPortInterface.o
vsq_createQueueHead                               bin/win/DEBUG/obj/vsq_threadSafeQueueVariableSize.o
                                                  bin/win/DEBUG/obj/vsq_dispatcherPortInterface.o
vsq_createQueueTail                               bin/win/DEBUG/obj/vsq_threadSafeQueueVariableSize.o
                                                  bin/win/DEBUG/obj/vsq_dispatcherPortInterface.o
vsq_getIsCommunicationBroken                      bin/win/DEBUG/obj/vsq_threadSafeQueueVariableSize.o
vsq_getMaximumQueueUsage                          bin/win/DEBUG/obj/vsq_threadSafeQueueVariableSize.o
vsq_getMaximumQueueUsageInByte                    bin/win/DEBUG/obj/vsq_threadSafeQueueVariableSize.o
vsq_getSizeOfQueueHead                            bin/win/DEBUG/obj/vsq_threadSafeQueueVariableSize.o
                                                  bin/win/DEBUG/obj/vsq_dispatcherPortInterface.o
vsq_getSizeOfQueueTail                            bin/win/DEBUG/obj/vsq_threadSafeQueueVariableSize.o
                                                  bin/win/DEBUG/obj/vsq_dispatcherPortInterface.o
vsq_linkEventQueueHeadWithTail                    bin/win/DEBUG/obj/vsq_dispatcherPortInterface.o
vsq_linkEventQueueTailWithHead                    bin/win/DEBUG/obj/vsq_dispatcherPortInterface.o
vsq_linkQueueHeadWithTail                         bin/win/DEBUG/obj/vsq_threadSafeQueueVariableSize.o
                                                  bin/win/DEBUG/obj/vsq_dispatcherPortInterface.o
vsq_linkQueueTailWithHead                         bin/win/DEBUG/obj/vsq_threadSafeQueueVariableSize.o
                                                  bin/win/DEBUG/obj/vsq_dispatcherPortInterface.o
vsq_postTailElement                               bin/win/DEBUG/obj/vsq_threadSafeQueueVariableSize.o
                                                  bin/win/DEBUG/obj/vsq_dispatcherPortInterface.o
vsq_readFromHead                                  bin/win/DEBUG/obj/vsq_threadSafeQueueVariableSize.o
                                                  bin/win/DEBUG/obj/vsq_dispatcherPortInterface.o
vsq_writeToTail                                   bin/win/DEBUG/obj/vsq_threadSafeQueueVariableSize.o
wcscpy                                            c:/ProgramFiles/mingw-w64-x86_64-8.1.0-posix-seh-rt_v6-rev0/mingw64/bin/../lib/gcc/x86_64-w64-mingw32/8.1.0/../../../../x86_64-w64-mingw32/lib/../lib/libmsvcrt.a(duags01260.o)
                                                  c:/ProgramFiles/mingw-w64-x86_64-8.1.0-posix-seh-rt_v6-rev0/mingw64/bin/../lib/gcc/x86_64-w64-mingw32/8.1.0/../../../../x86_64-w64-mingw32/lib/../lib/libmingwex.a(lib64_libmingwex_a-wassert.o)
